
aesni-x86_64.o:     file format elf64-x86-64


Disassembly of section .text:

0000000000000000 <aesni_encrypt>:
       0:	f3 0f 1e fa          	endbr64 
       4:	0f 10 17             	movups (%rdi),%xmm2
       7:	8b 82 f0 00 00 00    	mov    0xf0(%rdx),%eax
       d:	0f 10 02             	movups (%rdx),%xmm0
      10:	0f 10 4a 10          	movups 0x10(%rdx),%xmm1
      14:	48 8d 52 20          	lea    0x20(%rdx),%rdx
      18:	0f 57 d0             	xorps  %xmm0,%xmm2
      1b:	66 0f 38 dc d1       	aesenc %xmm1,%xmm2
      20:	ff c8                	dec    %eax
      22:	0f 10 0a             	movups (%rdx),%xmm1
      25:	48 8d 52 10          	lea    0x10(%rdx),%rdx
      29:	75 f0                	jne    1b <aesni_encrypt+0x1b>
      2b:	66 0f 38 dd d1       	aesenclast %xmm1,%xmm2
      30:	66 0f ef c0          	pxor   %xmm0,%xmm0
      34:	66 0f ef c9          	pxor   %xmm1,%xmm1
      38:	0f 11 16             	movups %xmm2,(%rsi)
      3b:	66 0f ef d2          	pxor   %xmm2,%xmm2
      3f:	f3 c3                	repz ret 
      41:	66 66 2e 0f 1f 84 00 	data16 cs nopw 0x0(%rax,%rax,1)
      48:	00 00 00 00 
      4c:	0f 1f 40 00          	nopl   0x0(%rax)

0000000000000050 <aesni_decrypt>:
      50:	f3 0f 1e fa          	endbr64 
      54:	0f 10 17             	movups (%rdi),%xmm2
      57:	8b 82 f0 00 00 00    	mov    0xf0(%rdx),%eax
      5d:	0f 10 02             	movups (%rdx),%xmm0
      60:	0f 10 4a 10          	movups 0x10(%rdx),%xmm1
      64:	48 8d 52 20          	lea    0x20(%rdx),%rdx
      68:	0f 57 d0             	xorps  %xmm0,%xmm2
      6b:	66 0f 38 de d1       	aesdec %xmm1,%xmm2
      70:	ff c8                	dec    %eax
      72:	0f 10 0a             	movups (%rdx),%xmm1
      75:	48 8d 52 10          	lea    0x10(%rdx),%rdx
      79:	75 f0                	jne    6b <aesni_decrypt+0x1b>
      7b:	66 0f 38 df d1       	aesdeclast %xmm1,%xmm2
      80:	66 0f ef c0          	pxor   %xmm0,%xmm0
      84:	66 0f ef c9          	pxor   %xmm1,%xmm1
      88:	0f 11 16             	movups %xmm2,(%rsi)
      8b:	66 0f ef d2          	pxor   %xmm2,%xmm2
      8f:	f3 c3                	repz ret 
      91:	66 66 2e 0f 1f 84 00 	data16 cs nopw 0x0(%rax,%rax,1)
      98:	00 00 00 00 
      9c:	0f 1f 40 00          	nopl   0x0(%rax)

00000000000000a0 <_aesni_encrypt2>:
      a0:	0f 10 01             	movups (%rcx),%xmm0
      a3:	c1 e0 04             	shl    $0x4,%eax
      a6:	0f 10 49 10          	movups 0x10(%rcx),%xmm1
      aa:	0f 57 d0             	xorps  %xmm0,%xmm2
      ad:	0f 57 d8             	xorps  %xmm0,%xmm3
      b0:	0f 10 41 20          	movups 0x20(%rcx),%xmm0
      b4:	48 8d 4c 01 20       	lea    0x20(%rcx,%rax,1),%rcx
      b9:	48 f7 d8             	neg    %rax
      bc:	48 83 c0 10          	add    $0x10,%rax
      c0:	66 0f 38 dc d1       	aesenc %xmm1,%xmm2
      c5:	66 0f 38 dc d9       	aesenc %xmm1,%xmm3
      ca:	0f 10 0c 01          	movups (%rcx,%rax,1),%xmm1
      ce:	48 83 c0 20          	add    $0x20,%rax
      d2:	66 0f 38 dc d0       	aesenc %xmm0,%xmm2
      d7:	66 0f 38 dc d8       	aesenc %xmm0,%xmm3
      dc:	0f 10 44 01 f0       	movups -0x10(%rcx,%rax,1),%xmm0
      e1:	75 dd                	jne    c0 <_aesni_encrypt2+0x20>
      e3:	66 0f 38 dc d1       	aesenc %xmm1,%xmm2
      e8:	66 0f 38 dc d9       	aesenc %xmm1,%xmm3
      ed:	66 0f 38 dd d0       	aesenclast %xmm0,%xmm2
      f2:	66 0f 38 dd d8       	aesenclast %xmm0,%xmm3
      f7:	f3 c3                	repz ret 
      f9:	0f 1f 80 00 00 00 00 	nopl   0x0(%rax)

0000000000000100 <_aesni_decrypt2>:
     100:	0f 10 01             	movups (%rcx),%xmm0
     103:	c1 e0 04             	shl    $0x4,%eax
     106:	0f 10 49 10          	movups 0x10(%rcx),%xmm1
     10a:	0f 57 d0             	xorps  %xmm0,%xmm2
     10d:	0f 57 d8             	xorps  %xmm0,%xmm3
     110:	0f 10 41 20          	movups 0x20(%rcx),%xmm0
     114:	48 8d 4c 01 20       	lea    0x20(%rcx,%rax,1),%rcx
     119:	48 f7 d8             	neg    %rax
     11c:	48 83 c0 10          	add    $0x10,%rax
     120:	66 0f 38 de d1       	aesdec %xmm1,%xmm2
     125:	66 0f 38 de d9       	aesdec %xmm1,%xmm3
     12a:	0f 10 0c 01          	movups (%rcx,%rax,1),%xmm1
     12e:	48 83 c0 20          	add    $0x20,%rax
     132:	66 0f 38 de d0       	aesdec %xmm0,%xmm2
     137:	66 0f 38 de d8       	aesdec %xmm0,%xmm3
     13c:	0f 10 44 01 f0       	movups -0x10(%rcx,%rax,1),%xmm0
     141:	75 dd                	jne    120 <_aesni_decrypt2+0x20>
     143:	66 0f 38 de d1       	aesdec %xmm1,%xmm2
     148:	66 0f 38 de d9       	aesdec %xmm1,%xmm3
     14d:	66 0f 38 df d0       	aesdeclast %xmm0,%xmm2
     152:	66 0f 38 df d8       	aesdeclast %xmm0,%xmm3
     157:	f3 c3                	repz ret 
     159:	0f 1f 80 00 00 00 00 	nopl   0x0(%rax)

0000000000000160 <_aesni_encrypt3>:
     160:	0f 10 01             	movups (%rcx),%xmm0
     163:	c1 e0 04             	shl    $0x4,%eax
     166:	0f 10 49 10          	movups 0x10(%rcx),%xmm1
     16a:	0f 57 d0             	xorps  %xmm0,%xmm2
     16d:	0f 57 d8             	xorps  %xmm0,%xmm3
     170:	0f 57 e0             	xorps  %xmm0,%xmm4
     173:	0f 10 41 20          	movups 0x20(%rcx),%xmm0
     177:	48 8d 4c 01 20       	lea    0x20(%rcx,%rax,1),%rcx
     17c:	48 f7 d8             	neg    %rax
     17f:	48 83 c0 10          	add    $0x10,%rax
     183:	66 0f 38 dc d1       	aesenc %xmm1,%xmm2
     188:	66 0f 38 dc d9       	aesenc %xmm1,%xmm3
     18d:	66 0f 38 dc e1       	aesenc %xmm1,%xmm4
     192:	0f 10 0c 01          	movups (%rcx,%rax,1),%xmm1
     196:	48 83 c0 20          	add    $0x20,%rax
     19a:	66 0f 38 dc d0       	aesenc %xmm0,%xmm2
     19f:	66 0f 38 dc d8       	aesenc %xmm0,%xmm3
     1a4:	66 0f 38 dc e0       	aesenc %xmm0,%xmm4
     1a9:	0f 10 44 01 f0       	movups -0x10(%rcx,%rax,1),%xmm0
     1ae:	75 d3                	jne    183 <_aesni_encrypt3+0x23>
     1b0:	66 0f 38 dc d1       	aesenc %xmm1,%xmm2
     1b5:	66 0f 38 dc d9       	aesenc %xmm1,%xmm3
     1ba:	66 0f 38 dc e1       	aesenc %xmm1,%xmm4
     1bf:	66 0f 38 dd d0       	aesenclast %xmm0,%xmm2
     1c4:	66 0f 38 dd d8       	aesenclast %xmm0,%xmm3
     1c9:	66 0f 38 dd e0       	aesenclast %xmm0,%xmm4
     1ce:	f3 c3                	repz ret 

00000000000001d0 <_aesni_decrypt3>:
     1d0:	0f 10 01             	movups (%rcx),%xmm0
     1d3:	c1 e0 04             	shl    $0x4,%eax
     1d6:	0f 10 49 10          	movups 0x10(%rcx),%xmm1
     1da:	0f 57 d0             	xorps  %xmm0,%xmm2
     1dd:	0f 57 d8             	xorps  %xmm0,%xmm3
     1e0:	0f 57 e0             	xorps  %xmm0,%xmm4
     1e3:	0f 10 41 20          	movups 0x20(%rcx),%xmm0
     1e7:	48 8d 4c 01 20       	lea    0x20(%rcx,%rax,1),%rcx
     1ec:	48 f7 d8             	neg    %rax
     1ef:	48 83 c0 10          	add    $0x10,%rax
     1f3:	66 0f 38 de d1       	aesdec %xmm1,%xmm2
     1f8:	66 0f 38 de d9       	aesdec %xmm1,%xmm3
     1fd:	66 0f 38 de e1       	aesdec %xmm1,%xmm4
     202:	0f 10 0c 01          	movups (%rcx,%rax,1),%xmm1
     206:	48 83 c0 20          	add    $0x20,%rax
     20a:	66 0f 38 de d0       	aesdec %xmm0,%xmm2
     20f:	66 0f 38 de d8       	aesdec %xmm0,%xmm3
     214:	66 0f 38 de e0       	aesdec %xmm0,%xmm4
     219:	0f 10 44 01 f0       	movups -0x10(%rcx,%rax,1),%xmm0
     21e:	75 d3                	jne    1f3 <_aesni_decrypt3+0x23>
     220:	66 0f 38 de d1       	aesdec %xmm1,%xmm2
     225:	66 0f 38 de d9       	aesdec %xmm1,%xmm3
     22a:	66 0f 38 de e1       	aesdec %xmm1,%xmm4
     22f:	66 0f 38 df d0       	aesdeclast %xmm0,%xmm2
     234:	66 0f 38 df d8       	aesdeclast %xmm0,%xmm3
     239:	66 0f 38 df e0       	aesdeclast %xmm0,%xmm4
     23e:	f3 c3                	repz ret 

0000000000000240 <_aesni_encrypt4>:
     240:	0f 10 01             	movups (%rcx),%xmm0
     243:	c1 e0 04             	shl    $0x4,%eax
     246:	0f 10 49 10          	movups 0x10(%rcx),%xmm1
     24a:	0f 57 d0             	xorps  %xmm0,%xmm2
     24d:	0f 57 d8             	xorps  %xmm0,%xmm3
     250:	0f 57 e0             	xorps  %xmm0,%xmm4
     253:	0f 57 e8             	xorps  %xmm0,%xmm5
     256:	0f 10 41 20          	movups 0x20(%rcx),%xmm0
     25a:	48 8d 4c 01 20       	lea    0x20(%rcx,%rax,1),%rcx
     25f:	48 f7 d8             	neg    %rax
     262:	0f 1f 00             	nopl   (%rax)
     265:	48 83 c0 10          	add    $0x10,%rax
     269:	66 0f 38 dc d1       	aesenc %xmm1,%xmm2
     26e:	66 0f 38 dc d9       	aesenc %xmm1,%xmm3
     273:	66 0f 38 dc e1       	aesenc %xmm1,%xmm4
     278:	66 0f 38 dc e9       	aesenc %xmm1,%xmm5
     27d:	0f 10 0c 01          	movups (%rcx,%rax,1),%xmm1
     281:	48 83 c0 20          	add    $0x20,%rax
     285:	66 0f 38 dc d0       	aesenc %xmm0,%xmm2
     28a:	66 0f 38 dc d8       	aesenc %xmm0,%xmm3
     28f:	66 0f 38 dc e0       	aesenc %xmm0,%xmm4
     294:	66 0f 38 dc e8       	aesenc %xmm0,%xmm5
     299:	0f 10 44 01 f0       	movups -0x10(%rcx,%rax,1),%xmm0
     29e:	75 c9                	jne    269 <_aesni_encrypt4+0x29>
     2a0:	66 0f 38 dc d1       	aesenc %xmm1,%xmm2
     2a5:	66 0f 38 dc d9       	aesenc %xmm1,%xmm3
     2aa:	66 0f 38 dc e1       	aesenc %xmm1,%xmm4
     2af:	66 0f 38 dc e9       	aesenc %xmm1,%xmm5
     2b4:	66 0f 38 dd d0       	aesenclast %xmm0,%xmm2
     2b9:	66 0f 38 dd d8       	aesenclast %xmm0,%xmm3
     2be:	66 0f 38 dd e0       	aesenclast %xmm0,%xmm4
     2c3:	66 0f 38 dd e8       	aesenclast %xmm0,%xmm5
     2c8:	f3 c3                	repz ret 
     2ca:	66 0f 1f 44 00 00    	nopw   0x0(%rax,%rax,1)

00000000000002d0 <_aesni_decrypt4>:
     2d0:	0f 10 01             	movups (%rcx),%xmm0
     2d3:	c1 e0 04             	shl    $0x4,%eax
     2d6:	0f 10 49 10          	movups 0x10(%rcx),%xmm1
     2da:	0f 57 d0             	xorps  %xmm0,%xmm2
     2dd:	0f 57 d8             	xorps  %xmm0,%xmm3
     2e0:	0f 57 e0             	xorps  %xmm0,%xmm4
     2e3:	0f 57 e8             	xorps  %xmm0,%xmm5
     2e6:	0f 10 41 20          	movups 0x20(%rcx),%xmm0
     2ea:	48 8d 4c 01 20       	lea    0x20(%rcx,%rax,1),%rcx
     2ef:	48 f7 d8             	neg    %rax
     2f2:	0f 1f 00             	nopl   (%rax)
     2f5:	48 83 c0 10          	add    $0x10,%rax
     2f9:	66 0f 38 de d1       	aesdec %xmm1,%xmm2
     2fe:	66 0f 38 de d9       	aesdec %xmm1,%xmm3
     303:	66 0f 38 de e1       	aesdec %xmm1,%xmm4
     308:	66 0f 38 de e9       	aesdec %xmm1,%xmm5
     30d:	0f 10 0c 01          	movups (%rcx,%rax,1),%xmm1
     311:	48 83 c0 20          	add    $0x20,%rax
     315:	66 0f 38 de d0       	aesdec %xmm0,%xmm2
     31a:	66 0f 38 de d8       	aesdec %xmm0,%xmm3
     31f:	66 0f 38 de e0       	aesdec %xmm0,%xmm4
     324:	66 0f 38 de e8       	aesdec %xmm0,%xmm5
     329:	0f 10 44 01 f0       	movups -0x10(%rcx,%rax,1),%xmm0
     32e:	75 c9                	jne    2f9 <_aesni_decrypt4+0x29>
     330:	66 0f 38 de d1       	aesdec %xmm1,%xmm2
     335:	66 0f 38 de d9       	aesdec %xmm1,%xmm3
     33a:	66 0f 38 de e1       	aesdec %xmm1,%xmm4
     33f:	66 0f 38 de e9       	aesdec %xmm1,%xmm5
     344:	66 0f 38 df d0       	aesdeclast %xmm0,%xmm2
     349:	66 0f 38 df d8       	aesdeclast %xmm0,%xmm3
     34e:	66 0f 38 df e0       	aesdeclast %xmm0,%xmm4
     353:	66 0f 38 df e8       	aesdeclast %xmm0,%xmm5
     358:	f3 c3                	repz ret 
     35a:	66 0f 1f 44 00 00    	nopw   0x0(%rax,%rax,1)

0000000000000360 <_aesni_encrypt6>:
     360:	0f 10 01             	movups (%rcx),%xmm0
     363:	c1 e0 04             	shl    $0x4,%eax
     366:	0f 10 49 10          	movups 0x10(%rcx),%xmm1
     36a:	0f 57 d0             	xorps  %xmm0,%xmm2
     36d:	66 0f ef d8          	pxor   %xmm0,%xmm3
     371:	66 0f ef e0          	pxor   %xmm0,%xmm4
     375:	66 0f 38 dc d1       	aesenc %xmm1,%xmm2
     37a:	48 8d 4c 01 20       	lea    0x20(%rcx,%rax,1),%rcx
     37f:	48 f7 d8             	neg    %rax
     382:	66 0f 38 dc d9       	aesenc %xmm1,%xmm3
     387:	66 0f ef e8          	pxor   %xmm0,%xmm5
     38b:	66 0f ef f0          	pxor   %xmm0,%xmm6
     38f:	66 0f 38 dc e1       	aesenc %xmm1,%xmm4
     394:	66 0f ef f8          	pxor   %xmm0,%xmm7
     398:	0f 10 04 01          	movups (%rcx,%rax,1),%xmm0
     39c:	48 83 c0 10          	add    $0x10,%rax
     3a0:	eb 1d                	jmp    3bf <_aesni_encrypt6+0x5f>
     3a2:	66 66 2e 0f 1f 84 00 	data16 cs nopw 0x0(%rax,%rax,1)
     3a9:	00 00 00 00 
     3ad:	0f 1f 00             	nopl   (%rax)
     3b0:	66 0f 38 dc d1       	aesenc %xmm1,%xmm2
     3b5:	66 0f 38 dc d9       	aesenc %xmm1,%xmm3
     3ba:	66 0f 38 dc e1       	aesenc %xmm1,%xmm4
     3bf:	66 0f 38 dc e9       	aesenc %xmm1,%xmm5
     3c4:	66 0f 38 dc f1       	aesenc %xmm1,%xmm6
     3c9:	66 0f 38 dc f9       	aesenc %xmm1,%xmm7
     3ce:	0f 10 0c 01          	movups (%rcx,%rax,1),%xmm1
     3d2:	48 83 c0 20          	add    $0x20,%rax
     3d6:	66 0f 38 dc d0       	aesenc %xmm0,%xmm2
     3db:	66 0f 38 dc d8       	aesenc %xmm0,%xmm3
     3e0:	66 0f 38 dc e0       	aesenc %xmm0,%xmm4
     3e5:	66 0f 38 dc e8       	aesenc %xmm0,%xmm5
     3ea:	66 0f 38 dc f0       	aesenc %xmm0,%xmm6
     3ef:	66 0f 38 dc f8       	aesenc %xmm0,%xmm7
     3f4:	0f 10 44 01 f0       	movups -0x10(%rcx,%rax,1),%xmm0
     3f9:	75 b5                	jne    3b0 <_aesni_encrypt6+0x50>
     3fb:	66 0f 38 dc d1       	aesenc %xmm1,%xmm2
     400:	66 0f 38 dc d9       	aesenc %xmm1,%xmm3
     405:	66 0f 38 dc e1       	aesenc %xmm1,%xmm4
     40a:	66 0f 38 dc e9       	aesenc %xmm1,%xmm5
     40f:	66 0f 38 dc f1       	aesenc %xmm1,%xmm6
     414:	66 0f 38 dc f9       	aesenc %xmm1,%xmm7
     419:	66 0f 38 dd d0       	aesenclast %xmm0,%xmm2
     41e:	66 0f 38 dd d8       	aesenclast %xmm0,%xmm3
     423:	66 0f 38 dd e0       	aesenclast %xmm0,%xmm4
     428:	66 0f 38 dd e8       	aesenclast %xmm0,%xmm5
     42d:	66 0f 38 dd f0       	aesenclast %xmm0,%xmm6
     432:	66 0f 38 dd f8       	aesenclast %xmm0,%xmm7
     437:	f3 c3                	repz ret 
     439:	0f 1f 80 00 00 00 00 	nopl   0x0(%rax)

0000000000000440 <_aesni_decrypt6>:
     440:	0f 10 01             	movups (%rcx),%xmm0
     443:	c1 e0 04             	shl    $0x4,%eax
     446:	0f 10 49 10          	movups 0x10(%rcx),%xmm1
     44a:	0f 57 d0             	xorps  %xmm0,%xmm2
     44d:	66 0f ef d8          	pxor   %xmm0,%xmm3
     451:	66 0f ef e0          	pxor   %xmm0,%xmm4
     455:	66 0f 38 de d1       	aesdec %xmm1,%xmm2
     45a:	48 8d 4c 01 20       	lea    0x20(%rcx,%rax,1),%rcx
     45f:	48 f7 d8             	neg    %rax
     462:	66 0f 38 de d9       	aesdec %xmm1,%xmm3
     467:	66 0f ef e8          	pxor   %xmm0,%xmm5
     46b:	66 0f ef f0          	pxor   %xmm0,%xmm6
     46f:	66 0f 38 de e1       	aesdec %xmm1,%xmm4
     474:	66 0f ef f8          	pxor   %xmm0,%xmm7
     478:	0f 10 04 01          	movups (%rcx,%rax,1),%xmm0
     47c:	48 83 c0 10          	add    $0x10,%rax
     480:	eb 1d                	jmp    49f <_aesni_decrypt6+0x5f>
     482:	66 66 2e 0f 1f 84 00 	data16 cs nopw 0x0(%rax,%rax,1)
     489:	00 00 00 00 
     48d:	0f 1f 00             	nopl   (%rax)
     490:	66 0f 38 de d1       	aesdec %xmm1,%xmm2
     495:	66 0f 38 de d9       	aesdec %xmm1,%xmm3
     49a:	66 0f 38 de e1       	aesdec %xmm1,%xmm4
     49f:	66 0f 38 de e9       	aesdec %xmm1,%xmm5
     4a4:	66 0f 38 de f1       	aesdec %xmm1,%xmm6
     4a9:	66 0f 38 de f9       	aesdec %xmm1,%xmm7
     4ae:	0f 10 0c 01          	movups (%rcx,%rax,1),%xmm1
     4b2:	48 83 c0 20          	add    $0x20,%rax
     4b6:	66 0f 38 de d0       	aesdec %xmm0,%xmm2
     4bb:	66 0f 38 de d8       	aesdec %xmm0,%xmm3
     4c0:	66 0f 38 de e0       	aesdec %xmm0,%xmm4
     4c5:	66 0f 38 de e8       	aesdec %xmm0,%xmm5
     4ca:	66 0f 38 de f0       	aesdec %xmm0,%xmm6
     4cf:	66 0f 38 de f8       	aesdec %xmm0,%xmm7
     4d4:	0f 10 44 01 f0       	movups -0x10(%rcx,%rax,1),%xmm0
     4d9:	75 b5                	jne    490 <_aesni_decrypt6+0x50>
     4db:	66 0f 38 de d1       	aesdec %xmm1,%xmm2
     4e0:	66 0f 38 de d9       	aesdec %xmm1,%xmm3
     4e5:	66 0f 38 de e1       	aesdec %xmm1,%xmm4
     4ea:	66 0f 38 de e9       	aesdec %xmm1,%xmm5
     4ef:	66 0f 38 de f1       	aesdec %xmm1,%xmm6
     4f4:	66 0f 38 de f9       	aesdec %xmm1,%xmm7
     4f9:	66 0f 38 df d0       	aesdeclast %xmm0,%xmm2
     4fe:	66 0f 38 df d8       	aesdeclast %xmm0,%xmm3
     503:	66 0f 38 df e0       	aesdeclast %xmm0,%xmm4
     508:	66 0f 38 df e8       	aesdeclast %xmm0,%xmm5
     50d:	66 0f 38 df f0       	aesdeclast %xmm0,%xmm6
     512:	66 0f 38 df f8       	aesdeclast %xmm0,%xmm7
     517:	f3 c3                	repz ret 
     519:	0f 1f 80 00 00 00 00 	nopl   0x0(%rax)

0000000000000520 <_aesni_encrypt8>:
     520:	0f 10 01             	movups (%rcx),%xmm0
     523:	c1 e0 04             	shl    $0x4,%eax
     526:	0f 10 49 10          	movups 0x10(%rcx),%xmm1
     52a:	0f 57 d0             	xorps  %xmm0,%xmm2
     52d:	0f 57 d8             	xorps  %xmm0,%xmm3
     530:	66 0f ef e0          	pxor   %xmm0,%xmm4
     534:	66 0f ef e8          	pxor   %xmm0,%xmm5
     538:	66 0f ef f0          	pxor   %xmm0,%xmm6
     53c:	48 8d 4c 01 20       	lea    0x20(%rcx,%rax,1),%rcx
     541:	48 f7 d8             	neg    %rax
     544:	66 0f 38 dc d1       	aesenc %xmm1,%xmm2
     549:	66 0f ef f8          	pxor   %xmm0,%xmm7
     54d:	66 44 0f ef c0       	pxor   %xmm0,%xmm8
     552:	66 0f 38 dc d9       	aesenc %xmm1,%xmm3
     557:	66 44 0f ef c8       	pxor   %xmm0,%xmm9
     55c:	0f 10 04 01          	movups (%rcx,%rax,1),%xmm0
     560:	48 83 c0 10          	add    $0x10,%rax
     564:	eb 14                	jmp    57a <_aesni_encrypt8+0x5a>
     566:	66 2e 0f 1f 84 00 00 	cs nopw 0x0(%rax,%rax,1)
     56d:	00 00 00 
     570:	66 0f 38 dc d1       	aesenc %xmm1,%xmm2
     575:	66 0f 38 dc d9       	aesenc %xmm1,%xmm3
     57a:	66 0f 38 dc e1       	aesenc %xmm1,%xmm4
     57f:	66 0f 38 dc e9       	aesenc %xmm1,%xmm5
     584:	66 0f 38 dc f1       	aesenc %xmm1,%xmm6
     589:	66 0f 38 dc f9       	aesenc %xmm1,%xmm7
     58e:	66 44 0f 38 dc c1    	aesenc %xmm1,%xmm8
     594:	66 44 0f 38 dc c9    	aesenc %xmm1,%xmm9
     59a:	0f 10 0c 01          	movups (%rcx,%rax,1),%xmm1
     59e:	48 83 c0 20          	add    $0x20,%rax
     5a2:	66 0f 38 dc d0       	aesenc %xmm0,%xmm2
     5a7:	66 0f 38 dc d8       	aesenc %xmm0,%xmm3
     5ac:	66 0f 38 dc e0       	aesenc %xmm0,%xmm4
     5b1:	66 0f 38 dc e8       	aesenc %xmm0,%xmm5
     5b6:	66 0f 38 dc f0       	aesenc %xmm0,%xmm6
     5bb:	66 0f 38 dc f8       	aesenc %xmm0,%xmm7
     5c0:	66 44 0f 38 dc c0    	aesenc %xmm0,%xmm8
     5c6:	66 44 0f 38 dc c8    	aesenc %xmm0,%xmm9
     5cc:	0f 10 44 01 f0       	movups -0x10(%rcx,%rax,1),%xmm0
     5d1:	75 9d                	jne    570 <_aesni_encrypt8+0x50>
     5d3:	66 0f 38 dc d1       	aesenc %xmm1,%xmm2
     5d8:	66 0f 38 dc d9       	aesenc %xmm1,%xmm3
     5dd:	66 0f 38 dc e1       	aesenc %xmm1,%xmm4
     5e2:	66 0f 38 dc e9       	aesenc %xmm1,%xmm5
     5e7:	66 0f 38 dc f1       	aesenc %xmm1,%xmm6
     5ec:	66 0f 38 dc f9       	aesenc %xmm1,%xmm7
     5f1:	66 44 0f 38 dc c1    	aesenc %xmm1,%xmm8
     5f7:	66 44 0f 38 dc c9    	aesenc %xmm1,%xmm9
     5fd:	66 0f 38 dd d0       	aesenclast %xmm0,%xmm2
     602:	66 0f 38 dd d8       	aesenclast %xmm0,%xmm3
     607:	66 0f 38 dd e0       	aesenclast %xmm0,%xmm4
     60c:	66 0f 38 dd e8       	aesenclast %xmm0,%xmm5
     611:	66 0f 38 dd f0       	aesenclast %xmm0,%xmm6
     616:	66 0f 38 dd f8       	aesenclast %xmm0,%xmm7
     61b:	66 44 0f 38 dd c0    	aesenclast %xmm0,%xmm8
     621:	66 44 0f 38 dd c8    	aesenclast %xmm0,%xmm9
     627:	f3 c3                	repz ret 
     629:	0f 1f 80 00 00 00 00 	nopl   0x0(%rax)

0000000000000630 <_aesni_decrypt8>:
     630:	0f 10 01             	movups (%rcx),%xmm0
     633:	c1 e0 04             	shl    $0x4,%eax
     636:	0f 10 49 10          	movups 0x10(%rcx),%xmm1
     63a:	0f 57 d0             	xorps  %xmm0,%xmm2
     63d:	0f 57 d8             	xorps  %xmm0,%xmm3
     640:	66 0f ef e0          	pxor   %xmm0,%xmm4
     644:	66 0f ef e8          	pxor   %xmm0,%xmm5
     648:	66 0f ef f0          	pxor   %xmm0,%xmm6
     64c:	48 8d 4c 01 20       	lea    0x20(%rcx,%rax,1),%rcx
     651:	48 f7 d8             	neg    %rax
     654:	66 0f 38 de d1       	aesdec %xmm1,%xmm2
     659:	66 0f ef f8          	pxor   %xmm0,%xmm7
     65d:	66 44 0f ef c0       	pxor   %xmm0,%xmm8
     662:	66 0f 38 de d9       	aesdec %xmm1,%xmm3
     667:	66 44 0f ef c8       	pxor   %xmm0,%xmm9
     66c:	0f 10 04 01          	movups (%rcx,%rax,1),%xmm0
     670:	48 83 c0 10          	add    $0x10,%rax
     674:	eb 14                	jmp    68a <_aesni_decrypt8+0x5a>
     676:	66 2e 0f 1f 84 00 00 	cs nopw 0x0(%rax,%rax,1)
     67d:	00 00 00 
     680:	66 0f 38 de d1       	aesdec %xmm1,%xmm2
     685:	66 0f 38 de d9       	aesdec %xmm1,%xmm3
     68a:	66 0f 38 de e1       	aesdec %xmm1,%xmm4
     68f:	66 0f 38 de e9       	aesdec %xmm1,%xmm5
     694:	66 0f 38 de f1       	aesdec %xmm1,%xmm6
     699:	66 0f 38 de f9       	aesdec %xmm1,%xmm7
     69e:	66 44 0f 38 de c1    	aesdec %xmm1,%xmm8
     6a4:	66 44 0f 38 de c9    	aesdec %xmm1,%xmm9
     6aa:	0f 10 0c 01          	movups (%rcx,%rax,1),%xmm1
     6ae:	48 83 c0 20          	add    $0x20,%rax
     6b2:	66 0f 38 de d0       	aesdec %xmm0,%xmm2
     6b7:	66 0f 38 de d8       	aesdec %xmm0,%xmm3
     6bc:	66 0f 38 de e0       	aesdec %xmm0,%xmm4
     6c1:	66 0f 38 de e8       	aesdec %xmm0,%xmm5
     6c6:	66 0f 38 de f0       	aesdec %xmm0,%xmm6
     6cb:	66 0f 38 de f8       	aesdec %xmm0,%xmm7
     6d0:	66 44 0f 38 de c0    	aesdec %xmm0,%xmm8
     6d6:	66 44 0f 38 de c8    	aesdec %xmm0,%xmm9
     6dc:	0f 10 44 01 f0       	movups -0x10(%rcx,%rax,1),%xmm0
     6e1:	75 9d                	jne    680 <_aesni_decrypt8+0x50>
     6e3:	66 0f 38 de d1       	aesdec %xmm1,%xmm2
     6e8:	66 0f 38 de d9       	aesdec %xmm1,%xmm3
     6ed:	66 0f 38 de e1       	aesdec %xmm1,%xmm4
     6f2:	66 0f 38 de e9       	aesdec %xmm1,%xmm5
     6f7:	66 0f 38 de f1       	aesdec %xmm1,%xmm6
     6fc:	66 0f 38 de f9       	aesdec %xmm1,%xmm7
     701:	66 44 0f 38 de c1    	aesdec %xmm1,%xmm8
     707:	66 44 0f 38 de c9    	aesdec %xmm1,%xmm9
     70d:	66 0f 38 df d0       	aesdeclast %xmm0,%xmm2
     712:	66 0f 38 df d8       	aesdeclast %xmm0,%xmm3
     717:	66 0f 38 df e0       	aesdeclast %xmm0,%xmm4
     71c:	66 0f 38 df e8       	aesdeclast %xmm0,%xmm5
     721:	66 0f 38 df f0       	aesdeclast %xmm0,%xmm6
     726:	66 0f 38 df f8       	aesdeclast %xmm0,%xmm7
     72b:	66 44 0f 38 df c0    	aesdeclast %xmm0,%xmm8
     731:	66 44 0f 38 df c8    	aesdeclast %xmm0,%xmm9
     737:	f3 c3                	repz ret 
     739:	0f 1f 80 00 00 00 00 	nopl   0x0(%rax)

0000000000000740 <aesni_ecb_encrypt>:
     740:	f3 0f 1e fa          	endbr64 
     744:	48 83 e2 f0          	and    $0xfffffffffffffff0,%rdx
     748:	0f 84 46 05 00 00    	je     c94 <aesni_ecb_encrypt+0x554>
     74e:	8b 81 f0 00 00 00    	mov    0xf0(%rcx),%eax
     754:	0f 10 01             	movups (%rcx),%xmm0
     757:	49 89 cb             	mov    %rcx,%r11
     75a:	41 89 c2             	mov    %eax,%r10d
     75d:	45 85 c0             	test   %r8d,%r8d
     760:	0f 84 4a 02 00 00    	je     9b0 <aesni_ecb_encrypt+0x270>
     766:	48 81 fa 80 00 00 00 	cmp    $0x80,%rdx
     76d:	0f 82 e4 00 00 00    	jb     857 <aesni_ecb_encrypt+0x117>
     773:	f3 0f 6f 17          	movdqu (%rdi),%xmm2
     777:	f3 0f 6f 5f 10       	movdqu 0x10(%rdi),%xmm3
     77c:	f3 0f 6f 67 20       	movdqu 0x20(%rdi),%xmm4
     781:	f3 0f 6f 6f 30       	movdqu 0x30(%rdi),%xmm5
     786:	f3 0f 6f 77 40       	movdqu 0x40(%rdi),%xmm6
     78b:	f3 0f 6f 7f 50       	movdqu 0x50(%rdi),%xmm7
     790:	f3 44 0f 6f 47 60    	movdqu 0x60(%rdi),%xmm8
     796:	f3 44 0f 6f 4f 70    	movdqu 0x70(%rdi),%xmm9
     79c:	48 8d bf 80 00 00 00 	lea    0x80(%rdi),%rdi
     7a3:	48 81 ea 80 00 00 00 	sub    $0x80,%rdx
     7aa:	eb 62                	jmp    80e <aesni_ecb_encrypt+0xce>
     7ac:	0f 1f 40 00          	nopl   0x0(%rax)
     7b0:	0f 11 16             	movups %xmm2,(%rsi)
     7b3:	4c 89 d9             	mov    %r11,%rcx
     7b6:	f3 0f 6f 17          	movdqu (%rdi),%xmm2
     7ba:	44 89 d0             	mov    %r10d,%eax
     7bd:	0f 11 5e 10          	movups %xmm3,0x10(%rsi)
     7c1:	f3 0f 6f 5f 10       	movdqu 0x10(%rdi),%xmm3
     7c6:	0f 11 66 20          	movups %xmm4,0x20(%rsi)
     7ca:	f3 0f 6f 67 20       	movdqu 0x20(%rdi),%xmm4
     7cf:	0f 11 6e 30          	movups %xmm5,0x30(%rsi)
     7d3:	f3 0f 6f 6f 30       	movdqu 0x30(%rdi),%xmm5
     7d8:	0f 11 76 40          	movups %xmm6,0x40(%rsi)
     7dc:	f3 0f 6f 77 40       	movdqu 0x40(%rdi),%xmm6
     7e1:	0f 11 7e 50          	movups %xmm7,0x50(%rsi)
     7e5:	f3 0f 6f 7f 50       	movdqu 0x50(%rdi),%xmm7
     7ea:	44 0f 11 46 60       	movups %xmm8,0x60(%rsi)
     7ef:	f3 44 0f 6f 47 60    	movdqu 0x60(%rdi),%xmm8
     7f5:	44 0f 11 4e 70       	movups %xmm9,0x70(%rsi)
     7fa:	48 8d b6 80 00 00 00 	lea    0x80(%rsi),%rsi
     801:	f3 44 0f 6f 4f 70    	movdqu 0x70(%rdi),%xmm9
     807:	48 8d bf 80 00 00 00 	lea    0x80(%rdi),%rdi
     80e:	e8 0d fd ff ff       	call   520 <_aesni_encrypt8>
     813:	48 81 ea 80 00 00 00 	sub    $0x80,%rdx
     81a:	73 94                	jae    7b0 <aesni_ecb_encrypt+0x70>
     81c:	0f 11 16             	movups %xmm2,(%rsi)
     81f:	4c 89 d9             	mov    %r11,%rcx
     822:	0f 11 5e 10          	movups %xmm3,0x10(%rsi)
     826:	44 89 d0             	mov    %r10d,%eax
     829:	0f 11 66 20          	movups %xmm4,0x20(%rsi)
     82d:	0f 11 6e 30          	movups %xmm5,0x30(%rsi)
     831:	0f 11 76 40          	movups %xmm6,0x40(%rsi)
     835:	0f 11 7e 50          	movups %xmm7,0x50(%rsi)
     839:	44 0f 11 46 60       	movups %xmm8,0x60(%rsi)
     83e:	44 0f 11 4e 70       	movups %xmm9,0x70(%rsi)
     843:	48 8d b6 80 00 00 00 	lea    0x80(%rsi),%rsi
     84a:	48 81 c2 80 00 00 00 	add    $0x80,%rdx
     851:	0f 84 3d 04 00 00    	je     c94 <aesni_ecb_encrypt+0x554>
     857:	0f 10 17             	movups (%rdi),%xmm2
     85a:	48 83 fa 20          	cmp    $0x20,%rdx
     85e:	72 70                	jb     8d0 <aesni_ecb_encrypt+0x190>
     860:	0f 10 5f 10          	movups 0x10(%rdi),%xmm3
     864:	0f 84 96 00 00 00    	je     900 <aesni_ecb_encrypt+0x1c0>
     86a:	0f 10 67 20          	movups 0x20(%rdi),%xmm4
     86e:	48 83 fa 40          	cmp    $0x40,%rdx
     872:	0f 82 a8 00 00 00    	jb     920 <aesni_ecb_encrypt+0x1e0>
     878:	0f 10 6f 30          	movups 0x30(%rdi),%xmm5
     87c:	0f 84 be 00 00 00    	je     940 <aesni_ecb_encrypt+0x200>
     882:	0f 10 77 40          	movups 0x40(%rdi),%xmm6
     886:	48 83 fa 60          	cmp    $0x60,%rdx
     88a:	0f 82 d0 00 00 00    	jb     960 <aesni_ecb_encrypt+0x220>
     890:	0f 10 7f 50          	movups 0x50(%rdi),%xmm7
     894:	0f 84 e6 00 00 00    	je     980 <aesni_ecb_encrypt+0x240>
     89a:	f3 44 0f 6f 47 60    	movdqu 0x60(%rdi),%xmm8
     8a0:	45 0f 57 c9          	xorps  %xmm9,%xmm9
     8a4:	e8 77 fc ff ff       	call   520 <_aesni_encrypt8>
     8a9:	0f 11 16             	movups %xmm2,(%rsi)
     8ac:	0f 11 5e 10          	movups %xmm3,0x10(%rsi)
     8b0:	0f 11 66 20          	movups %xmm4,0x20(%rsi)
     8b4:	0f 11 6e 30          	movups %xmm5,0x30(%rsi)
     8b8:	0f 11 76 40          	movups %xmm6,0x40(%rsi)
     8bc:	0f 11 7e 50          	movups %xmm7,0x50(%rsi)
     8c0:	44 0f 11 46 60       	movups %xmm8,0x60(%rsi)
     8c5:	e9 ca 03 00 00       	jmp    c94 <aesni_ecb_encrypt+0x554>
     8ca:	66 0f 1f 44 00 00    	nopw   0x0(%rax,%rax,1)
     8d0:	0f 10 01             	movups (%rcx),%xmm0
     8d3:	0f 10 49 10          	movups 0x10(%rcx),%xmm1
     8d7:	48 8d 49 20          	lea    0x20(%rcx),%rcx
     8db:	0f 57 d0             	xorps  %xmm0,%xmm2
     8de:	66 0f 38 dc d1       	aesenc %xmm1,%xmm2
     8e3:	ff c8                	dec    %eax
     8e5:	0f 10 09             	movups (%rcx),%xmm1
     8e8:	48 8d 49 10          	lea    0x10(%rcx),%rcx
     8ec:	75 f0                	jne    8de <aesni_ecb_encrypt+0x19e>
     8ee:	66 0f 38 dd d1       	aesenclast %xmm1,%xmm2
     8f3:	0f 11 16             	movups %xmm2,(%rsi)
     8f6:	e9 99 03 00 00       	jmp    c94 <aesni_ecb_encrypt+0x554>
     8fb:	0f 1f 44 00 00       	nopl   0x0(%rax,%rax,1)
     900:	e8 9b f7 ff ff       	call   a0 <_aesni_encrypt2>
     905:	0f 11 16             	movups %xmm2,(%rsi)
     908:	0f 11 5e 10          	movups %xmm3,0x10(%rsi)
     90c:	e9 83 03 00 00       	jmp    c94 <aesni_ecb_encrypt+0x554>
     911:	66 66 2e 0f 1f 84 00 	data16 cs nopw 0x0(%rax,%rax,1)
     918:	00 00 00 00 
     91c:	0f 1f 40 00          	nopl   0x0(%rax)
     920:	e8 3b f8 ff ff       	call   160 <_aesni_encrypt3>
     925:	0f 11 16             	movups %xmm2,(%rsi)
     928:	0f 11 5e 10          	movups %xmm3,0x10(%rsi)
     92c:	0f 11 66 20          	movups %xmm4,0x20(%rsi)
     930:	e9 5f 03 00 00       	jmp    c94 <aesni_ecb_encrypt+0x554>
     935:	66 66 2e 0f 1f 84 00 	data16 cs nopw 0x0(%rax,%rax,1)
     93c:	00 00 00 00 
     940:	e8 fb f8 ff ff       	call   240 <_aesni_encrypt4>
     945:	0f 11 16             	movups %xmm2,(%rsi)
     948:	0f 11 5e 10          	movups %xmm3,0x10(%rsi)
     94c:	0f 11 66 20          	movups %xmm4,0x20(%rsi)
     950:	0f 11 6e 30          	movups %xmm5,0x30(%rsi)
     954:	e9 3b 03 00 00       	jmp    c94 <aesni_ecb_encrypt+0x554>
     959:	0f 1f 80 00 00 00 00 	nopl   0x0(%rax)
     960:	0f 57 ff             	xorps  %xmm7,%xmm7
     963:	e8 f8 f9 ff ff       	call   360 <_aesni_encrypt6>
     968:	0f 11 16             	movups %xmm2,(%rsi)
     96b:	0f 11 5e 10          	movups %xmm3,0x10(%rsi)
     96f:	0f 11 66 20          	movups %xmm4,0x20(%rsi)
     973:	0f 11 6e 30          	movups %xmm5,0x30(%rsi)
     977:	0f 11 76 40          	movups %xmm6,0x40(%rsi)
     97b:	e9 14 03 00 00       	jmp    c94 <aesni_ecb_encrypt+0x554>
     980:	e8 db f9 ff ff       	call   360 <_aesni_encrypt6>
     985:	0f 11 16             	movups %xmm2,(%rsi)
     988:	0f 11 5e 10          	movups %xmm3,0x10(%rsi)
     98c:	0f 11 66 20          	movups %xmm4,0x20(%rsi)
     990:	0f 11 6e 30          	movups %xmm5,0x30(%rsi)
     994:	0f 11 76 40          	movups %xmm6,0x40(%rsi)
     998:	0f 11 7e 50          	movups %xmm7,0x50(%rsi)
     99c:	e9 f3 02 00 00       	jmp    c94 <aesni_ecb_encrypt+0x554>
     9a1:	66 66 2e 0f 1f 84 00 	data16 cs nopw 0x0(%rax,%rax,1)
     9a8:	00 00 00 00 
     9ac:	0f 1f 40 00          	nopl   0x0(%rax)
     9b0:	48 81 fa 80 00 00 00 	cmp    $0x80,%rdx
     9b7:	0f 82 10 01 00 00    	jb     acd <aesni_ecb_encrypt+0x38d>
     9bd:	f3 0f 6f 17          	movdqu (%rdi),%xmm2
     9c1:	f3 0f 6f 5f 10       	movdqu 0x10(%rdi),%xmm3
     9c6:	f3 0f 6f 67 20       	movdqu 0x20(%rdi),%xmm4
     9cb:	f3 0f 6f 6f 30       	movdqu 0x30(%rdi),%xmm5
     9d0:	f3 0f 6f 77 40       	movdqu 0x40(%rdi),%xmm6
     9d5:	f3 0f 6f 7f 50       	movdqu 0x50(%rdi),%xmm7
     9da:	f3 44 0f 6f 47 60    	movdqu 0x60(%rdi),%xmm8
     9e0:	f3 44 0f 6f 4f 70    	movdqu 0x70(%rdi),%xmm9
     9e6:	48 8d bf 80 00 00 00 	lea    0x80(%rdi),%rdi
     9ed:	48 81 ea 80 00 00 00 	sub    $0x80,%rdx
     9f4:	eb 68                	jmp    a5e <aesni_ecb_encrypt+0x31e>
     9f6:	66 2e 0f 1f 84 00 00 	cs nopw 0x0(%rax,%rax,1)
     9fd:	00 00 00 
     a00:	0f 11 16             	movups %xmm2,(%rsi)
     a03:	4c 89 d9             	mov    %r11,%rcx
     a06:	f3 0f 6f 17          	movdqu (%rdi),%xmm2
     a0a:	44 89 d0             	mov    %r10d,%eax
     a0d:	0f 11 5e 10          	movups %xmm3,0x10(%rsi)
     a11:	f3 0f 6f 5f 10       	movdqu 0x10(%rdi),%xmm3
     a16:	0f 11 66 20          	movups %xmm4,0x20(%rsi)
     a1a:	f3 0f 6f 67 20       	movdqu 0x20(%rdi),%xmm4
     a1f:	0f 11 6e 30          	movups %xmm5,0x30(%rsi)
     a23:	f3 0f 6f 6f 30       	movdqu 0x30(%rdi),%xmm5
     a28:	0f 11 76 40          	movups %xmm6,0x40(%rsi)
     a2c:	f3 0f 6f 77 40       	movdqu 0x40(%rdi),%xmm6
     a31:	0f 11 7e 50          	movups %xmm7,0x50(%rsi)
     a35:	f3 0f 6f 7f 50       	movdqu 0x50(%rdi),%xmm7
     a3a:	44 0f 11 46 60       	movups %xmm8,0x60(%rsi)
     a3f:	f3 44 0f 6f 47 60    	movdqu 0x60(%rdi),%xmm8
     a45:	44 0f 11 4e 70       	movups %xmm9,0x70(%rsi)
     a4a:	48 8d b6 80 00 00 00 	lea    0x80(%rsi),%rsi
     a51:	f3 44 0f 6f 4f 70    	movdqu 0x70(%rdi),%xmm9
     a57:	48 8d bf 80 00 00 00 	lea    0x80(%rdi),%rdi
     a5e:	e8 cd fb ff ff       	call   630 <_aesni_decrypt8>
     a63:	41 0f 10 03          	movups (%r11),%xmm0
     a67:	48 81 ea 80 00 00 00 	sub    $0x80,%rdx
     a6e:	73 90                	jae    a00 <aesni_ecb_encrypt+0x2c0>
     a70:	0f 11 16             	movups %xmm2,(%rsi)
     a73:	66 0f ef d2          	pxor   %xmm2,%xmm2
     a77:	4c 89 d9             	mov    %r11,%rcx
     a7a:	0f 11 5e 10          	movups %xmm3,0x10(%rsi)
     a7e:	66 0f ef db          	pxor   %xmm3,%xmm3
     a82:	44 89 d0             	mov    %r10d,%eax
     a85:	0f 11 66 20          	movups %xmm4,0x20(%rsi)
     a89:	66 0f ef e4          	pxor   %xmm4,%xmm4
     a8d:	0f 11 6e 30          	movups %xmm5,0x30(%rsi)
     a91:	66 0f ef ed          	pxor   %xmm5,%xmm5
     a95:	0f 11 76 40          	movups %xmm6,0x40(%rsi)
     a99:	66 0f ef f6          	pxor   %xmm6,%xmm6
     a9d:	0f 11 7e 50          	movups %xmm7,0x50(%rsi)
     aa1:	66 0f ef ff          	pxor   %xmm7,%xmm7
     aa5:	44 0f 11 46 60       	movups %xmm8,0x60(%rsi)
     aaa:	66 45 0f ef c0       	pxor   %xmm8,%xmm8
     aaf:	44 0f 11 4e 70       	movups %xmm9,0x70(%rsi)
     ab4:	66 45 0f ef c9       	pxor   %xmm9,%xmm9
     ab9:	48 8d b6 80 00 00 00 	lea    0x80(%rsi),%rsi
     ac0:	48 81 c2 80 00 00 00 	add    $0x80,%rdx
     ac7:	0f 84 c7 01 00 00    	je     c94 <aesni_ecb_encrypt+0x554>
     acd:	0f 10 17             	movups (%rdi),%xmm2
     ad0:	48 83 fa 20          	cmp    $0x20,%rdx
     ad4:	0f 82 96 00 00 00    	jb     b70 <aesni_ecb_encrypt+0x430>
     ada:	0f 10 5f 10          	movups 0x10(%rdi),%xmm3
     ade:	0f 84 bc 00 00 00    	je     ba0 <aesni_ecb_encrypt+0x460>
     ae4:	0f 10 67 20          	movups 0x20(%rdi),%xmm4
     ae8:	48 83 fa 40          	cmp    $0x40,%rdx
     aec:	0f 82 ce 00 00 00    	jb     bc0 <aesni_ecb_encrypt+0x480>
     af2:	0f 10 6f 30          	movups 0x30(%rdi),%xmm5
     af6:	0f 84 f4 00 00 00    	je     bf0 <aesni_ecb_encrypt+0x4b0>
     afc:	0f 10 77 40          	movups 0x40(%rdi),%xmm6
     b00:	48 83 fa 60          	cmp    $0x60,%rdx
     b04:	0f 82 16 01 00 00    	jb     c20 <aesni_ecb_encrypt+0x4e0>
     b0a:	0f 10 7f 50          	movups 0x50(%rdi),%xmm7
     b0e:	0f 84 4c 01 00 00    	je     c60 <aesni_ecb_encrypt+0x520>
     b14:	44 0f 10 47 60       	movups 0x60(%rdi),%xmm8
     b19:	0f 10 01             	movups (%rcx),%xmm0
     b1c:	45 0f 57 c9          	xorps  %xmm9,%xmm9
     b20:	e8 0b fb ff ff       	call   630 <_aesni_decrypt8>
     b25:	0f 11 16             	movups %xmm2,(%rsi)
     b28:	66 0f ef d2          	pxor   %xmm2,%xmm2
     b2c:	0f 11 5e 10          	movups %xmm3,0x10(%rsi)
     b30:	66 0f ef db          	pxor   %xmm3,%xmm3
     b34:	0f 11 66 20          	movups %xmm4,0x20(%rsi)
     b38:	66 0f ef e4          	pxor   %xmm4,%xmm4
     b3c:	0f 11 6e 30          	movups %xmm5,0x30(%rsi)
     b40:	66 0f ef ed          	pxor   %xmm5,%xmm5
     b44:	0f 11 76 40          	movups %xmm6,0x40(%rsi)
     b48:	66 0f ef f6          	pxor   %xmm6,%xmm6
     b4c:	0f 11 7e 50          	movups %xmm7,0x50(%rsi)
     b50:	66 0f ef ff          	pxor   %xmm7,%xmm7
     b54:	44 0f 11 46 60       	movups %xmm8,0x60(%rsi)
     b59:	66 45 0f ef c0       	pxor   %xmm8,%xmm8
     b5e:	66 45 0f ef c9       	pxor   %xmm9,%xmm9
     b63:	e9 2c 01 00 00       	jmp    c94 <aesni_ecb_encrypt+0x554>
     b68:	0f 1f 84 00 00 00 00 	nopl   0x0(%rax,%rax,1)
     b6f:	00 
     b70:	0f 10 01             	movups (%rcx),%xmm0
     b73:	0f 10 49 10          	movups 0x10(%rcx),%xmm1
     b77:	48 8d 49 20          	lea    0x20(%rcx),%rcx
     b7b:	0f 57 d0             	xorps  %xmm0,%xmm2
     b7e:	66 0f 38 de d1       	aesdec %xmm1,%xmm2
     b83:	ff c8                	dec    %eax
     b85:	0f 10 09             	movups (%rcx),%xmm1
     b88:	48 8d 49 10          	lea    0x10(%rcx),%rcx
     b8c:	75 f0                	jne    b7e <aesni_ecb_encrypt+0x43e>
     b8e:	66 0f 38 df d1       	aesdeclast %xmm1,%xmm2
     b93:	0f 11 16             	movups %xmm2,(%rsi)
     b96:	66 0f ef d2          	pxor   %xmm2,%xmm2
     b9a:	e9 f5 00 00 00       	jmp    c94 <aesni_ecb_encrypt+0x554>
     b9f:	90                   	nop
     ba0:	e8 5b f5 ff ff       	call   100 <_aesni_decrypt2>
     ba5:	0f 11 16             	movups %xmm2,(%rsi)
     ba8:	66 0f ef d2          	pxor   %xmm2,%xmm2
     bac:	0f 11 5e 10          	movups %xmm3,0x10(%rsi)
     bb0:	66 0f ef db          	pxor   %xmm3,%xmm3
     bb4:	e9 db 00 00 00       	jmp    c94 <aesni_ecb_encrypt+0x554>
     bb9:	0f 1f 80 00 00 00 00 	nopl   0x0(%rax)
     bc0:	e8 0b f6 ff ff       	call   1d0 <_aesni_decrypt3>
     bc5:	0f 11 16             	movups %xmm2,(%rsi)
     bc8:	66 0f ef d2          	pxor   %xmm2,%xmm2
     bcc:	0f 11 5e 10          	movups %xmm3,0x10(%rsi)
     bd0:	66 0f ef db          	pxor   %xmm3,%xmm3
     bd4:	0f 11 66 20          	movups %xmm4,0x20(%rsi)
     bd8:	66 0f ef e4          	pxor   %xmm4,%xmm4
     bdc:	e9 b3 00 00 00       	jmp    c94 <aesni_ecb_encrypt+0x554>
     be1:	66 66 2e 0f 1f 84 00 	data16 cs nopw 0x0(%rax,%rax,1)
     be8:	00 00 00 00 
     bec:	0f 1f 40 00          	nopl   0x0(%rax)
     bf0:	e8 db f6 ff ff       	call   2d0 <_aesni_decrypt4>
     bf5:	0f 11 16             	movups %xmm2,(%rsi)
     bf8:	66 0f ef d2          	pxor   %xmm2,%xmm2
     bfc:	0f 11 5e 10          	movups %xmm3,0x10(%rsi)
     c00:	66 0f ef db          	pxor   %xmm3,%xmm3
     c04:	0f 11 66 20          	movups %xmm4,0x20(%rsi)
     c08:	66 0f ef e4          	pxor   %xmm4,%xmm4
     c0c:	0f 11 6e 30          	movups %xmm5,0x30(%rsi)
     c10:	66 0f ef ed          	pxor   %xmm5,%xmm5
     c14:	eb 7e                	jmp    c94 <aesni_ecb_encrypt+0x554>
     c16:	66 2e 0f 1f 84 00 00 	cs nopw 0x0(%rax,%rax,1)
     c1d:	00 00 00 
     c20:	0f 57 ff             	xorps  %xmm7,%xmm7
     c23:	e8 18 f8 ff ff       	call   440 <_aesni_decrypt6>
     c28:	0f 11 16             	movups %xmm2,(%rsi)
     c2b:	66 0f ef d2          	pxor   %xmm2,%xmm2
     c2f:	0f 11 5e 10          	movups %xmm3,0x10(%rsi)
     c33:	66 0f ef db          	pxor   %xmm3,%xmm3
     c37:	0f 11 66 20          	movups %xmm4,0x20(%rsi)
     c3b:	66 0f ef e4          	pxor   %xmm4,%xmm4
     c3f:	0f 11 6e 30          	movups %xmm5,0x30(%rsi)
     c43:	66 0f ef ed          	pxor   %xmm5,%xmm5
     c47:	0f 11 76 40          	movups %xmm6,0x40(%rsi)
     c4b:	66 0f ef f6          	pxor   %xmm6,%xmm6
     c4f:	66 0f ef ff          	pxor   %xmm7,%xmm7
     c53:	eb 3f                	jmp    c94 <aesni_ecb_encrypt+0x554>
     c55:	66 66 2e 0f 1f 84 00 	data16 cs nopw 0x0(%rax,%rax,1)
     c5c:	00 00 00 00 
     c60:	e8 db f7 ff ff       	call   440 <_aesni_decrypt6>
     c65:	0f 11 16             	movups %xmm2,(%rsi)
     c68:	66 0f ef d2          	pxor   %xmm2,%xmm2
     c6c:	0f 11 5e 10          	movups %xmm3,0x10(%rsi)
     c70:	66 0f ef db          	pxor   %xmm3,%xmm3
     c74:	0f 11 66 20          	movups %xmm4,0x20(%rsi)
     c78:	66 0f ef e4          	pxor   %xmm4,%xmm4
     c7c:	0f 11 6e 30          	movups %xmm5,0x30(%rsi)
     c80:	66 0f ef ed          	pxor   %xmm5,%xmm5
     c84:	0f 11 76 40          	movups %xmm6,0x40(%rsi)
     c88:	66 0f ef f6          	pxor   %xmm6,%xmm6
     c8c:	0f 11 7e 50          	movups %xmm7,0x50(%rsi)
     c90:	66 0f ef ff          	pxor   %xmm7,%xmm7
     c94:	0f 57 c0             	xorps  %xmm0,%xmm0
     c97:	66 0f ef c9          	pxor   %xmm1,%xmm1
     c9b:	f3 c3                	repz ret 
     c9d:	0f 1f 00             	nopl   (%rax)

0000000000000ca0 <aesni_ccm64_encrypt_blocks>:
     ca0:	f3 0f 1e fa          	endbr64 
     ca4:	8b 81 f0 00 00 00    	mov    0xf0(%rcx),%eax
     caa:	f3 41 0f 6f 30       	movdqu (%r8),%xmm6
     caf:	66 44 0f 6f 0d 00 00 	movdqa 0x0(%rip),%xmm9        # cb8 <aesni_ccm64_encrypt_blocks+0x18>
     cb6:	00 00 
     cb8:	66 0f 6f 3d 00 00 00 	movdqa 0x0(%rip),%xmm7        # cc0 <aesni_ccm64_encrypt_blocks+0x20>
     cbf:	00 
     cc0:	c1 e0 04             	shl    $0x4,%eax
     cc3:	41 ba 10 00 00 00    	mov    $0x10,%r10d
     cc9:	4c 8d 19             	lea    (%rcx),%r11
     ccc:	f3 41 0f 6f 19       	movdqu (%r9),%xmm3
     cd1:	66 0f 6f d6          	movdqa %xmm6,%xmm2
     cd5:	48 8d 4c 01 20       	lea    0x20(%rcx,%rax,1),%rcx
     cda:	66 0f 38 00 f7       	pshufb %xmm7,%xmm6
     cdf:	49 29 c2             	sub    %rax,%r10
     ce2:	eb 0c                	jmp    cf0 <aesni_ccm64_encrypt_blocks+0x50>
     ce4:	66 66 2e 0f 1f 84 00 	data16 cs nopw 0x0(%rax,%rax,1)
     ceb:	00 00 00 00 
     cef:	90                   	nop
     cf0:	41 0f 10 03          	movups (%r11),%xmm0
     cf4:	4c 89 d0             	mov    %r10,%rax
     cf7:	44 0f 10 07          	movups (%rdi),%xmm8
     cfb:	0f 57 d0             	xorps  %xmm0,%xmm2
     cfe:	41 0f 10 4b 10       	movups 0x10(%r11),%xmm1
     d03:	41 0f 57 c0          	xorps  %xmm8,%xmm0
     d07:	0f 57 d8             	xorps  %xmm0,%xmm3
     d0a:	41 0f 10 43 20       	movups 0x20(%r11),%xmm0
     d0f:	66 0f 38 dc d1       	aesenc %xmm1,%xmm2
     d14:	66 0f 38 dc d9       	aesenc %xmm1,%xmm3
     d19:	0f 10 0c 01          	movups (%rcx,%rax,1),%xmm1
     d1d:	48 83 c0 20          	add    $0x20,%rax
     d21:	66 0f 38 dc d0       	aesenc %xmm0,%xmm2
     d26:	66 0f 38 dc d8       	aesenc %xmm0,%xmm3
     d2b:	0f 10 44 01 f0       	movups -0x10(%rcx,%rax,1),%xmm0
     d30:	75 dd                	jne    d0f <aesni_ccm64_encrypt_blocks+0x6f>
     d32:	66 0f 38 dc d1       	aesenc %xmm1,%xmm2
     d37:	66 0f 38 dc d9       	aesenc %xmm1,%xmm3
     d3c:	66 41 0f d4 f1       	paddq  %xmm9,%xmm6
     d41:	48 ff ca             	dec    %rdx
     d44:	66 0f 38 dd d0       	aesenclast %xmm0,%xmm2
     d49:	66 0f 38 dd d8       	aesenclast %xmm0,%xmm3
     d4e:	48 8d 7f 10          	lea    0x10(%rdi),%rdi
     d52:	44 0f 57 c2          	xorps  %xmm2,%xmm8
     d56:	66 0f 6f d6          	movdqa %xmm6,%xmm2
     d5a:	44 0f 11 06          	movups %xmm8,(%rsi)
     d5e:	66 0f 38 00 d7       	pshufb %xmm7,%xmm2
     d63:	48 8d 76 10          	lea    0x10(%rsi),%rsi
     d67:	75 87                	jne    cf0 <aesni_ccm64_encrypt_blocks+0x50>
     d69:	66 0f ef c0          	pxor   %xmm0,%xmm0
     d6d:	66 0f ef c9          	pxor   %xmm1,%xmm1
     d71:	66 0f ef d2          	pxor   %xmm2,%xmm2
     d75:	41 0f 11 19          	movups %xmm3,(%r9)
     d79:	66 0f ef db          	pxor   %xmm3,%xmm3
     d7d:	66 45 0f ef c0       	pxor   %xmm8,%xmm8
     d82:	66 0f ef f6          	pxor   %xmm6,%xmm6
     d86:	f3 c3                	repz ret 
     d88:	0f 1f 84 00 00 00 00 	nopl   0x0(%rax,%rax,1)
     d8f:	00 

0000000000000d90 <aesni_ccm64_decrypt_blocks>:
     d90:	f3 0f 1e fa          	endbr64 
     d94:	8b 81 f0 00 00 00    	mov    0xf0(%rcx),%eax
     d9a:	41 0f 10 30          	movups (%r8),%xmm6
     d9e:	f3 41 0f 6f 19       	movdqu (%r9),%xmm3
     da3:	66 44 0f 6f 0d 00 00 	movdqa 0x0(%rip),%xmm9        # dac <aesni_ccm64_decrypt_blocks+0x1c>
     daa:	00 00 
     dac:	66 0f 6f 3d 00 00 00 	movdqa 0x0(%rip),%xmm7        # db4 <aesni_ccm64_decrypt_blocks+0x24>
     db3:	00 
     db4:	0f 28 d6             	movaps %xmm6,%xmm2
     db7:	41 89 c2             	mov    %eax,%r10d
     dba:	49 89 cb             	mov    %rcx,%r11
     dbd:	66 0f 38 00 f7       	pshufb %xmm7,%xmm6
     dc2:	0f 10 01             	movups (%rcx),%xmm0
     dc5:	0f 10 49 10          	movups 0x10(%rcx),%xmm1
     dc9:	48 8d 49 20          	lea    0x20(%rcx),%rcx
     dcd:	0f 57 d0             	xorps  %xmm0,%xmm2
     dd0:	66 0f 38 dc d1       	aesenc %xmm1,%xmm2
     dd5:	ff c8                	dec    %eax
     dd7:	0f 10 09             	movups (%rcx),%xmm1
     dda:	48 8d 49 10          	lea    0x10(%rcx),%rcx
     dde:	75 f0                	jne    dd0 <aesni_ccm64_decrypt_blocks+0x40>
     de0:	66 0f 38 dd d1       	aesenclast %xmm1,%xmm2
     de5:	41 c1 e2 04          	shl    $0x4,%r10d
     de9:	b8 10 00 00 00       	mov    $0x10,%eax
     dee:	44 0f 10 07          	movups (%rdi),%xmm8
     df2:	66 41 0f d4 f1       	paddq  %xmm9,%xmm6
     df7:	48 8d 7f 10          	lea    0x10(%rdi),%rdi
     dfb:	4c 29 d0             	sub    %r10,%rax
     dfe:	4b 8d 4c 13 20       	lea    0x20(%r11,%r10,1),%rcx
     e03:	49 89 c2             	mov    %rax,%r10
     e06:	eb 08                	jmp    e10 <aesni_ccm64_decrypt_blocks+0x80>
     e08:	0f 1f 84 00 00 00 00 	nopl   0x0(%rax,%rax,1)
     e0f:	00 
     e10:	44 0f 57 c2          	xorps  %xmm2,%xmm8
     e14:	66 0f 6f d6          	movdqa %xmm6,%xmm2
     e18:	44 0f 11 06          	movups %xmm8,(%rsi)
     e1c:	48 8d 76 10          	lea    0x10(%rsi),%rsi
     e20:	66 0f 38 00 d7       	pshufb %xmm7,%xmm2
     e25:	48 83 ea 01          	sub    $0x1,%rdx
     e29:	74 75                	je     ea0 <aesni_ccm64_decrypt_blocks+0x110>
     e2b:	41 0f 10 03          	movups (%r11),%xmm0
     e2f:	4c 89 d0             	mov    %r10,%rax
     e32:	41 0f 10 4b 10       	movups 0x10(%r11),%xmm1
     e37:	44 0f 57 c0          	xorps  %xmm0,%xmm8
     e3b:	0f 57 d0             	xorps  %xmm0,%xmm2
     e3e:	41 0f 57 d8          	xorps  %xmm8,%xmm3
     e42:	41 0f 10 43 20       	movups 0x20(%r11),%xmm0
     e47:	eb 07                	jmp    e50 <aesni_ccm64_decrypt_blocks+0xc0>
     e49:	0f 1f 80 00 00 00 00 	nopl   0x0(%rax)
     e50:	66 0f 38 dc d1       	aesenc %xmm1,%xmm2
     e55:	66 0f 38 dc d9       	aesenc %xmm1,%xmm3
     e5a:	0f 10 0c 01          	movups (%rcx,%rax,1),%xmm1
     e5e:	48 83 c0 20          	add    $0x20,%rax
     e62:	66 0f 38 dc d0       	aesenc %xmm0,%xmm2
     e67:	66 0f 38 dc d8       	aesenc %xmm0,%xmm3
     e6c:	0f 10 44 01 f0       	movups -0x10(%rcx,%rax,1),%xmm0
     e71:	75 dd                	jne    e50 <aesni_ccm64_decrypt_blocks+0xc0>
     e73:	44 0f 10 07          	movups (%rdi),%xmm8
     e77:	66 41 0f d4 f1       	paddq  %xmm9,%xmm6
     e7c:	66 0f 38 dc d1       	aesenc %xmm1,%xmm2
     e81:	66 0f 38 dc d9       	aesenc %xmm1,%xmm3
     e86:	66 0f 38 dd d0       	aesenclast %xmm0,%xmm2
     e8b:	66 0f 38 dd d8       	aesenclast %xmm0,%xmm3
     e90:	48 8d 7f 10          	lea    0x10(%rdi),%rdi
     e94:	e9 77 ff ff ff       	jmp    e10 <aesni_ccm64_decrypt_blocks+0x80>
     e99:	0f 1f 80 00 00 00 00 	nopl   0x0(%rax)
     ea0:	41 8b 83 f0 00 00 00 	mov    0xf0(%r11),%eax
     ea7:	41 0f 10 03          	movups (%r11),%xmm0
     eab:	41 0f 10 4b 10       	movups 0x10(%r11),%xmm1
     eb0:	44 0f 57 c0          	xorps  %xmm0,%xmm8
     eb4:	4d 8d 5b 20          	lea    0x20(%r11),%r11
     eb8:	41 0f 57 d8          	xorps  %xmm8,%xmm3
     ebc:	66 0f 38 dc d9       	aesenc %xmm1,%xmm3
     ec1:	ff c8                	dec    %eax
     ec3:	41 0f 10 0b          	movups (%r11),%xmm1
     ec7:	4d 8d 5b 10          	lea    0x10(%r11),%r11
     ecb:	75 ef                	jne    ebc <aesni_ccm64_decrypt_blocks+0x12c>
     ecd:	66 0f 38 dd d9       	aesenclast %xmm1,%xmm3
     ed2:	66 0f ef c0          	pxor   %xmm0,%xmm0
     ed6:	66 0f ef c9          	pxor   %xmm1,%xmm1
     eda:	66 0f ef d2          	pxor   %xmm2,%xmm2
     ede:	41 0f 11 19          	movups %xmm3,(%r9)
     ee2:	66 0f ef db          	pxor   %xmm3,%xmm3
     ee6:	66 45 0f ef c0       	pxor   %xmm8,%xmm8
     eeb:	66 0f ef f6          	pxor   %xmm6,%xmm6
     eef:	f3 c3                	repz ret 
     ef1:	66 66 2e 0f 1f 84 00 	data16 cs nopw 0x0(%rax,%rax,1)
     ef8:	00 00 00 00 
     efc:	0f 1f 40 00          	nopl   0x0(%rax)

0000000000000f00 <aesni_ctr32_encrypt_blocks>:
     f00:	f3 0f 1e fa          	endbr64 
     f04:	48 83 fa 01          	cmp    $0x1,%rdx
     f08:	75 56                	jne    f60 <aesni_ctr32_encrypt_blocks+0x60>
     f0a:	41 0f 10 10          	movups (%r8),%xmm2
     f0e:	0f 10 1f             	movups (%rdi),%xmm3
     f11:	8b 91 f0 00 00 00    	mov    0xf0(%rcx),%edx
     f17:	0f 10 01             	movups (%rcx),%xmm0
     f1a:	0f 10 49 10          	movups 0x10(%rcx),%xmm1
     f1e:	48 8d 49 20          	lea    0x20(%rcx),%rcx
     f22:	0f 57 d0             	xorps  %xmm0,%xmm2
     f25:	66 0f 38 dc d1       	aesenc %xmm1,%xmm2
     f2a:	ff ca                	dec    %edx
     f2c:	0f 10 09             	movups (%rcx),%xmm1
     f2f:	48 8d 49 10          	lea    0x10(%rcx),%rcx
     f33:	75 f0                	jne    f25 <aesni_ctr32_encrypt_blocks+0x25>
     f35:	66 0f 38 dd d1       	aesenclast %xmm1,%xmm2
     f3a:	66 0f ef c0          	pxor   %xmm0,%xmm0
     f3e:	66 0f ef c9          	pxor   %xmm1,%xmm1
     f42:	0f 57 d3             	xorps  %xmm3,%xmm2
     f45:	66 0f ef db          	pxor   %xmm3,%xmm3
     f49:	0f 11 16             	movups %xmm2,(%rsi)
     f4c:	0f 57 d2             	xorps  %xmm2,%xmm2
     f4f:	e9 f9 08 00 00       	jmp    184d <aesni_ctr32_encrypt_blocks+0x94d>
     f54:	66 66 2e 0f 1f 84 00 	data16 cs nopw 0x0(%rax,%rax,1)
     f5b:	00 00 00 00 
     f5f:	90                   	nop
     f60:	4c 8d 1c 24          	lea    (%rsp),%r11
     f64:	55                   	push   %rbp
     f65:	48 81 ec 80 00 00 00 	sub    $0x80,%rsp
     f6c:	48 83 e4 f0          	and    $0xfffffffffffffff0,%rsp
     f70:	f3 41 0f 6f 10       	movdqu (%r8),%xmm2
     f75:	f3 0f 6f 01          	movdqu (%rcx),%xmm0
     f79:	45 8b 40 0c          	mov    0xc(%r8),%r8d
     f7d:	66 0f ef d0          	pxor   %xmm0,%xmm2
     f81:	8b 69 0c             	mov    0xc(%rcx),%ebp
     f84:	66 0f 7f 14 24       	movdqa %xmm2,(%rsp)
     f89:	41 0f c8             	bswap  %r8d
     f8c:	66 0f 6f da          	movdqa %xmm2,%xmm3
     f90:	66 0f 6f e2          	movdqa %xmm2,%xmm4
     f94:	66 0f 6f ea          	movdqa %xmm2,%xmm5
     f98:	66 0f 7f 54 24 40    	movdqa %xmm2,0x40(%rsp)
     f9e:	66 0f 7f 54 24 50    	movdqa %xmm2,0x50(%rsp)
     fa4:	66 0f 7f 54 24 60    	movdqa %xmm2,0x60(%rsp)
     faa:	49 89 d2             	mov    %rdx,%r10
     fad:	66 0f 7f 54 24 70    	movdqa %xmm2,0x70(%rsp)
     fb3:	49 8d 40 01          	lea    0x1(%r8),%rax
     fb7:	49 8d 50 02          	lea    0x2(%r8),%rdx
     fbb:	0f c8                	bswap  %eax
     fbd:	0f ca                	bswap  %edx
     fbf:	31 e8                	xor    %ebp,%eax
     fc1:	31 ea                	xor    %ebp,%edx
     fc3:	66 0f 3a 22 d8 03    	pinsrd $0x3,%eax,%xmm3
     fc9:	49 8d 40 03          	lea    0x3(%r8),%rax
     fcd:	66 0f 7f 5c 24 10    	movdqa %xmm3,0x10(%rsp)
     fd3:	66 0f 3a 22 e2 03    	pinsrd $0x3,%edx,%xmm4
     fd9:	0f c8                	bswap  %eax
     fdb:	4c 89 d2             	mov    %r10,%rdx
     fde:	4d 8d 50 04          	lea    0x4(%r8),%r10
     fe2:	66 0f 7f 64 24 20    	movdqa %xmm4,0x20(%rsp)
     fe8:	31 e8                	xor    %ebp,%eax
     fea:	41 0f ca             	bswap  %r10d
     fed:	66 0f 3a 22 e8 03    	pinsrd $0x3,%eax,%xmm5
     ff3:	41 31 ea             	xor    %ebp,%r10d
     ff6:	66 0f 7f 6c 24 30    	movdqa %xmm5,0x30(%rsp)
     ffc:	4d 8d 48 05          	lea    0x5(%r8),%r9
    1000:	44 89 54 24 4c       	mov    %r10d,0x4c(%rsp)
    1005:	41 0f c9             	bswap  %r9d
    1008:	4d 8d 50 06          	lea    0x6(%r8),%r10
    100c:	8b 81 f0 00 00 00    	mov    0xf0(%rcx),%eax
    1012:	41 31 e9             	xor    %ebp,%r9d
    1015:	41 0f ca             	bswap  %r10d
    1018:	44 89 4c 24 5c       	mov    %r9d,0x5c(%rsp)
    101d:	41 31 ea             	xor    %ebp,%r10d
    1020:	4d 8d 48 07          	lea    0x7(%r8),%r9
    1024:	44 89 54 24 6c       	mov    %r10d,0x6c(%rsp)
    1029:	41 0f c9             	bswap  %r9d
    102c:	44 8b 15 00 00 00 00 	mov    0x0(%rip),%r10d        # 1033 <aesni_ctr32_encrypt_blocks+0x133>
    1033:	41 31 e9             	xor    %ebp,%r9d
    1036:	41 81 e2 00 00 40 04 	and    $0x4400000,%r10d
    103d:	44 89 4c 24 7c       	mov    %r9d,0x7c(%rsp)
    1042:	0f 10 49 10          	movups 0x10(%rcx),%xmm1
    1046:	66 0f 6f 74 24 40    	movdqa 0x40(%rsp),%xmm6
    104c:	66 0f 6f 7c 24 50    	movdqa 0x50(%rsp),%xmm7
    1052:	48 83 fa 08          	cmp    $0x8,%rdx
    1056:	0f 82 be 05 00 00    	jb     161a <aesni_ctr32_encrypt_blocks+0x71a>
    105c:	48 83 ea 06          	sub    $0x6,%rdx
    1060:	41 81 fa 00 00 40 00 	cmp    $0x400000,%r10d
    1067:	74 17                	je     1080 <aesni_ctr32_encrypt_blocks+0x180>
    1069:	48 8d 89 80 00 00 00 	lea    0x80(%rcx),%rcx
    1070:	48 83 ea 02          	sub    $0x2,%rdx
    1074:	e9 87 01 00 00       	jmp    1200 <aesni_ctr32_encrypt_blocks+0x300>
    1079:	0f 1f 80 00 00 00 00 	nopl   0x0(%rax)
    1080:	c1 e0 04             	shl    $0x4,%eax
    1083:	41 ba 30 00 00 00    	mov    $0x30,%r10d
    1089:	0f cd                	bswap  %ebp
    108b:	48 8d 4c 01 20       	lea    0x20(%rcx,%rax,1),%rcx
    1090:	49 29 c2             	sub    %rax,%r10
    1093:	eb 0b                	jmp    10a0 <aesni_ctr32_encrypt_blocks+0x1a0>
    1095:	66 66 2e 0f 1f 84 00 	data16 cs nopw 0x0(%rax,%rax,1)
    109c:	00 00 00 00 
    10a0:	41 83 c0 06          	add    $0x6,%r8d
    10a4:	42 0f 10 44 11 d0    	movups -0x30(%rcx,%r10,1),%xmm0
    10aa:	66 0f 38 dc d1       	aesenc %xmm1,%xmm2
    10af:	44 89 c0             	mov    %r8d,%eax
    10b2:	31 e8                	xor    %ebp,%eax
    10b4:	66 0f 38 dc d9       	aesenc %xmm1,%xmm3
    10b9:	0f 38 f1 44 24 0c    	movbe  %eax,0xc(%rsp)
    10bf:	41 8d 40 01          	lea    0x1(%r8),%eax
    10c3:	66 0f 38 dc e1       	aesenc %xmm1,%xmm4
    10c8:	31 e8                	xor    %ebp,%eax
    10ca:	0f 38 f1 44 24 1c    	movbe  %eax,0x1c(%rsp)
    10d0:	66 0f 38 dc e9       	aesenc %xmm1,%xmm5
    10d5:	41 8d 40 02          	lea    0x2(%r8),%eax
    10d9:	31 e8                	xor    %ebp,%eax
    10db:	66 0f 38 dc f1       	aesenc %xmm1,%xmm6
    10e0:	0f 38 f1 44 24 2c    	movbe  %eax,0x2c(%rsp)
    10e6:	41 8d 40 03          	lea    0x3(%r8),%eax
    10ea:	66 0f 38 dc f9       	aesenc %xmm1,%xmm7
    10ef:	42 0f 10 4c 11 e0    	movups -0x20(%rcx,%r10,1),%xmm1
    10f5:	31 e8                	xor    %ebp,%eax
    10f7:	66 0f 38 dc d0       	aesenc %xmm0,%xmm2
    10fc:	0f 38 f1 44 24 3c    	movbe  %eax,0x3c(%rsp)
    1102:	41 8d 40 04          	lea    0x4(%r8),%eax
    1106:	66 0f 38 dc d8       	aesenc %xmm0,%xmm3
    110b:	31 e8                	xor    %ebp,%eax
    110d:	0f 38 f1 44 24 4c    	movbe  %eax,0x4c(%rsp)
    1113:	66 0f 38 dc e0       	aesenc %xmm0,%xmm4
    1118:	41 8d 40 05          	lea    0x5(%r8),%eax
    111c:	31 e8                	xor    %ebp,%eax
    111e:	66 0f 38 dc e8       	aesenc %xmm0,%xmm5
    1123:	0f 38 f1 44 24 5c    	movbe  %eax,0x5c(%rsp)
    1129:	4c 89 d0             	mov    %r10,%rax
    112c:	66 0f 38 dc f0       	aesenc %xmm0,%xmm6
    1131:	66 0f 38 dc f8       	aesenc %xmm0,%xmm7
    1136:	42 0f 10 44 11 f0    	movups -0x10(%rcx,%r10,1),%xmm0
    113c:	e8 6f f2 ff ff       	call   3b0 <_aesni_encrypt6+0x50>
    1141:	f3 44 0f 6f 07       	movdqu (%rdi),%xmm8
    1146:	f3 44 0f 6f 4f 10    	movdqu 0x10(%rdi),%xmm9
    114c:	f3 44 0f 6f 57 20    	movdqu 0x20(%rdi),%xmm10
    1152:	f3 44 0f 6f 5f 30    	movdqu 0x30(%rdi),%xmm11
    1158:	f3 44 0f 6f 67 40    	movdqu 0x40(%rdi),%xmm12
    115e:	f3 44 0f 6f 6f 50    	movdqu 0x50(%rdi),%xmm13
    1164:	48 8d 7f 60          	lea    0x60(%rdi),%rdi
    1168:	42 0f 10 4c 11 c0    	movups -0x40(%rcx,%r10,1),%xmm1
    116e:	66 44 0f ef c2       	pxor   %xmm2,%xmm8
    1173:	0f 28 14 24          	movaps (%rsp),%xmm2
    1177:	66 44 0f ef cb       	pxor   %xmm3,%xmm9
    117c:	0f 28 5c 24 10       	movaps 0x10(%rsp),%xmm3
    1181:	66 44 0f ef d4       	pxor   %xmm4,%xmm10
    1186:	0f 28 64 24 20       	movaps 0x20(%rsp),%xmm4
    118b:	66 44 0f ef dd       	pxor   %xmm5,%xmm11
    1190:	0f 28 6c 24 30       	movaps 0x30(%rsp),%xmm5
    1195:	66 44 0f ef e6       	pxor   %xmm6,%xmm12
    119a:	0f 28 74 24 40       	movaps 0x40(%rsp),%xmm6
    119f:	66 44 0f ef ef       	pxor   %xmm7,%xmm13
    11a4:	0f 28 7c 24 50       	movaps 0x50(%rsp),%xmm7
    11a9:	f3 44 0f 7f 06       	movdqu %xmm8,(%rsi)
    11ae:	f3 44 0f 7f 4e 10    	movdqu %xmm9,0x10(%rsi)
    11b4:	f3 44 0f 7f 56 20    	movdqu %xmm10,0x20(%rsi)
    11ba:	f3 44 0f 7f 5e 30    	movdqu %xmm11,0x30(%rsi)
    11c0:	f3 44 0f 7f 66 40    	movdqu %xmm12,0x40(%rsi)
    11c6:	f3 44 0f 7f 6e 50    	movdqu %xmm13,0x50(%rsi)
    11cc:	48 8d 76 60          	lea    0x60(%rsi),%rsi
    11d0:	48 83 ea 06          	sub    $0x6,%rdx
    11d4:	0f 83 c6 fe ff ff    	jae    10a0 <aesni_ctr32_encrypt_blocks+0x1a0>
    11da:	48 83 c2 06          	add    $0x6,%rdx
    11de:	0f 84 f2 05 00 00    	je     17d6 <aesni_ctr32_encrypt_blocks+0x8d6>
    11e4:	41 8d 42 d0          	lea    -0x30(%r10),%eax
    11e8:	4a 8d 4c 11 b0       	lea    -0x50(%rcx,%r10,1),%rcx
    11ed:	f7 d8                	neg    %eax
    11ef:	c1 e8 04             	shr    $0x4,%eax
    11f2:	e9 23 04 00 00       	jmp    161a <aesni_ctr32_encrypt_blocks+0x71a>
    11f7:	66 0f 1f 84 00 00 00 	nopw   0x0(%rax,%rax,1)
    11fe:	00 00 
    1200:	41 83 c0 08          	add    $0x8,%r8d
    1204:	66 44 0f 6f 44 24 60 	movdqa 0x60(%rsp),%xmm8
    120b:	66 0f 38 dc d1       	aesenc %xmm1,%xmm2
    1210:	45 89 c1             	mov    %r8d,%r9d
    1213:	66 44 0f 6f 4c 24 70 	movdqa 0x70(%rsp),%xmm9
    121a:	66 0f 38 dc d9       	aesenc %xmm1,%xmm3
    121f:	41 0f c9             	bswap  %r9d
    1222:	0f 10 41 a0          	movups -0x60(%rcx),%xmm0
    1226:	66 0f 38 dc e1       	aesenc %xmm1,%xmm4
    122b:	41 31 e9             	xor    %ebp,%r9d
    122e:	90                   	nop
    122f:	66 0f 38 dc e9       	aesenc %xmm1,%xmm5
    1234:	44 89 4c 24 0c       	mov    %r9d,0xc(%rsp)
    1239:	4d 8d 48 01          	lea    0x1(%r8),%r9
    123d:	66 0f 38 dc f1       	aesenc %xmm1,%xmm6
    1242:	66 0f 38 dc f9       	aesenc %xmm1,%xmm7
    1247:	66 44 0f 38 dc c1    	aesenc %xmm1,%xmm8
    124d:	66 44 0f 38 dc c9    	aesenc %xmm1,%xmm9
    1253:	0f 10 49 b0          	movups -0x50(%rcx),%xmm1
    1257:	41 0f c9             	bswap  %r9d
    125a:	66 0f 38 dc d0       	aesenc %xmm0,%xmm2
    125f:	66 0f 38 dc d8       	aesenc %xmm0,%xmm3
    1264:	41 31 e9             	xor    %ebp,%r9d
    1267:	66 90                	xchg   %ax,%ax
    1269:	66 0f 38 dc e0       	aesenc %xmm0,%xmm4
    126e:	66 0f 38 dc e8       	aesenc %xmm0,%xmm5
    1273:	44 89 4c 24 1c       	mov    %r9d,0x1c(%rsp)
    1278:	4d 8d 48 02          	lea    0x2(%r8),%r9
    127c:	66 0f 38 dc f0       	aesenc %xmm0,%xmm6
    1281:	66 0f 38 dc f8       	aesenc %xmm0,%xmm7
    1286:	66 44 0f 38 dc c0    	aesenc %xmm0,%xmm8
    128c:	66 44 0f 38 dc c8    	aesenc %xmm0,%xmm9
    1292:	0f 10 41 c0          	movups -0x40(%rcx),%xmm0
    1296:	41 0f c9             	bswap  %r9d
    1299:	66 0f 38 dc d1       	aesenc %xmm1,%xmm2
    129e:	66 0f 38 dc d9       	aesenc %xmm1,%xmm3
    12a3:	41 31 e9             	xor    %ebp,%r9d
    12a6:	66 90                	xchg   %ax,%ax
    12a8:	66 0f 38 dc e1       	aesenc %xmm1,%xmm4
    12ad:	66 0f 38 dc e9       	aesenc %xmm1,%xmm5
    12b2:	44 89 4c 24 2c       	mov    %r9d,0x2c(%rsp)
    12b7:	4d 8d 48 03          	lea    0x3(%r8),%r9
    12bb:	66 0f 38 dc f1       	aesenc %xmm1,%xmm6
    12c0:	66 0f 38 dc f9       	aesenc %xmm1,%xmm7
    12c5:	66 44 0f 38 dc c1    	aesenc %xmm1,%xmm8
    12cb:	66 44 0f 38 dc c9    	aesenc %xmm1,%xmm9
    12d1:	0f 10 49 d0          	movups -0x30(%rcx),%xmm1
    12d5:	41 0f c9             	bswap  %r9d
    12d8:	66 0f 38 dc d0       	aesenc %xmm0,%xmm2
    12dd:	66 0f 38 dc d8       	aesenc %xmm0,%xmm3
    12e2:	41 31 e9             	xor    %ebp,%r9d
    12e5:	66 90                	xchg   %ax,%ax
    12e7:	66 0f 38 dc e0       	aesenc %xmm0,%xmm4
    12ec:	66 0f 38 dc e8       	aesenc %xmm0,%xmm5
    12f1:	44 89 4c 24 3c       	mov    %r9d,0x3c(%rsp)
    12f6:	4d 8d 48 04          	lea    0x4(%r8),%r9
    12fa:	66 0f 38 dc f0       	aesenc %xmm0,%xmm6
    12ff:	66 0f 38 dc f8       	aesenc %xmm0,%xmm7
    1304:	66 44 0f 38 dc c0    	aesenc %xmm0,%xmm8
    130a:	66 44 0f 38 dc c8    	aesenc %xmm0,%xmm9
    1310:	0f 10 41 e0          	movups -0x20(%rcx),%xmm0
    1314:	41 0f c9             	bswap  %r9d
    1317:	66 0f 38 dc d1       	aesenc %xmm1,%xmm2
    131c:	66 0f 38 dc d9       	aesenc %xmm1,%xmm3
    1321:	41 31 e9             	xor    %ebp,%r9d
    1324:	66 90                	xchg   %ax,%ax
    1326:	66 0f 38 dc e1       	aesenc %xmm1,%xmm4
    132b:	66 0f 38 dc e9       	aesenc %xmm1,%xmm5
    1330:	44 89 4c 24 4c       	mov    %r9d,0x4c(%rsp)
    1335:	4d 8d 48 05          	lea    0x5(%r8),%r9
    1339:	66 0f 38 dc f1       	aesenc %xmm1,%xmm6
    133e:	66 0f 38 dc f9       	aesenc %xmm1,%xmm7
    1343:	66 44 0f 38 dc c1    	aesenc %xmm1,%xmm8
    1349:	66 44 0f 38 dc c9    	aesenc %xmm1,%xmm9
    134f:	0f 10 49 f0          	movups -0x10(%rcx),%xmm1
    1353:	41 0f c9             	bswap  %r9d
    1356:	66 0f 38 dc d0       	aesenc %xmm0,%xmm2
    135b:	66 0f 38 dc d8       	aesenc %xmm0,%xmm3
    1360:	41 31 e9             	xor    %ebp,%r9d
    1363:	66 90                	xchg   %ax,%ax
    1365:	66 0f 38 dc e0       	aesenc %xmm0,%xmm4
    136a:	66 0f 38 dc e8       	aesenc %xmm0,%xmm5
    136f:	44 89 4c 24 5c       	mov    %r9d,0x5c(%rsp)
    1374:	4d 8d 48 06          	lea    0x6(%r8),%r9
    1378:	66 0f 38 dc f0       	aesenc %xmm0,%xmm6
    137d:	66 0f 38 dc f8       	aesenc %xmm0,%xmm7
    1382:	66 44 0f 38 dc c0    	aesenc %xmm0,%xmm8
    1388:	66 44 0f 38 dc c8    	aesenc %xmm0,%xmm9
    138e:	0f 10 01             	movups (%rcx),%xmm0
    1391:	41 0f c9             	bswap  %r9d
    1394:	66 0f 38 dc d1       	aesenc %xmm1,%xmm2
    1399:	66 0f 38 dc d9       	aesenc %xmm1,%xmm3
    139e:	41 31 e9             	xor    %ebp,%r9d
    13a1:	66 90                	xchg   %ax,%ax
    13a3:	66 0f 38 dc e1       	aesenc %xmm1,%xmm4
    13a8:	66 0f 38 dc e9       	aesenc %xmm1,%xmm5
    13ad:	44 89 4c 24 6c       	mov    %r9d,0x6c(%rsp)
    13b2:	4d 8d 48 07          	lea    0x7(%r8),%r9
    13b6:	66 0f 38 dc f1       	aesenc %xmm1,%xmm6
    13bb:	66 0f 38 dc f9       	aesenc %xmm1,%xmm7
    13c0:	66 44 0f 38 dc c1    	aesenc %xmm1,%xmm8
    13c6:	66 44 0f 38 dc c9    	aesenc %xmm1,%xmm9
    13cc:	0f 10 49 10          	movups 0x10(%rcx),%xmm1
    13d0:	41 0f c9             	bswap  %r9d
    13d3:	66 0f 38 dc d0       	aesenc %xmm0,%xmm2
    13d8:	66 0f 38 dc d8       	aesenc %xmm0,%xmm3
    13dd:	66 0f 38 dc e0       	aesenc %xmm0,%xmm4
    13e2:	41 31 e9             	xor    %ebp,%r9d
    13e5:	f3 44 0f 6f 17       	movdqu (%rdi),%xmm10
    13ea:	66 0f 38 dc e8       	aesenc %xmm0,%xmm5
    13ef:	44 89 4c 24 7c       	mov    %r9d,0x7c(%rsp)
    13f4:	83 f8 0b             	cmp    $0xb,%eax
    13f7:	66 0f 38 dc f0       	aesenc %xmm0,%xmm6
    13fc:	66 0f 38 dc f8       	aesenc %xmm0,%xmm7
    1401:	66 44 0f 38 dc c0    	aesenc %xmm0,%xmm8
    1407:	66 44 0f 38 dc c8    	aesenc %xmm0,%xmm9
    140d:	0f 10 41 20          	movups 0x20(%rcx),%xmm0
    1411:	0f 82 c9 00 00 00    	jb     14e0 <aesni_ctr32_encrypt_blocks+0x5e0>
    1417:	66 0f 38 dc d1       	aesenc %xmm1,%xmm2
    141c:	66 0f 38 dc d9       	aesenc %xmm1,%xmm3
    1421:	66 0f 38 dc e1       	aesenc %xmm1,%xmm4
    1426:	66 0f 38 dc e9       	aesenc %xmm1,%xmm5
    142b:	66 0f 38 dc f1       	aesenc %xmm1,%xmm6
    1430:	66 0f 38 dc f9       	aesenc %xmm1,%xmm7
    1435:	66 44 0f 38 dc c1    	aesenc %xmm1,%xmm8
    143b:	66 44 0f 38 dc c9    	aesenc %xmm1,%xmm9
    1441:	0f 10 49 30          	movups 0x30(%rcx),%xmm1
    1445:	66 0f 38 dc d0       	aesenc %xmm0,%xmm2
    144a:	66 0f 38 dc d8       	aesenc %xmm0,%xmm3
    144f:	66 0f 38 dc e0       	aesenc %xmm0,%xmm4
    1454:	66 0f 38 dc e8       	aesenc %xmm0,%xmm5
    1459:	66 0f 38 dc f0       	aesenc %xmm0,%xmm6
    145e:	66 0f 38 dc f8       	aesenc %xmm0,%xmm7
    1463:	66 44 0f 38 dc c0    	aesenc %xmm0,%xmm8
    1469:	66 44 0f 38 dc c8    	aesenc %xmm0,%xmm9
    146f:	0f 10 41 40          	movups 0x40(%rcx),%xmm0
    1473:	74 6b                	je     14e0 <aesni_ctr32_encrypt_blocks+0x5e0>
    1475:	66 0f 38 dc d1       	aesenc %xmm1,%xmm2
    147a:	66 0f 38 dc d9       	aesenc %xmm1,%xmm3
    147f:	66 0f 38 dc e1       	aesenc %xmm1,%xmm4
    1484:	66 0f 38 dc e9       	aesenc %xmm1,%xmm5
    1489:	66 0f 38 dc f1       	aesenc %xmm1,%xmm6
    148e:	66 0f 38 dc f9       	aesenc %xmm1,%xmm7
    1493:	66 44 0f 38 dc c1    	aesenc %xmm1,%xmm8
    1499:	66 44 0f 38 dc c9    	aesenc %xmm1,%xmm9
    149f:	0f 10 49 50          	movups 0x50(%rcx),%xmm1
    14a3:	66 0f 38 dc d0       	aesenc %xmm0,%xmm2
    14a8:	66 0f 38 dc d8       	aesenc %xmm0,%xmm3
    14ad:	66 0f 38 dc e0       	aesenc %xmm0,%xmm4
    14b2:	66 0f 38 dc e8       	aesenc %xmm0,%xmm5
    14b7:	66 0f 38 dc f0       	aesenc %xmm0,%xmm6
    14bc:	66 0f 38 dc f8       	aesenc %xmm0,%xmm7
    14c1:	66 44 0f 38 dc c0    	aesenc %xmm0,%xmm8
    14c7:	66 44 0f 38 dc c8    	aesenc %xmm0,%xmm9
    14cd:	0f 10 41 60          	movups 0x60(%rcx),%xmm0
    14d1:	eb 0d                	jmp    14e0 <aesni_ctr32_encrypt_blocks+0x5e0>
    14d3:	66 66 2e 0f 1f 84 00 	data16 cs nopw 0x0(%rax,%rax,1)
    14da:	00 00 00 00 
    14de:	66 90                	xchg   %ax,%ax
    14e0:	f3 44 0f 6f 5f 10    	movdqu 0x10(%rdi),%xmm11
    14e6:	66 44 0f ef d0       	pxor   %xmm0,%xmm10
    14eb:	f3 44 0f 6f 67 20    	movdqu 0x20(%rdi),%xmm12
    14f1:	66 44 0f ef d8       	pxor   %xmm0,%xmm11
    14f6:	f3 44 0f 6f 6f 30    	movdqu 0x30(%rdi),%xmm13
    14fc:	66 44 0f ef e0       	pxor   %xmm0,%xmm12
    1501:	f3 44 0f 6f 77 40    	movdqu 0x40(%rdi),%xmm14
    1507:	66 44 0f ef e8       	pxor   %xmm0,%xmm13
    150c:	f3 44 0f 6f 7f 50    	movdqu 0x50(%rdi),%xmm15
    1512:	66 44 0f ef f0       	pxor   %xmm0,%xmm14
    1517:	66 44 0f ef f8       	pxor   %xmm0,%xmm15
    151c:	66 0f 38 dc d1       	aesenc %xmm1,%xmm2
    1521:	66 0f 38 dc d9       	aesenc %xmm1,%xmm3
    1526:	66 0f 38 dc e1       	aesenc %xmm1,%xmm4
    152b:	66 0f 38 dc e9       	aesenc %xmm1,%xmm5
    1530:	66 0f 38 dc f1       	aesenc %xmm1,%xmm6
    1535:	66 0f 38 dc f9       	aesenc %xmm1,%xmm7
    153a:	66 44 0f 38 dc c1    	aesenc %xmm1,%xmm8
    1540:	66 44 0f 38 dc c9    	aesenc %xmm1,%xmm9
    1546:	f3 0f 6f 4f 60       	movdqu 0x60(%rdi),%xmm1
    154b:	48 8d bf 80 00 00 00 	lea    0x80(%rdi),%rdi
    1552:	66 41 0f 38 dd d2    	aesenclast %xmm10,%xmm2
    1558:	66 0f ef c8          	pxor   %xmm0,%xmm1
    155c:	f3 44 0f 6f 57 f0    	movdqu -0x10(%rdi),%xmm10
    1562:	66 41 0f 38 dd db    	aesenclast %xmm11,%xmm3
    1568:	66 44 0f ef d0       	pxor   %xmm0,%xmm10
    156d:	66 44 0f 6f 1c 24    	movdqa (%rsp),%xmm11
    1573:	66 41 0f 38 dd e4    	aesenclast %xmm12,%xmm4
    1579:	66 41 0f 38 dd ed    	aesenclast %xmm13,%xmm5
    157f:	66 44 0f 6f 64 24 10 	movdqa 0x10(%rsp),%xmm12
    1586:	66 44 0f 6f 6c 24 20 	movdqa 0x20(%rsp),%xmm13
    158d:	66 41 0f 38 dd f6    	aesenclast %xmm14,%xmm6
    1593:	66 41 0f 38 dd ff    	aesenclast %xmm15,%xmm7
    1599:	66 44 0f 6f 74 24 30 	movdqa 0x30(%rsp),%xmm14
    15a0:	66 44 0f 6f 7c 24 40 	movdqa 0x40(%rsp),%xmm15
    15a7:	66 44 0f 38 dd c1    	aesenclast %xmm1,%xmm8
    15ad:	66 0f 6f 44 24 50    	movdqa 0x50(%rsp),%xmm0
    15b3:	0f 10 49 90          	movups -0x70(%rcx),%xmm1
    15b7:	66 45 0f 38 dd ca    	aesenclast %xmm10,%xmm9
    15bd:	0f 11 16             	movups %xmm2,(%rsi)
    15c0:	66 41 0f 6f d3       	movdqa %xmm11,%xmm2
    15c5:	0f 11 5e 10          	movups %xmm3,0x10(%rsi)
    15c9:	66 41 0f 6f dc       	movdqa %xmm12,%xmm3
    15ce:	0f 11 66 20          	movups %xmm4,0x20(%rsi)
    15d2:	66 41 0f 6f e5       	movdqa %xmm13,%xmm4
    15d7:	0f 11 6e 30          	movups %xmm5,0x30(%rsi)
    15db:	66 41 0f 6f ee       	movdqa %xmm14,%xmm5
    15e0:	0f 11 76 40          	movups %xmm6,0x40(%rsi)
    15e4:	66 41 0f 6f f7       	movdqa %xmm15,%xmm6
    15e9:	0f 11 7e 50          	movups %xmm7,0x50(%rsi)
    15ed:	66 0f 6f f8          	movdqa %xmm0,%xmm7
    15f1:	44 0f 11 46 60       	movups %xmm8,0x60(%rsi)
    15f6:	44 0f 11 4e 70       	movups %xmm9,0x70(%rsi)
    15fb:	48 8d b6 80 00 00 00 	lea    0x80(%rsi),%rsi
    1602:	48 83 ea 08          	sub    $0x8,%rdx
    1606:	0f 83 f4 fb ff ff    	jae    1200 <aesni_ctr32_encrypt_blocks+0x300>
    160c:	48 83 c2 08          	add    $0x8,%rdx
    1610:	0f 84 c0 01 00 00    	je     17d6 <aesni_ctr32_encrypt_blocks+0x8d6>
    1616:	48 8d 49 80          	lea    -0x80(%rcx),%rcx
    161a:	48 8d 49 10          	lea    0x10(%rcx),%rcx
    161e:	48 83 fa 04          	cmp    $0x4,%rdx
    1622:	0f 82 58 01 00 00    	jb     1780 <aesni_ctr32_encrypt_blocks+0x880>
    1628:	0f 84 d2 00 00 00    	je     1700 <aesni_ctr32_encrypt_blocks+0x800>
    162e:	c1 e0 04             	shl    $0x4,%eax
    1631:	66 44 0f 6f 44 24 60 	movdqa 0x60(%rsp),%xmm8
    1638:	66 45 0f ef c9       	pxor   %xmm9,%xmm9
    163d:	0f 10 41 10          	movups 0x10(%rcx),%xmm0
    1641:	66 0f 38 dc d1       	aesenc %xmm1,%xmm2
    1646:	66 0f 38 dc d9       	aesenc %xmm1,%xmm3
    164b:	48 8d 4c 01 10       	lea    0x10(%rcx,%rax,1),%rcx
    1650:	48 f7 d8             	neg    %rax
    1653:	66 0f 38 dc e1       	aesenc %xmm1,%xmm4
    1658:	48 83 c0 10          	add    $0x10,%rax
    165c:	44 0f 10 17          	movups (%rdi),%xmm10
    1660:	66 0f 38 dc e9       	aesenc %xmm1,%xmm5
    1665:	66 0f 38 dc f1       	aesenc %xmm1,%xmm6
    166a:	44 0f 10 5f 10       	movups 0x10(%rdi),%xmm11
    166f:	44 0f 10 67 20       	movups 0x20(%rdi),%xmm12
    1674:	66 0f 38 dc f9       	aesenc %xmm1,%xmm7
    1679:	66 44 0f 38 dc c1    	aesenc %xmm1,%xmm8
    167f:	e8 16 ef ff ff       	call   59a <_aesni_encrypt8+0x7a>
    1684:	f3 44 0f 6f 6f 30    	movdqu 0x30(%rdi),%xmm13
    168a:	66 41 0f ef d2       	pxor   %xmm10,%xmm2
    168f:	f3 44 0f 6f 57 40    	movdqu 0x40(%rdi),%xmm10
    1695:	66 41 0f ef db       	pxor   %xmm11,%xmm3
    169a:	f3 0f 7f 16          	movdqu %xmm2,(%rsi)
    169e:	66 41 0f ef e4       	pxor   %xmm12,%xmm4
    16a3:	f3 0f 7f 5e 10       	movdqu %xmm3,0x10(%rsi)
    16a8:	66 41 0f ef ed       	pxor   %xmm13,%xmm5
    16ad:	f3 0f 7f 66 20       	movdqu %xmm4,0x20(%rsi)
    16b2:	66 41 0f ef f2       	pxor   %xmm10,%xmm6
    16b7:	f3 0f 7f 6e 30       	movdqu %xmm5,0x30(%rsi)
    16bc:	f3 0f 7f 76 40       	movdqu %xmm6,0x40(%rsi)
    16c1:	48 83 fa 06          	cmp    $0x6,%rdx
    16c5:	0f 82 0b 01 00 00    	jb     17d6 <aesni_ctr32_encrypt_blocks+0x8d6>
    16cb:	44 0f 10 5f 50       	movups 0x50(%rdi),%xmm11
    16d0:	41 0f 57 fb          	xorps  %xmm11,%xmm7
    16d4:	0f 11 7e 50          	movups %xmm7,0x50(%rsi)
    16d8:	0f 84 f8 00 00 00    	je     17d6 <aesni_ctr32_encrypt_blocks+0x8d6>
    16de:	44 0f 10 67 60       	movups 0x60(%rdi),%xmm12
    16e3:	45 0f 57 c4          	xorps  %xmm12,%xmm8
    16e7:	44 0f 11 46 60       	movups %xmm8,0x60(%rsi)
    16ec:	e9 e5 00 00 00       	jmp    17d6 <aesni_ctr32_encrypt_blocks+0x8d6>
    16f1:	66 66 2e 0f 1f 84 00 	data16 cs nopw 0x0(%rax,%rax,1)
    16f8:	00 00 00 00 
    16fc:	0f 1f 40 00          	nopl   0x0(%rax)
    1700:	66 0f 38 dc d1       	aesenc %xmm1,%xmm2
    1705:	48 8d 49 10          	lea    0x10(%rcx),%rcx
    1709:	ff c8                	dec    %eax
    170b:	66 0f 38 dc d9       	aesenc %xmm1,%xmm3
    1710:	66 0f 38 dc e1       	aesenc %xmm1,%xmm4
    1715:	66 0f 38 dc e9       	aesenc %xmm1,%xmm5
    171a:	0f 10 09             	movups (%rcx),%xmm1
    171d:	75 e1                	jne    1700 <aesni_ctr32_encrypt_blocks+0x800>
    171f:	66 0f 38 dd d1       	aesenclast %xmm1,%xmm2
    1724:	66 0f 38 dd d9       	aesenclast %xmm1,%xmm3
    1729:	44 0f 10 17          	movups (%rdi),%xmm10
    172d:	44 0f 10 5f 10       	movups 0x10(%rdi),%xmm11
    1732:	66 0f 38 dd e1       	aesenclast %xmm1,%xmm4
    1737:	66 0f 38 dd e9       	aesenclast %xmm1,%xmm5
    173c:	44 0f 10 67 20       	movups 0x20(%rdi),%xmm12
    1741:	44 0f 10 6f 30       	movups 0x30(%rdi),%xmm13
    1746:	41 0f 57 d2          	xorps  %xmm10,%xmm2
    174a:	0f 11 16             	movups %xmm2,(%rsi)
    174d:	41 0f 57 db          	xorps  %xmm11,%xmm3
    1751:	0f 11 5e 10          	movups %xmm3,0x10(%rsi)
    1755:	66 41 0f ef e4       	pxor   %xmm12,%xmm4
    175a:	f3 0f 7f 66 20       	movdqu %xmm4,0x20(%rsi)
    175f:	66 41 0f ef ed       	pxor   %xmm13,%xmm5
    1764:	f3 0f 7f 6e 30       	movdqu %xmm5,0x30(%rsi)
    1769:	eb 6b                	jmp    17d6 <aesni_ctr32_encrypt_blocks+0x8d6>
    176b:	66 66 2e 0f 1f 84 00 	data16 cs nopw 0x0(%rax,%rax,1)
    1772:	00 00 00 00 
    1776:	66 2e 0f 1f 84 00 00 	cs nopw 0x0(%rax,%rax,1)
    177d:	00 00 00 
    1780:	66 0f 38 dc d1       	aesenc %xmm1,%xmm2
    1785:	48 8d 49 10          	lea    0x10(%rcx),%rcx
    1789:	ff c8                	dec    %eax
    178b:	66 0f 38 dc d9       	aesenc %xmm1,%xmm3
    1790:	66 0f 38 dc e1       	aesenc %xmm1,%xmm4
    1795:	0f 10 09             	movups (%rcx),%xmm1
    1798:	75 e6                	jne    1780 <aesni_ctr32_encrypt_blocks+0x880>
    179a:	66 0f 38 dd d1       	aesenclast %xmm1,%xmm2
    179f:	66 0f 38 dd d9       	aesenclast %xmm1,%xmm3
    17a4:	66 0f 38 dd e1       	aesenclast %xmm1,%xmm4
    17a9:	44 0f 10 17          	movups (%rdi),%xmm10
    17ad:	41 0f 57 d2          	xorps  %xmm10,%xmm2
    17b1:	0f 11 16             	movups %xmm2,(%rsi)
    17b4:	48 83 fa 02          	cmp    $0x2,%rdx
    17b8:	72 1c                	jb     17d6 <aesni_ctr32_encrypt_blocks+0x8d6>
    17ba:	44 0f 10 5f 10       	movups 0x10(%rdi),%xmm11
    17bf:	41 0f 57 db          	xorps  %xmm11,%xmm3
    17c3:	0f 11 5e 10          	movups %xmm3,0x10(%rsi)
    17c7:	74 0d                	je     17d6 <aesni_ctr32_encrypt_blocks+0x8d6>
    17c9:	44 0f 10 67 20       	movups 0x20(%rdi),%xmm12
    17ce:	41 0f 57 e4          	xorps  %xmm12,%xmm4
    17d2:	0f 11 66 20          	movups %xmm4,0x20(%rsi)
    17d6:	0f 57 c0             	xorps  %xmm0,%xmm0
    17d9:	31 ed                	xor    %ebp,%ebp
    17db:	66 0f ef c9          	pxor   %xmm1,%xmm1
    17df:	66 0f ef d2          	pxor   %xmm2,%xmm2
    17e3:	66 0f ef db          	pxor   %xmm3,%xmm3
    17e7:	66 0f ef e4          	pxor   %xmm4,%xmm4
    17eb:	66 0f ef ed          	pxor   %xmm5,%xmm5
    17ef:	66 0f ef f6          	pxor   %xmm6,%xmm6
    17f3:	66 0f ef ff          	pxor   %xmm7,%xmm7
    17f7:	0f 29 04 24          	movaps %xmm0,(%rsp)
    17fb:	66 45 0f ef c0       	pxor   %xmm8,%xmm8
    1800:	0f 29 44 24 10       	movaps %xmm0,0x10(%rsp)
    1805:	66 45 0f ef c9       	pxor   %xmm9,%xmm9
    180a:	0f 29 44 24 20       	movaps %xmm0,0x20(%rsp)
    180f:	66 45 0f ef d2       	pxor   %xmm10,%xmm10
    1814:	0f 29 44 24 30       	movaps %xmm0,0x30(%rsp)
    1819:	66 45 0f ef db       	pxor   %xmm11,%xmm11
    181e:	0f 29 44 24 40       	movaps %xmm0,0x40(%rsp)
    1823:	66 45 0f ef e4       	pxor   %xmm12,%xmm12
    1828:	0f 29 44 24 50       	movaps %xmm0,0x50(%rsp)
    182d:	66 45 0f ef ed       	pxor   %xmm13,%xmm13
    1832:	0f 29 44 24 60       	movaps %xmm0,0x60(%rsp)
    1837:	66 45 0f ef f6       	pxor   %xmm14,%xmm14
    183c:	0f 29 44 24 70       	movaps %xmm0,0x70(%rsp)
    1841:	66 45 0f ef ff       	pxor   %xmm15,%xmm15
    1846:	49 8b 6b f8          	mov    -0x8(%r11),%rbp
    184a:	49 8d 23             	lea    (%r11),%rsp
    184d:	f3 c3                	repz ret 
    184f:	90                   	nop

0000000000001850 <aesni_xts_encrypt>:
    1850:	f3 0f 1e fa          	endbr64 
    1854:	4c 8d 1c 24          	lea    (%rsp),%r11
    1858:	55                   	push   %rbp
    1859:	48 83 ec 70          	sub    $0x70,%rsp
    185d:	48 83 e4 f0          	and    $0xfffffffffffffff0,%rsp
    1861:	41 0f 10 11          	movups (%r9),%xmm2
    1865:	41 8b 80 f0 00 00 00 	mov    0xf0(%r8),%eax
    186c:	44 8b 91 f0 00 00 00 	mov    0xf0(%rcx),%r10d
    1873:	41 0f 10 00          	movups (%r8),%xmm0
    1877:	41 0f 10 48 10       	movups 0x10(%r8),%xmm1
    187c:	4d 8d 40 20          	lea    0x20(%r8),%r8
    1880:	0f 57 d0             	xorps  %xmm0,%xmm2
    1883:	66 0f 38 dc d1       	aesenc %xmm1,%xmm2
    1888:	ff c8                	dec    %eax
    188a:	41 0f 10 08          	movups (%r8),%xmm1
    188e:	4d 8d 40 10          	lea    0x10(%r8),%r8
    1892:	75 ef                	jne    1883 <aesni_xts_encrypt+0x33>
    1894:	66 0f 38 dd d1       	aesenclast %xmm1,%xmm2
    1899:	0f 10 01             	movups (%rcx),%xmm0
    189c:	48 89 cd             	mov    %rcx,%rbp
    189f:	44 89 d0             	mov    %r10d,%eax
    18a2:	41 c1 e2 04          	shl    $0x4,%r10d
    18a6:	49 89 d1             	mov    %rdx,%r9
    18a9:	48 83 e2 f0          	and    $0xfffffffffffffff0,%rdx
    18ad:	42 0f 10 4c 11 10    	movups 0x10(%rcx,%r10,1),%xmm1
    18b3:	66 44 0f 6f 05 00 00 	movdqa 0x0(%rip),%xmm8        # 18bc <aesni_xts_encrypt+0x6c>
    18ba:	00 00 
    18bc:	66 44 0f 6f fa       	movdqa %xmm2,%xmm15
    18c1:	66 44 0f 70 ca 5f    	pshufd $0x5f,%xmm2,%xmm9
    18c7:	66 0f ef c8          	pxor   %xmm0,%xmm1
    18cb:	66 45 0f 6f f1       	movdqa %xmm9,%xmm14
    18d0:	66 45 0f fe c9       	paddd  %xmm9,%xmm9
    18d5:	66 45 0f 6f d7       	movdqa %xmm15,%xmm10
    18da:	66 41 0f 72 e6 1f    	psrad  $0x1f,%xmm14
    18e0:	66 45 0f d4 ff       	paddq  %xmm15,%xmm15
    18e5:	66 45 0f db f0       	pand   %xmm8,%xmm14
    18ea:	66 44 0f ef d0       	pxor   %xmm0,%xmm10
    18ef:	66 45 0f ef fe       	pxor   %xmm14,%xmm15
    18f4:	66 45 0f 6f f1       	movdqa %xmm9,%xmm14
    18f9:	66 45 0f fe c9       	paddd  %xmm9,%xmm9
    18fe:	66 45 0f 6f df       	movdqa %xmm15,%xmm11
    1903:	66 41 0f 72 e6 1f    	psrad  $0x1f,%xmm14
    1909:	66 45 0f d4 ff       	paddq  %xmm15,%xmm15
    190e:	66 45 0f db f0       	pand   %xmm8,%xmm14
    1913:	66 44 0f ef d8       	pxor   %xmm0,%xmm11
    1918:	66 45 0f ef fe       	pxor   %xmm14,%xmm15
    191d:	66 45 0f 6f f1       	movdqa %xmm9,%xmm14
    1922:	66 45 0f fe c9       	paddd  %xmm9,%xmm9
    1927:	66 45 0f 6f e7       	movdqa %xmm15,%xmm12
    192c:	66 41 0f 72 e6 1f    	psrad  $0x1f,%xmm14
    1932:	66 45 0f d4 ff       	paddq  %xmm15,%xmm15
    1937:	66 45 0f db f0       	pand   %xmm8,%xmm14
    193c:	66 44 0f ef e0       	pxor   %xmm0,%xmm12
    1941:	66 45 0f ef fe       	pxor   %xmm14,%xmm15
    1946:	66 45 0f 6f f1       	movdqa %xmm9,%xmm14
    194b:	66 45 0f fe c9       	paddd  %xmm9,%xmm9
    1950:	66 45 0f 6f ef       	movdqa %xmm15,%xmm13
    1955:	66 41 0f 72 e6 1f    	psrad  $0x1f,%xmm14
    195b:	66 45 0f d4 ff       	paddq  %xmm15,%xmm15
    1960:	66 45 0f db f0       	pand   %xmm8,%xmm14
    1965:	66 44 0f ef e8       	pxor   %xmm0,%xmm13
    196a:	66 45 0f ef fe       	pxor   %xmm14,%xmm15
    196f:	66 45 0f 6f f7       	movdqa %xmm15,%xmm14
    1974:	66 41 0f 72 e1 1f    	psrad  $0x1f,%xmm9
    197a:	66 45 0f d4 ff       	paddq  %xmm15,%xmm15
    197f:	66 45 0f db c8       	pand   %xmm8,%xmm9
    1984:	66 44 0f ef f0       	pxor   %xmm0,%xmm14
    1989:	66 45 0f ef f9       	pxor   %xmm9,%xmm15
    198e:	0f 29 4c 24 60       	movaps %xmm1,0x60(%rsp)
    1993:	48 83 ea 60          	sub    $0x60,%rdx
    1997:	0f 82 43 03 00 00    	jb     1ce0 <aesni_xts_encrypt+0x490>
    199d:	b8 70 00 00 00       	mov    $0x70,%eax
    19a2:	4a 8d 4c 15 20       	lea    0x20(%rbp,%r10,1),%rcx
    19a7:	4c 29 d0             	sub    %r10,%rax
    19aa:	0f 10 4d 10          	movups 0x10(%rbp),%xmm1
    19ae:	49 89 c2             	mov    %rax,%r10
    19b1:	4c 8d 05 00 00 00 00 	lea    0x0(%rip),%r8        # 19b8 <aesni_xts_encrypt+0x168>
    19b8:	eb 06                	jmp    19c0 <aesni_xts_encrypt+0x170>
    19ba:	66 0f 1f 44 00 00    	nopw   0x0(%rax,%rax,1)
    19c0:	f3 0f 6f 17          	movdqu (%rdi),%xmm2
    19c4:	66 44 0f 6f c0       	movdqa %xmm0,%xmm8
    19c9:	f3 0f 6f 5f 10       	movdqu 0x10(%rdi),%xmm3
    19ce:	66 41 0f ef d2       	pxor   %xmm10,%xmm2
    19d3:	f3 0f 6f 67 20       	movdqu 0x20(%rdi),%xmm4
    19d8:	66 41 0f ef db       	pxor   %xmm11,%xmm3
    19dd:	66 0f 38 dc d1       	aesenc %xmm1,%xmm2
    19e2:	f3 0f 6f 6f 30       	movdqu 0x30(%rdi),%xmm5
    19e7:	66 41 0f ef e4       	pxor   %xmm12,%xmm4
    19ec:	66 0f 38 dc d9       	aesenc %xmm1,%xmm3
    19f1:	f3 0f 6f 77 40       	movdqu 0x40(%rdi),%xmm6
    19f6:	66 41 0f ef ed       	pxor   %xmm13,%xmm5
    19fb:	66 0f 38 dc e1       	aesenc %xmm1,%xmm4
    1a00:	f3 0f 6f 7f 50       	movdqu 0x50(%rdi),%xmm7
    1a05:	66 45 0f ef c7       	pxor   %xmm15,%xmm8
    1a0a:	66 44 0f 6f 4c 24 60 	movdqa 0x60(%rsp),%xmm9
    1a11:	66 41 0f ef f6       	pxor   %xmm14,%xmm6
    1a16:	66 0f 38 dc e9       	aesenc %xmm1,%xmm5
    1a1b:	0f 10 45 20          	movups 0x20(%rbp),%xmm0
    1a1f:	48 8d 7f 60          	lea    0x60(%rdi),%rdi
    1a23:	66 41 0f ef f8       	pxor   %xmm8,%xmm7
    1a28:	66 45 0f ef d1       	pxor   %xmm9,%xmm10
    1a2d:	66 0f 38 dc f1       	aesenc %xmm1,%xmm6
    1a32:	66 45 0f ef d9       	pxor   %xmm9,%xmm11
    1a37:	66 44 0f 7f 14 24    	movdqa %xmm10,(%rsp)
    1a3d:	66 0f 38 dc f9       	aesenc %xmm1,%xmm7
    1a42:	0f 10 4d 30          	movups 0x30(%rbp),%xmm1
    1a46:	66 45 0f ef e1       	pxor   %xmm9,%xmm12
    1a4b:	66 0f 38 dc d0       	aesenc %xmm0,%xmm2
    1a50:	66 45 0f ef e9       	pxor   %xmm9,%xmm13
    1a55:	66 44 0f 7f 5c 24 10 	movdqa %xmm11,0x10(%rsp)
    1a5c:	66 0f 38 dc d8       	aesenc %xmm0,%xmm3
    1a61:	66 45 0f ef f1       	pxor   %xmm9,%xmm14
    1a66:	66 44 0f 7f 64 24 20 	movdqa %xmm12,0x20(%rsp)
    1a6d:	66 0f 38 dc e0       	aesenc %xmm0,%xmm4
    1a72:	66 0f 38 dc e8       	aesenc %xmm0,%xmm5
    1a77:	66 45 0f ef c1       	pxor   %xmm9,%xmm8
    1a7c:	66 44 0f 7f 74 24 40 	movdqa %xmm14,0x40(%rsp)
    1a83:	66 0f 38 dc f0       	aesenc %xmm0,%xmm6
    1a88:	66 0f 38 dc f8       	aesenc %xmm0,%xmm7
    1a8d:	0f 10 45 40          	movups 0x40(%rbp),%xmm0
    1a91:	66 44 0f 7f 44 24 50 	movdqa %xmm8,0x50(%rsp)
    1a98:	66 45 0f 70 cf 5f    	pshufd $0x5f,%xmm15,%xmm9
    1a9e:	eb 00                	jmp    1aa0 <aesni_xts_encrypt+0x250>
    1aa0:	66 0f 38 dc d1       	aesenc %xmm1,%xmm2
    1aa5:	66 0f 38 dc d9       	aesenc %xmm1,%xmm3
    1aaa:	66 0f 38 dc e1       	aesenc %xmm1,%xmm4
    1aaf:	66 0f 38 dc e9       	aesenc %xmm1,%xmm5
    1ab4:	66 0f 38 dc f1       	aesenc %xmm1,%xmm6
    1ab9:	66 0f 38 dc f9       	aesenc %xmm1,%xmm7
    1abe:	0f 10 4c 01 c0       	movups -0x40(%rcx,%rax,1),%xmm1
    1ac3:	48 83 c0 20          	add    $0x20,%rax
    1ac7:	66 0f 38 dc d0       	aesenc %xmm0,%xmm2
    1acc:	66 0f 38 dc d8       	aesenc %xmm0,%xmm3
    1ad1:	66 0f 38 dc e0       	aesenc %xmm0,%xmm4
    1ad6:	66 0f 38 dc e8       	aesenc %xmm0,%xmm5
    1adb:	66 0f 38 dc f0       	aesenc %xmm0,%xmm6
    1ae0:	66 0f 38 dc f8       	aesenc %xmm0,%xmm7
    1ae5:	0f 10 44 01 b0       	movups -0x50(%rcx,%rax,1),%xmm0
    1aea:	75 b4                	jne    1aa0 <aesni_xts_encrypt+0x250>
    1aec:	66 45 0f 6f 00       	movdqa (%r8),%xmm8
    1af1:	66 45 0f 6f f1       	movdqa %xmm9,%xmm14
    1af6:	66 45 0f fe c9       	paddd  %xmm9,%xmm9
    1afb:	66 0f 38 dc d1       	aesenc %xmm1,%xmm2
    1b00:	66 45 0f d4 ff       	paddq  %xmm15,%xmm15
    1b05:	66 41 0f 72 e6 1f    	psrad  $0x1f,%xmm14
    1b0b:	66 0f 38 dc d9       	aesenc %xmm1,%xmm3
    1b10:	66 45 0f db f0       	pand   %xmm8,%xmm14
    1b15:	44 0f 10 55 00       	movups 0x0(%rbp),%xmm10
    1b1a:	66 0f 38 dc e1       	aesenc %xmm1,%xmm4
    1b1f:	66 0f 38 dc e9       	aesenc %xmm1,%xmm5
    1b24:	66 0f 38 dc f1       	aesenc %xmm1,%xmm6
    1b29:	66 45 0f ef fe       	pxor   %xmm14,%xmm15
    1b2e:	45 0f 28 da          	movaps %xmm10,%xmm11
    1b32:	66 0f 38 dc f9       	aesenc %xmm1,%xmm7
    1b37:	0f 10 49 c0          	movups -0x40(%rcx),%xmm1
    1b3b:	66 45 0f 6f f1       	movdqa %xmm9,%xmm14
    1b40:	66 0f 38 dc d0       	aesenc %xmm0,%xmm2
    1b45:	66 45 0f fe c9       	paddd  %xmm9,%xmm9
    1b4a:	66 45 0f ef d7       	pxor   %xmm15,%xmm10
    1b4f:	66 0f 38 dc d8       	aesenc %xmm0,%xmm3
    1b54:	66 41 0f 72 e6 1f    	psrad  $0x1f,%xmm14
    1b5a:	66 45 0f d4 ff       	paddq  %xmm15,%xmm15
    1b5f:	66 0f 38 dc e0       	aesenc %xmm0,%xmm4
    1b64:	66 0f 38 dc e8       	aesenc %xmm0,%xmm5
    1b69:	66 45 0f db f0       	pand   %xmm8,%xmm14
    1b6e:	45 0f 28 e3          	movaps %xmm11,%xmm12
    1b72:	66 0f 38 dc f0       	aesenc %xmm0,%xmm6
    1b77:	66 45 0f ef fe       	pxor   %xmm14,%xmm15
    1b7c:	66 45 0f 6f f1       	movdqa %xmm9,%xmm14
    1b81:	66 0f 38 dc f8       	aesenc %xmm0,%xmm7
    1b86:	0f 10 41 d0          	movups -0x30(%rcx),%xmm0
    1b8a:	66 45 0f fe c9       	paddd  %xmm9,%xmm9
    1b8f:	66 0f 38 dc d1       	aesenc %xmm1,%xmm2
    1b94:	66 45 0f ef df       	pxor   %xmm15,%xmm11
    1b99:	66 41 0f 72 e6 1f    	psrad  $0x1f,%xmm14
    1b9f:	66 0f 38 dc d9       	aesenc %xmm1,%xmm3
    1ba4:	66 45 0f d4 ff       	paddq  %xmm15,%xmm15
    1ba9:	66 45 0f db f0       	pand   %xmm8,%xmm14
    1bae:	66 0f 38 dc e1       	aesenc %xmm1,%xmm4
    1bb3:	66 0f 38 dc e9       	aesenc %xmm1,%xmm5
    1bb8:	66 44 0f 7f 6c 24 30 	movdqa %xmm13,0x30(%rsp)
    1bbf:	66 45 0f ef fe       	pxor   %xmm14,%xmm15
    1bc4:	66 0f 38 dc f1       	aesenc %xmm1,%xmm6
    1bc9:	45 0f 28 ec          	movaps %xmm12,%xmm13
    1bcd:	66 45 0f 6f f1       	movdqa %xmm9,%xmm14
    1bd2:	66 0f 38 dc f9       	aesenc %xmm1,%xmm7
    1bd7:	0f 10 49 e0          	movups -0x20(%rcx),%xmm1
    1bdb:	66 45 0f fe c9       	paddd  %xmm9,%xmm9
    1be0:	66 0f 38 dc d0       	aesenc %xmm0,%xmm2
    1be5:	66 45 0f ef e7       	pxor   %xmm15,%xmm12
    1bea:	66 41 0f 72 e6 1f    	psrad  $0x1f,%xmm14
    1bf0:	66 0f 38 dc d8       	aesenc %xmm0,%xmm3
    1bf5:	66 45 0f d4 ff       	paddq  %xmm15,%xmm15
    1bfa:	66 45 0f db f0       	pand   %xmm8,%xmm14
    1bff:	66 0f 38 dc e0       	aesenc %xmm0,%xmm4
    1c04:	66 0f 38 dc e8       	aesenc %xmm0,%xmm5
    1c09:	66 0f 38 dc f0       	aesenc %xmm0,%xmm6
    1c0e:	66 45 0f ef fe       	pxor   %xmm14,%xmm15
    1c13:	45 0f 28 f5          	movaps %xmm13,%xmm14
    1c17:	66 0f 38 dc f8       	aesenc %xmm0,%xmm7
    1c1c:	66 41 0f 6f c1       	movdqa %xmm9,%xmm0
    1c21:	66 45 0f fe c9       	paddd  %xmm9,%xmm9
    1c26:	66 0f 38 dc d1       	aesenc %xmm1,%xmm2
    1c2b:	66 45 0f ef ef       	pxor   %xmm15,%xmm13
    1c30:	66 0f 72 e0 1f       	psrad  $0x1f,%xmm0
    1c35:	66 0f 38 dc d9       	aesenc %xmm1,%xmm3
    1c3a:	66 45 0f d4 ff       	paddq  %xmm15,%xmm15
    1c3f:	66 41 0f db c0       	pand   %xmm8,%xmm0
    1c44:	66 0f 38 dc e1       	aesenc %xmm1,%xmm4
    1c49:	66 0f 38 dc e9       	aesenc %xmm1,%xmm5
    1c4e:	66 44 0f ef f8       	pxor   %xmm0,%xmm15
    1c53:	0f 10 45 00          	movups 0x0(%rbp),%xmm0
    1c57:	66 0f 38 dc f1       	aesenc %xmm1,%xmm6
    1c5c:	66 0f 38 dc f9       	aesenc %xmm1,%xmm7
    1c61:	0f 10 4d 10          	movups 0x10(%rbp),%xmm1
    1c65:	66 45 0f ef f7       	pxor   %xmm15,%xmm14
    1c6a:	66 0f 38 dd 54 24 00 	aesenclast 0x0(%rsp),%xmm2
    1c71:	66 41 0f 72 e1 1f    	psrad  $0x1f,%xmm9
    1c77:	66 45 0f d4 ff       	paddq  %xmm15,%xmm15
    1c7c:	66 0f 38 dd 5c 24 10 	aesenclast 0x10(%rsp),%xmm3
    1c83:	66 0f 38 dd 64 24 20 	aesenclast 0x20(%rsp),%xmm4
    1c8a:	66 45 0f db c8       	pand   %xmm8,%xmm9
    1c8f:	4c 89 d0             	mov    %r10,%rax
    1c92:	66 0f 38 dd 6c 24 30 	aesenclast 0x30(%rsp),%xmm5
    1c99:	66 0f 38 dd 74 24 40 	aesenclast 0x40(%rsp),%xmm6
    1ca0:	66 0f 38 dd 7c 24 50 	aesenclast 0x50(%rsp),%xmm7
    1ca7:	66 45 0f ef f9       	pxor   %xmm9,%xmm15
    1cac:	48 8d 76 60          	lea    0x60(%rsi),%rsi
    1cb0:	0f 11 56 a0          	movups %xmm2,-0x60(%rsi)
    1cb4:	0f 11 5e b0          	movups %xmm3,-0x50(%rsi)
    1cb8:	0f 11 66 c0          	movups %xmm4,-0x40(%rsi)
    1cbc:	0f 11 6e d0          	movups %xmm5,-0x30(%rsi)
    1cc0:	0f 11 76 e0          	movups %xmm6,-0x20(%rsi)
    1cc4:	0f 11 7e f0          	movups %xmm7,-0x10(%rsi)
    1cc8:	48 83 ea 60          	sub    $0x60,%rdx
    1ccc:	0f 83 ee fc ff ff    	jae    19c0 <aesni_xts_encrypt+0x170>
    1cd2:	b8 70 00 00 00       	mov    $0x70,%eax
    1cd7:	44 29 d0             	sub    %r10d,%eax
    1cda:	48 89 e9             	mov    %rbp,%rcx
    1cdd:	c1 e8 04             	shr    $0x4,%eax
    1ce0:	41 89 c2             	mov    %eax,%r10d
    1ce3:	66 44 0f ef d0       	pxor   %xmm0,%xmm10
    1ce8:	48 83 c2 60          	add    $0x60,%rdx
    1cec:	0f 84 ee 01 00 00    	je     1ee0 <aesni_xts_encrypt+0x690>
    1cf2:	66 44 0f ef d8       	pxor   %xmm0,%xmm11
    1cf7:	48 83 fa 20          	cmp    $0x20,%rdx
    1cfb:	0f 82 9f 00 00 00    	jb     1da0 <aesni_xts_encrypt+0x550>
    1d01:	66 44 0f ef e0       	pxor   %xmm0,%xmm12
    1d06:	0f 84 e4 00 00 00    	je     1df0 <aesni_xts_encrypt+0x5a0>
    1d0c:	66 44 0f ef e8       	pxor   %xmm0,%xmm13
    1d11:	48 83 fa 40          	cmp    $0x40,%rdx
    1d15:	0f 82 15 01 00 00    	jb     1e30 <aesni_xts_encrypt+0x5e0>
    1d1b:	66 44 0f ef f0       	pxor   %xmm0,%xmm14
    1d20:	0f 84 5a 01 00 00    	je     1e80 <aesni_xts_encrypt+0x630>
    1d26:	f3 0f 6f 17          	movdqu (%rdi),%xmm2
    1d2a:	f3 0f 6f 5f 10       	movdqu 0x10(%rdi),%xmm3
    1d2f:	f3 0f 6f 67 20       	movdqu 0x20(%rdi),%xmm4
    1d34:	66 41 0f ef d2       	pxor   %xmm10,%xmm2
    1d39:	f3 0f 6f 6f 30       	movdqu 0x30(%rdi),%xmm5
    1d3e:	66 41 0f ef db       	pxor   %xmm11,%xmm3
    1d43:	f3 0f 6f 77 40       	movdqu 0x40(%rdi),%xmm6
    1d48:	48 8d 7f 50          	lea    0x50(%rdi),%rdi
    1d4c:	66 41 0f ef e4       	pxor   %xmm12,%xmm4
    1d51:	66 41 0f ef ed       	pxor   %xmm13,%xmm5
    1d56:	66 41 0f ef f6       	pxor   %xmm14,%xmm6
    1d5b:	66 0f ef ff          	pxor   %xmm7,%xmm7
    1d5f:	e8 fc e5 ff ff       	call   360 <_aesni_encrypt6>
    1d64:	41 0f 57 d2          	xorps  %xmm10,%xmm2
    1d68:	66 45 0f 6f d7       	movdqa %xmm15,%xmm10
    1d6d:	41 0f 57 db          	xorps  %xmm11,%xmm3
    1d71:	41 0f 57 e4          	xorps  %xmm12,%xmm4
    1d75:	f3 0f 7f 16          	movdqu %xmm2,(%rsi)
    1d79:	41 0f 57 ed          	xorps  %xmm13,%xmm5
    1d7d:	f3 0f 7f 5e 10       	movdqu %xmm3,0x10(%rsi)
    1d82:	41 0f 57 f6          	xorps  %xmm14,%xmm6
    1d86:	f3 0f 7f 66 20       	movdqu %xmm4,0x20(%rsi)
    1d8b:	f3 0f 7f 6e 30       	movdqu %xmm5,0x30(%rsi)
    1d90:	f3 0f 7f 76 40       	movdqu %xmm6,0x40(%rsi)
    1d95:	48 8d 76 50          	lea    0x50(%rsi),%rsi
    1d99:	e9 42 01 00 00       	jmp    1ee0 <aesni_xts_encrypt+0x690>
    1d9e:	66 90                	xchg   %ax,%ax
    1da0:	0f 10 17             	movups (%rdi),%xmm2
    1da3:	48 8d 7f 10          	lea    0x10(%rdi),%rdi
    1da7:	41 0f 57 d2          	xorps  %xmm10,%xmm2
    1dab:	0f 10 01             	movups (%rcx),%xmm0
    1dae:	0f 10 49 10          	movups 0x10(%rcx),%xmm1
    1db2:	48 8d 49 20          	lea    0x20(%rcx),%rcx
    1db6:	0f 57 d0             	xorps  %xmm0,%xmm2
    1db9:	66 0f 38 dc d1       	aesenc %xmm1,%xmm2
    1dbe:	ff c8                	dec    %eax
    1dc0:	0f 10 09             	movups (%rcx),%xmm1
    1dc3:	48 8d 49 10          	lea    0x10(%rcx),%rcx
    1dc7:	75 f0                	jne    1db9 <aesni_xts_encrypt+0x569>
    1dc9:	66 0f 38 dd d1       	aesenclast %xmm1,%xmm2
    1dce:	41 0f 57 d2          	xorps  %xmm10,%xmm2
    1dd2:	66 45 0f 6f d3       	movdqa %xmm11,%xmm10
    1dd7:	0f 11 16             	movups %xmm2,(%rsi)
    1dda:	48 8d 76 10          	lea    0x10(%rsi),%rsi
    1dde:	e9 fd 00 00 00       	jmp    1ee0 <aesni_xts_encrypt+0x690>
    1de3:	66 66 2e 0f 1f 84 00 	data16 cs nopw 0x0(%rax,%rax,1)
    1dea:	00 00 00 00 
    1dee:	66 90                	xchg   %ax,%ax
    1df0:	0f 10 17             	movups (%rdi),%xmm2
    1df3:	0f 10 5f 10          	movups 0x10(%rdi),%xmm3
    1df7:	48 8d 7f 20          	lea    0x20(%rdi),%rdi
    1dfb:	41 0f 57 d2          	xorps  %xmm10,%xmm2
    1dff:	41 0f 57 db          	xorps  %xmm11,%xmm3
    1e03:	e8 98 e2 ff ff       	call   a0 <_aesni_encrypt2>
    1e08:	41 0f 57 d2          	xorps  %xmm10,%xmm2
    1e0c:	66 45 0f 6f d4       	movdqa %xmm12,%xmm10
    1e11:	41 0f 57 db          	xorps  %xmm11,%xmm3
    1e15:	0f 11 16             	movups %xmm2,(%rsi)
    1e18:	0f 11 5e 10          	movups %xmm3,0x10(%rsi)
    1e1c:	48 8d 76 20          	lea    0x20(%rsi),%rsi
    1e20:	e9 bb 00 00 00       	jmp    1ee0 <aesni_xts_encrypt+0x690>
    1e25:	66 66 2e 0f 1f 84 00 	data16 cs nopw 0x0(%rax,%rax,1)
    1e2c:	00 00 00 00 
    1e30:	0f 10 17             	movups (%rdi),%xmm2
    1e33:	0f 10 5f 10          	movups 0x10(%rdi),%xmm3
    1e37:	0f 10 67 20          	movups 0x20(%rdi),%xmm4
    1e3b:	48 8d 7f 30          	lea    0x30(%rdi),%rdi
    1e3f:	41 0f 57 d2          	xorps  %xmm10,%xmm2
    1e43:	41 0f 57 db          	xorps  %xmm11,%xmm3
    1e47:	41 0f 57 e4          	xorps  %xmm12,%xmm4
    1e4b:	e8 10 e3 ff ff       	call   160 <_aesni_encrypt3>
    1e50:	41 0f 57 d2          	xorps  %xmm10,%xmm2
    1e54:	66 45 0f 6f d5       	movdqa %xmm13,%xmm10
    1e59:	41 0f 57 db          	xorps  %xmm11,%xmm3
    1e5d:	41 0f 57 e4          	xorps  %xmm12,%xmm4
    1e61:	0f 11 16             	movups %xmm2,(%rsi)
    1e64:	0f 11 5e 10          	movups %xmm3,0x10(%rsi)
    1e68:	0f 11 66 20          	movups %xmm4,0x20(%rsi)
    1e6c:	48 8d 76 30          	lea    0x30(%rsi),%rsi
    1e70:	eb 6e                	jmp    1ee0 <aesni_xts_encrypt+0x690>
    1e72:	66 66 2e 0f 1f 84 00 	data16 cs nopw 0x0(%rax,%rax,1)
    1e79:	00 00 00 00 
    1e7d:	0f 1f 00             	nopl   (%rax)
    1e80:	0f 10 17             	movups (%rdi),%xmm2
    1e83:	0f 10 5f 10          	movups 0x10(%rdi),%xmm3
    1e87:	0f 10 67 20          	movups 0x20(%rdi),%xmm4
    1e8b:	41 0f 57 d2          	xorps  %xmm10,%xmm2
    1e8f:	0f 10 6f 30          	movups 0x30(%rdi),%xmm5
    1e93:	48 8d 7f 40          	lea    0x40(%rdi),%rdi
    1e97:	41 0f 57 db          	xorps  %xmm11,%xmm3
    1e9b:	41 0f 57 e4          	xorps  %xmm12,%xmm4
    1e9f:	41 0f 57 ed          	xorps  %xmm13,%xmm5
    1ea3:	e8 98 e3 ff ff       	call   240 <_aesni_encrypt4>
    1ea8:	66 41 0f ef d2       	pxor   %xmm10,%xmm2
    1ead:	66 45 0f 6f d6       	movdqa %xmm14,%xmm10
    1eb2:	66 41 0f ef db       	pxor   %xmm11,%xmm3
    1eb7:	66 41 0f ef e4       	pxor   %xmm12,%xmm4
    1ebc:	f3 0f 7f 16          	movdqu %xmm2,(%rsi)
    1ec0:	66 41 0f ef ed       	pxor   %xmm13,%xmm5
    1ec5:	f3 0f 7f 5e 10       	movdqu %xmm3,0x10(%rsi)
    1eca:	f3 0f 7f 66 20       	movdqu %xmm4,0x20(%rsi)
    1ecf:	f3 0f 7f 6e 30       	movdqu %xmm5,0x30(%rsi)
    1ed4:	48 8d 76 40          	lea    0x40(%rsi),%rsi
    1ed8:	eb 06                	jmp    1ee0 <aesni_xts_encrypt+0x690>
    1eda:	66 0f 1f 44 00 00    	nopw   0x0(%rax,%rax,1)
    1ee0:	49 83 e1 0f          	and    $0xf,%r9
    1ee4:	74 59                	je     1f3f <aesni_xts_encrypt+0x6ef>
    1ee6:	4c 89 ca             	mov    %r9,%rdx
    1ee9:	0f b6 07             	movzbl (%rdi),%eax
    1eec:	0f b6 4e f0          	movzbl -0x10(%rsi),%ecx
    1ef0:	48 8d 7f 01          	lea    0x1(%rdi),%rdi
    1ef4:	88 46 f0             	mov    %al,-0x10(%rsi)
    1ef7:	88 0e                	mov    %cl,(%rsi)
    1ef9:	48 8d 76 01          	lea    0x1(%rsi),%rsi
    1efd:	48 83 ea 01          	sub    $0x1,%rdx
    1f01:	75 e6                	jne    1ee9 <aesni_xts_encrypt+0x699>
    1f03:	4c 29 ce             	sub    %r9,%rsi
    1f06:	48 89 e9             	mov    %rbp,%rcx
    1f09:	44 89 d0             	mov    %r10d,%eax
    1f0c:	0f 10 56 f0          	movups -0x10(%rsi),%xmm2
    1f10:	41 0f 57 d2          	xorps  %xmm10,%xmm2
    1f14:	0f 10 01             	movups (%rcx),%xmm0
    1f17:	0f 10 49 10          	movups 0x10(%rcx),%xmm1
    1f1b:	48 8d 49 20          	lea    0x20(%rcx),%rcx
    1f1f:	0f 57 d0             	xorps  %xmm0,%xmm2
    1f22:	66 0f 38 dc d1       	aesenc %xmm1,%xmm2
    1f27:	ff c8                	dec    %eax
    1f29:	0f 10 09             	movups (%rcx),%xmm1
    1f2c:	48 8d 49 10          	lea    0x10(%rcx),%rcx
    1f30:	75 f0                	jne    1f22 <aesni_xts_encrypt+0x6d2>
    1f32:	66 0f 38 dd d1       	aesenclast %xmm1,%xmm2
    1f37:	41 0f 57 d2          	xorps  %xmm10,%xmm2
    1f3b:	0f 11 56 f0          	movups %xmm2,-0x10(%rsi)
    1f3f:	0f 57 c0             	xorps  %xmm0,%xmm0
    1f42:	66 0f ef c9          	pxor   %xmm1,%xmm1
    1f46:	66 0f ef d2          	pxor   %xmm2,%xmm2
    1f4a:	66 0f ef db          	pxor   %xmm3,%xmm3
    1f4e:	66 0f ef e4          	pxor   %xmm4,%xmm4
    1f52:	66 0f ef ed          	pxor   %xmm5,%xmm5
    1f56:	66 0f ef f6          	pxor   %xmm6,%xmm6
    1f5a:	66 0f ef ff          	pxor   %xmm7,%xmm7
    1f5e:	0f 29 04 24          	movaps %xmm0,(%rsp)
    1f62:	66 45 0f ef c0       	pxor   %xmm8,%xmm8
    1f67:	0f 29 44 24 10       	movaps %xmm0,0x10(%rsp)
    1f6c:	66 45 0f ef c9       	pxor   %xmm9,%xmm9
    1f71:	0f 29 44 24 20       	movaps %xmm0,0x20(%rsp)
    1f76:	66 45 0f ef d2       	pxor   %xmm10,%xmm10
    1f7b:	0f 29 44 24 30       	movaps %xmm0,0x30(%rsp)
    1f80:	66 45 0f ef db       	pxor   %xmm11,%xmm11
    1f85:	0f 29 44 24 40       	movaps %xmm0,0x40(%rsp)
    1f8a:	66 45 0f ef e4       	pxor   %xmm12,%xmm12
    1f8f:	0f 29 44 24 50       	movaps %xmm0,0x50(%rsp)
    1f94:	66 45 0f ef ed       	pxor   %xmm13,%xmm13
    1f99:	0f 29 44 24 60       	movaps %xmm0,0x60(%rsp)
    1f9e:	66 45 0f ef f6       	pxor   %xmm14,%xmm14
    1fa3:	66 45 0f ef ff       	pxor   %xmm15,%xmm15
    1fa8:	49 8b 6b f8          	mov    -0x8(%r11),%rbp
    1fac:	49 8d 23             	lea    (%r11),%rsp
    1faf:	f3 c3                	repz ret 
    1fb1:	66 66 2e 0f 1f 84 00 	data16 cs nopw 0x0(%rax,%rax,1)
    1fb8:	00 00 00 00 
    1fbc:	0f 1f 40 00          	nopl   0x0(%rax)

0000000000001fc0 <aesni_xts_decrypt>:
    1fc0:	f3 0f 1e fa          	endbr64 
    1fc4:	4c 8d 1c 24          	lea    (%rsp),%r11
    1fc8:	55                   	push   %rbp
    1fc9:	48 83 ec 70          	sub    $0x70,%rsp
    1fcd:	48 83 e4 f0          	and    $0xfffffffffffffff0,%rsp
    1fd1:	41 0f 10 11          	movups (%r9),%xmm2
    1fd5:	41 8b 80 f0 00 00 00 	mov    0xf0(%r8),%eax
    1fdc:	44 8b 91 f0 00 00 00 	mov    0xf0(%rcx),%r10d
    1fe3:	41 0f 10 00          	movups (%r8),%xmm0
    1fe7:	41 0f 10 48 10       	movups 0x10(%r8),%xmm1
    1fec:	4d 8d 40 20          	lea    0x20(%r8),%r8
    1ff0:	0f 57 d0             	xorps  %xmm0,%xmm2
    1ff3:	66 0f 38 dc d1       	aesenc %xmm1,%xmm2
    1ff8:	ff c8                	dec    %eax
    1ffa:	41 0f 10 08          	movups (%r8),%xmm1
    1ffe:	4d 8d 40 10          	lea    0x10(%r8),%r8
    2002:	75 ef                	jne    1ff3 <aesni_xts_decrypt+0x33>
    2004:	66 0f 38 dd d1       	aesenclast %xmm1,%xmm2
    2009:	31 c0                	xor    %eax,%eax
    200b:	48 f7 c2 0f 00 00 00 	test   $0xf,%rdx
    2012:	0f 95 c0             	setne  %al
    2015:	48 c1 e0 04          	shl    $0x4,%rax
    2019:	48 29 c2             	sub    %rax,%rdx
    201c:	0f 10 01             	movups (%rcx),%xmm0
    201f:	48 89 cd             	mov    %rcx,%rbp
    2022:	44 89 d0             	mov    %r10d,%eax
    2025:	41 c1 e2 04          	shl    $0x4,%r10d
    2029:	49 89 d1             	mov    %rdx,%r9
    202c:	48 83 e2 f0          	and    $0xfffffffffffffff0,%rdx
    2030:	42 0f 10 4c 11 10    	movups 0x10(%rcx,%r10,1),%xmm1
    2036:	66 44 0f 6f 05 00 00 	movdqa 0x0(%rip),%xmm8        # 203f <aesni_xts_decrypt+0x7f>
    203d:	00 00 
    203f:	66 44 0f 6f fa       	movdqa %xmm2,%xmm15
    2044:	66 44 0f 70 ca 5f    	pshufd $0x5f,%xmm2,%xmm9
    204a:	66 0f ef c8          	pxor   %xmm0,%xmm1
    204e:	66 45 0f 6f f1       	movdqa %xmm9,%xmm14
    2053:	66 45 0f fe c9       	paddd  %xmm9,%xmm9
    2058:	66 45 0f 6f d7       	movdqa %xmm15,%xmm10
    205d:	66 41 0f 72 e6 1f    	psrad  $0x1f,%xmm14
    2063:	66 45 0f d4 ff       	paddq  %xmm15,%xmm15
    2068:	66 45 0f db f0       	pand   %xmm8,%xmm14
    206d:	66 44 0f ef d0       	pxor   %xmm0,%xmm10
    2072:	66 45 0f ef fe       	pxor   %xmm14,%xmm15
    2077:	66 45 0f 6f f1       	movdqa %xmm9,%xmm14
    207c:	66 45 0f fe c9       	paddd  %xmm9,%xmm9
    2081:	66 45 0f 6f df       	movdqa %xmm15,%xmm11
    2086:	66 41 0f 72 e6 1f    	psrad  $0x1f,%xmm14
    208c:	66 45 0f d4 ff       	paddq  %xmm15,%xmm15
    2091:	66 45 0f db f0       	pand   %xmm8,%xmm14
    2096:	66 44 0f ef d8       	pxor   %xmm0,%xmm11
    209b:	66 45 0f ef fe       	pxor   %xmm14,%xmm15
    20a0:	66 45 0f 6f f1       	movdqa %xmm9,%xmm14
    20a5:	66 45 0f fe c9       	paddd  %xmm9,%xmm9
    20aa:	66 45 0f 6f e7       	movdqa %xmm15,%xmm12
    20af:	66 41 0f 72 e6 1f    	psrad  $0x1f,%xmm14
    20b5:	66 45 0f d4 ff       	paddq  %xmm15,%xmm15
    20ba:	66 45 0f db f0       	pand   %xmm8,%xmm14
    20bf:	66 44 0f ef e0       	pxor   %xmm0,%xmm12
    20c4:	66 45 0f ef fe       	pxor   %xmm14,%xmm15
    20c9:	66 45 0f 6f f1       	movdqa %xmm9,%xmm14
    20ce:	66 45 0f fe c9       	paddd  %xmm9,%xmm9
    20d3:	66 45 0f 6f ef       	movdqa %xmm15,%xmm13
    20d8:	66 41 0f 72 e6 1f    	psrad  $0x1f,%xmm14
    20de:	66 45 0f d4 ff       	paddq  %xmm15,%xmm15
    20e3:	66 45 0f db f0       	pand   %xmm8,%xmm14
    20e8:	66 44 0f ef e8       	pxor   %xmm0,%xmm13
    20ed:	66 45 0f ef fe       	pxor   %xmm14,%xmm15
    20f2:	66 45 0f 6f f7       	movdqa %xmm15,%xmm14
    20f7:	66 41 0f 72 e1 1f    	psrad  $0x1f,%xmm9
    20fd:	66 45 0f d4 ff       	paddq  %xmm15,%xmm15
    2102:	66 45 0f db c8       	pand   %xmm8,%xmm9
    2107:	66 44 0f ef f0       	pxor   %xmm0,%xmm14
    210c:	66 45 0f ef f9       	pxor   %xmm9,%xmm15
    2111:	0f 29 4c 24 60       	movaps %xmm1,0x60(%rsp)
    2116:	48 83 ea 60          	sub    $0x60,%rdx
    211a:	0f 82 40 03 00 00    	jb     2460 <aesni_xts_decrypt+0x4a0>
    2120:	b8 70 00 00 00       	mov    $0x70,%eax
    2125:	4a 8d 4c 15 20       	lea    0x20(%rbp,%r10,1),%rcx
    212a:	4c 29 d0             	sub    %r10,%rax
    212d:	0f 10 4d 10          	movups 0x10(%rbp),%xmm1
    2131:	49 89 c2             	mov    %rax,%r10
    2134:	4c 8d 05 00 00 00 00 	lea    0x0(%rip),%r8        # 213b <aesni_xts_decrypt+0x17b>
    213b:	eb 03                	jmp    2140 <aesni_xts_decrypt+0x180>
    213d:	0f 1f 00             	nopl   (%rax)
    2140:	f3 0f 6f 17          	movdqu (%rdi),%xmm2
    2144:	66 44 0f 6f c0       	movdqa %xmm0,%xmm8
    2149:	f3 0f 6f 5f 10       	movdqu 0x10(%rdi),%xmm3
    214e:	66 41 0f ef d2       	pxor   %xmm10,%xmm2
    2153:	f3 0f 6f 67 20       	movdqu 0x20(%rdi),%xmm4
    2158:	66 41 0f ef db       	pxor   %xmm11,%xmm3
    215d:	66 0f 38 de d1       	aesdec %xmm1,%xmm2
    2162:	f3 0f 6f 6f 30       	movdqu 0x30(%rdi),%xmm5
    2167:	66 41 0f ef e4       	pxor   %xmm12,%xmm4
    216c:	66 0f 38 de d9       	aesdec %xmm1,%xmm3
    2171:	f3 0f 6f 77 40       	movdqu 0x40(%rdi),%xmm6
    2176:	66 41 0f ef ed       	pxor   %xmm13,%xmm5
    217b:	66 0f 38 de e1       	aesdec %xmm1,%xmm4
    2180:	f3 0f 6f 7f 50       	movdqu 0x50(%rdi),%xmm7
    2185:	66 45 0f ef c7       	pxor   %xmm15,%xmm8
    218a:	66 44 0f 6f 4c 24 60 	movdqa 0x60(%rsp),%xmm9
    2191:	66 41 0f ef f6       	pxor   %xmm14,%xmm6
    2196:	66 0f 38 de e9       	aesdec %xmm1,%xmm5
    219b:	0f 10 45 20          	movups 0x20(%rbp),%xmm0
    219f:	48 8d 7f 60          	lea    0x60(%rdi),%rdi
    21a3:	66 41 0f ef f8       	pxor   %xmm8,%xmm7
    21a8:	66 45 0f ef d1       	pxor   %xmm9,%xmm10
    21ad:	66 0f 38 de f1       	aesdec %xmm1,%xmm6
    21b2:	66 45 0f ef d9       	pxor   %xmm9,%xmm11
    21b7:	66 44 0f 7f 14 24    	movdqa %xmm10,(%rsp)
    21bd:	66 0f 38 de f9       	aesdec %xmm1,%xmm7
    21c2:	0f 10 4d 30          	movups 0x30(%rbp),%xmm1
    21c6:	66 45 0f ef e1       	pxor   %xmm9,%xmm12
    21cb:	66 0f 38 de d0       	aesdec %xmm0,%xmm2
    21d0:	66 45 0f ef e9       	pxor   %xmm9,%xmm13
    21d5:	66 44 0f 7f 5c 24 10 	movdqa %xmm11,0x10(%rsp)
    21dc:	66 0f 38 de d8       	aesdec %xmm0,%xmm3
    21e1:	66 45 0f ef f1       	pxor   %xmm9,%xmm14
    21e6:	66 44 0f 7f 64 24 20 	movdqa %xmm12,0x20(%rsp)
    21ed:	66 0f 38 de e0       	aesdec %xmm0,%xmm4
    21f2:	66 0f 38 de e8       	aesdec %xmm0,%xmm5
    21f7:	66 45 0f ef c1       	pxor   %xmm9,%xmm8
    21fc:	66 44 0f 7f 74 24 40 	movdqa %xmm14,0x40(%rsp)
    2203:	66 0f 38 de f0       	aesdec %xmm0,%xmm6
    2208:	66 0f 38 de f8       	aesdec %xmm0,%xmm7
    220d:	0f 10 45 40          	movups 0x40(%rbp),%xmm0
    2211:	66 44 0f 7f 44 24 50 	movdqa %xmm8,0x50(%rsp)
    2218:	66 45 0f 70 cf 5f    	pshufd $0x5f,%xmm15,%xmm9
    221e:	eb 00                	jmp    2220 <aesni_xts_decrypt+0x260>
    2220:	66 0f 38 de d1       	aesdec %xmm1,%xmm2
    2225:	66 0f 38 de d9       	aesdec %xmm1,%xmm3
    222a:	66 0f 38 de e1       	aesdec %xmm1,%xmm4
    222f:	66 0f 38 de e9       	aesdec %xmm1,%xmm5
    2234:	66 0f 38 de f1       	aesdec %xmm1,%xmm6
    2239:	66 0f 38 de f9       	aesdec %xmm1,%xmm7
    223e:	0f 10 4c 01 c0       	movups -0x40(%rcx,%rax,1),%xmm1
    2243:	48 83 c0 20          	add    $0x20,%rax
    2247:	66 0f 38 de d0       	aesdec %xmm0,%xmm2
    224c:	66 0f 38 de d8       	aesdec %xmm0,%xmm3
    2251:	66 0f 38 de e0       	aesdec %xmm0,%xmm4
    2256:	66 0f 38 de e8       	aesdec %xmm0,%xmm5
    225b:	66 0f 38 de f0       	aesdec %xmm0,%xmm6
    2260:	66 0f 38 de f8       	aesdec %xmm0,%xmm7
    2265:	0f 10 44 01 b0       	movups -0x50(%rcx,%rax,1),%xmm0
    226a:	75 b4                	jne    2220 <aesni_xts_decrypt+0x260>
    226c:	66 45 0f 6f 00       	movdqa (%r8),%xmm8
    2271:	66 45 0f 6f f1       	movdqa %xmm9,%xmm14
    2276:	66 45 0f fe c9       	paddd  %xmm9,%xmm9
    227b:	66 0f 38 de d1       	aesdec %xmm1,%xmm2
    2280:	66 45 0f d4 ff       	paddq  %xmm15,%xmm15
    2285:	66 41 0f 72 e6 1f    	psrad  $0x1f,%xmm14
    228b:	66 0f 38 de d9       	aesdec %xmm1,%xmm3
    2290:	66 45 0f db f0       	pand   %xmm8,%xmm14
    2295:	44 0f 10 55 00       	movups 0x0(%rbp),%xmm10
    229a:	66 0f 38 de e1       	aesdec %xmm1,%xmm4
    229f:	66 0f 38 de e9       	aesdec %xmm1,%xmm5
    22a4:	66 0f 38 de f1       	aesdec %xmm1,%xmm6
    22a9:	66 45 0f ef fe       	pxor   %xmm14,%xmm15
    22ae:	45 0f 28 da          	movaps %xmm10,%xmm11
    22b2:	66 0f 38 de f9       	aesdec %xmm1,%xmm7
    22b7:	0f 10 49 c0          	movups -0x40(%rcx),%xmm1
    22bb:	66 45 0f 6f f1       	movdqa %xmm9,%xmm14
    22c0:	66 0f 38 de d0       	aesdec %xmm0,%xmm2
    22c5:	66 45 0f fe c9       	paddd  %xmm9,%xmm9
    22ca:	66 45 0f ef d7       	pxor   %xmm15,%xmm10
    22cf:	66 0f 38 de d8       	aesdec %xmm0,%xmm3
    22d4:	66 41 0f 72 e6 1f    	psrad  $0x1f,%xmm14
    22da:	66 45 0f d4 ff       	paddq  %xmm15,%xmm15
    22df:	66 0f 38 de e0       	aesdec %xmm0,%xmm4
    22e4:	66 0f 38 de e8       	aesdec %xmm0,%xmm5
    22e9:	66 45 0f db f0       	pand   %xmm8,%xmm14
    22ee:	45 0f 28 e3          	movaps %xmm11,%xmm12
    22f2:	66 0f 38 de f0       	aesdec %xmm0,%xmm6
    22f7:	66 45 0f ef fe       	pxor   %xmm14,%xmm15
    22fc:	66 45 0f 6f f1       	movdqa %xmm9,%xmm14
    2301:	66 0f 38 de f8       	aesdec %xmm0,%xmm7
    2306:	0f 10 41 d0          	movups -0x30(%rcx),%xmm0
    230a:	66 45 0f fe c9       	paddd  %xmm9,%xmm9
    230f:	66 0f 38 de d1       	aesdec %xmm1,%xmm2
    2314:	66 45 0f ef df       	pxor   %xmm15,%xmm11
    2319:	66 41 0f 72 e6 1f    	psrad  $0x1f,%xmm14
    231f:	66 0f 38 de d9       	aesdec %xmm1,%xmm3
    2324:	66 45 0f d4 ff       	paddq  %xmm15,%xmm15
    2329:	66 45 0f db f0       	pand   %xmm8,%xmm14
    232e:	66 0f 38 de e1       	aesdec %xmm1,%xmm4
    2333:	66 0f 38 de e9       	aesdec %xmm1,%xmm5
    2338:	66 44 0f 7f 6c 24 30 	movdqa %xmm13,0x30(%rsp)
    233f:	66 45 0f ef fe       	pxor   %xmm14,%xmm15
    2344:	66 0f 38 de f1       	aesdec %xmm1,%xmm6
    2349:	45 0f 28 ec          	movaps %xmm12,%xmm13
    234d:	66 45 0f 6f f1       	movdqa %xmm9,%xmm14
    2352:	66 0f 38 de f9       	aesdec %xmm1,%xmm7
    2357:	0f 10 49 e0          	movups -0x20(%rcx),%xmm1
    235b:	66 45 0f fe c9       	paddd  %xmm9,%xmm9
    2360:	66 0f 38 de d0       	aesdec %xmm0,%xmm2
    2365:	66 45 0f ef e7       	pxor   %xmm15,%xmm12
    236a:	66 41 0f 72 e6 1f    	psrad  $0x1f,%xmm14
    2370:	66 0f 38 de d8       	aesdec %xmm0,%xmm3
    2375:	66 45 0f d4 ff       	paddq  %xmm15,%xmm15
    237a:	66 45 0f db f0       	pand   %xmm8,%xmm14
    237f:	66 0f 38 de e0       	aesdec %xmm0,%xmm4
    2384:	66 0f 38 de e8       	aesdec %xmm0,%xmm5
    2389:	66 0f 38 de f0       	aesdec %xmm0,%xmm6
    238e:	66 45 0f ef fe       	pxor   %xmm14,%xmm15
    2393:	45 0f 28 f5          	movaps %xmm13,%xmm14
    2397:	66 0f 38 de f8       	aesdec %xmm0,%xmm7
    239c:	66 41 0f 6f c1       	movdqa %xmm9,%xmm0
    23a1:	66 45 0f fe c9       	paddd  %xmm9,%xmm9
    23a6:	66 0f 38 de d1       	aesdec %xmm1,%xmm2
    23ab:	66 45 0f ef ef       	pxor   %xmm15,%xmm13
    23b0:	66 0f 72 e0 1f       	psrad  $0x1f,%xmm0
    23b5:	66 0f 38 de d9       	aesdec %xmm1,%xmm3
    23ba:	66 45 0f d4 ff       	paddq  %xmm15,%xmm15
    23bf:	66 41 0f db c0       	pand   %xmm8,%xmm0
    23c4:	66 0f 38 de e1       	aesdec %xmm1,%xmm4
    23c9:	66 0f 38 de e9       	aesdec %xmm1,%xmm5
    23ce:	66 44 0f ef f8       	pxor   %xmm0,%xmm15
    23d3:	0f 10 45 00          	movups 0x0(%rbp),%xmm0
    23d7:	66 0f 38 de f1       	aesdec %xmm1,%xmm6
    23dc:	66 0f 38 de f9       	aesdec %xmm1,%xmm7
    23e1:	0f 10 4d 10          	movups 0x10(%rbp),%xmm1
    23e5:	66 45 0f ef f7       	pxor   %xmm15,%xmm14
    23ea:	66 0f 38 df 54 24 00 	aesdeclast 0x0(%rsp),%xmm2
    23f1:	66 41 0f 72 e1 1f    	psrad  $0x1f,%xmm9
    23f7:	66 45 0f d4 ff       	paddq  %xmm15,%xmm15
    23fc:	66 0f 38 df 5c 24 10 	aesdeclast 0x10(%rsp),%xmm3
    2403:	66 0f 38 df 64 24 20 	aesdeclast 0x20(%rsp),%xmm4
    240a:	66 45 0f db c8       	pand   %xmm8,%xmm9
    240f:	4c 89 d0             	mov    %r10,%rax
    2412:	66 0f 38 df 6c 24 30 	aesdeclast 0x30(%rsp),%xmm5
    2419:	66 0f 38 df 74 24 40 	aesdeclast 0x40(%rsp),%xmm6
    2420:	66 0f 38 df 7c 24 50 	aesdeclast 0x50(%rsp),%xmm7
    2427:	66 45 0f ef f9       	pxor   %xmm9,%xmm15
    242c:	48 8d 76 60          	lea    0x60(%rsi),%rsi
    2430:	0f 11 56 a0          	movups %xmm2,-0x60(%rsi)
    2434:	0f 11 5e b0          	movups %xmm3,-0x50(%rsi)
    2438:	0f 11 66 c0          	movups %xmm4,-0x40(%rsi)
    243c:	0f 11 6e d0          	movups %xmm5,-0x30(%rsi)
    2440:	0f 11 76 e0          	movups %xmm6,-0x20(%rsi)
    2444:	0f 11 7e f0          	movups %xmm7,-0x10(%rsi)
    2448:	48 83 ea 60          	sub    $0x60,%rdx
    244c:	0f 83 ee fc ff ff    	jae    2140 <aesni_xts_decrypt+0x180>
    2452:	b8 70 00 00 00       	mov    $0x70,%eax
    2457:	44 29 d0             	sub    %r10d,%eax
    245a:	48 89 e9             	mov    %rbp,%rcx
    245d:	c1 e8 04             	shr    $0x4,%eax
    2460:	41 89 c2             	mov    %eax,%r10d
    2463:	66 44 0f ef d0       	pxor   %xmm0,%xmm10
    2468:	66 44 0f ef d8       	pxor   %xmm0,%xmm11
    246d:	48 83 c2 60          	add    $0x60,%rdx
    2471:	0f 84 19 02 00 00    	je     2690 <aesni_xts_decrypt+0x6d0>
    2477:	66 44 0f ef e0       	pxor   %xmm0,%xmm12
    247c:	48 83 fa 20          	cmp    $0x20,%rdx
    2480:	0f 82 ca 00 00 00    	jb     2550 <aesni_xts_decrypt+0x590>
    2486:	66 44 0f ef e8       	pxor   %xmm0,%xmm13
    248b:	0f 84 0f 01 00 00    	je     25a0 <aesni_xts_decrypt+0x5e0>
    2491:	66 44 0f ef f0       	pxor   %xmm0,%xmm14
    2496:	48 83 fa 40          	cmp    $0x40,%rdx
    249a:	0f 82 40 01 00 00    	jb     25e0 <aesni_xts_decrypt+0x620>
    24a0:	0f 84 8a 01 00 00    	je     2630 <aesni_xts_decrypt+0x670>
    24a6:	f3 0f 6f 17          	movdqu (%rdi),%xmm2
    24aa:	f3 0f 6f 5f 10       	movdqu 0x10(%rdi),%xmm3
    24af:	f3 0f 6f 67 20       	movdqu 0x20(%rdi),%xmm4
    24b4:	66 41 0f ef d2       	pxor   %xmm10,%xmm2
    24b9:	f3 0f 6f 6f 30       	movdqu 0x30(%rdi),%xmm5
    24be:	66 41 0f ef db       	pxor   %xmm11,%xmm3
    24c3:	f3 0f 6f 77 40       	movdqu 0x40(%rdi),%xmm6
    24c8:	48 8d 7f 50          	lea    0x50(%rdi),%rdi
    24cc:	66 41 0f ef e4       	pxor   %xmm12,%xmm4
    24d1:	66 41 0f ef ed       	pxor   %xmm13,%xmm5
    24d6:	66 41 0f ef f6       	pxor   %xmm14,%xmm6
    24db:	e8 60 df ff ff       	call   440 <_aesni_decrypt6>
    24e0:	41 0f 57 d2          	xorps  %xmm10,%xmm2
    24e4:	41 0f 57 db          	xorps  %xmm11,%xmm3
    24e8:	41 0f 57 e4          	xorps  %xmm12,%xmm4
    24ec:	f3 0f 7f 16          	movdqu %xmm2,(%rsi)
    24f0:	41 0f 57 ed          	xorps  %xmm13,%xmm5
    24f4:	f3 0f 7f 5e 10       	movdqu %xmm3,0x10(%rsi)
    24f9:	41 0f 57 f6          	xorps  %xmm14,%xmm6
    24fd:	f3 0f 7f 66 20       	movdqu %xmm4,0x20(%rsi)
    2502:	66 45 0f ef f6       	pxor   %xmm14,%xmm14
    2507:	f3 0f 7f 6e 30       	movdqu %xmm5,0x30(%rsi)
    250c:	66 45 0f 66 f7       	pcmpgtd %xmm15,%xmm14
    2511:	f3 0f 7f 76 40       	movdqu %xmm6,0x40(%rsi)
    2516:	48 8d 76 50          	lea    0x50(%rsi),%rsi
    251a:	66 45 0f 70 de 13    	pshufd $0x13,%xmm14,%xmm11
    2520:	49 83 e1 0f          	and    $0xf,%r9
    2524:	0f 84 fe 01 00 00    	je     2728 <aesni_xts_decrypt+0x768>
    252a:	66 45 0f 6f d7       	movdqa %xmm15,%xmm10
    252f:	66 45 0f d4 ff       	paddq  %xmm15,%xmm15
    2534:	66 45 0f db d8       	pand   %xmm8,%xmm11
    2539:	66 45 0f ef df       	pxor   %xmm15,%xmm11
    253e:	e9 57 01 00 00       	jmp    269a <aesni_xts_decrypt+0x6da>
    2543:	66 66 2e 0f 1f 84 00 	data16 cs nopw 0x0(%rax,%rax,1)
    254a:	00 00 00 00 
    254e:	66 90                	xchg   %ax,%ax
    2550:	0f 10 17             	movups (%rdi),%xmm2
    2553:	48 8d 7f 10          	lea    0x10(%rdi),%rdi
    2557:	41 0f 57 d2          	xorps  %xmm10,%xmm2
    255b:	0f 10 01             	movups (%rcx),%xmm0
    255e:	0f 10 49 10          	movups 0x10(%rcx),%xmm1
    2562:	48 8d 49 20          	lea    0x20(%rcx),%rcx
    2566:	0f 57 d0             	xorps  %xmm0,%xmm2
    2569:	66 0f 38 de d1       	aesdec %xmm1,%xmm2
    256e:	ff c8                	dec    %eax
    2570:	0f 10 09             	movups (%rcx),%xmm1
    2573:	48 8d 49 10          	lea    0x10(%rcx),%rcx
    2577:	75 f0                	jne    2569 <aesni_xts_decrypt+0x5a9>
    2579:	66 0f 38 df d1       	aesdeclast %xmm1,%xmm2
    257e:	41 0f 57 d2          	xorps  %xmm10,%xmm2
    2582:	66 45 0f 6f d3       	movdqa %xmm11,%xmm10
    2587:	0f 11 16             	movups %xmm2,(%rsi)
    258a:	66 45 0f 6f dc       	movdqa %xmm12,%xmm11
    258f:	48 8d 76 10          	lea    0x10(%rsi),%rsi
    2593:	e9 f8 00 00 00       	jmp    2690 <aesni_xts_decrypt+0x6d0>
    2598:	0f 1f 84 00 00 00 00 	nopl   0x0(%rax,%rax,1)
    259f:	00 
    25a0:	0f 10 17             	movups (%rdi),%xmm2
    25a3:	0f 10 5f 10          	movups 0x10(%rdi),%xmm3
    25a7:	48 8d 7f 20          	lea    0x20(%rdi),%rdi
    25ab:	41 0f 57 d2          	xorps  %xmm10,%xmm2
    25af:	41 0f 57 db          	xorps  %xmm11,%xmm3
    25b3:	e8 48 db ff ff       	call   100 <_aesni_decrypt2>
    25b8:	41 0f 57 d2          	xorps  %xmm10,%xmm2
    25bc:	66 45 0f 6f d4       	movdqa %xmm12,%xmm10
    25c1:	41 0f 57 db          	xorps  %xmm11,%xmm3
    25c5:	66 45 0f 6f dd       	movdqa %xmm13,%xmm11
    25ca:	0f 11 16             	movups %xmm2,(%rsi)
    25cd:	0f 11 5e 10          	movups %xmm3,0x10(%rsi)
    25d1:	48 8d 76 20          	lea    0x20(%rsi),%rsi
    25d5:	e9 b6 00 00 00       	jmp    2690 <aesni_xts_decrypt+0x6d0>
    25da:	66 0f 1f 44 00 00    	nopw   0x0(%rax,%rax,1)
    25e0:	0f 10 17             	movups (%rdi),%xmm2
    25e3:	0f 10 5f 10          	movups 0x10(%rdi),%xmm3
    25e7:	0f 10 67 20          	movups 0x20(%rdi),%xmm4
    25eb:	48 8d 7f 30          	lea    0x30(%rdi),%rdi
    25ef:	41 0f 57 d2          	xorps  %xmm10,%xmm2
    25f3:	41 0f 57 db          	xorps  %xmm11,%xmm3
    25f7:	41 0f 57 e4          	xorps  %xmm12,%xmm4
    25fb:	e8 d0 db ff ff       	call   1d0 <_aesni_decrypt3>
    2600:	41 0f 57 d2          	xorps  %xmm10,%xmm2
    2604:	66 45 0f 6f d5       	movdqa %xmm13,%xmm10
    2609:	41 0f 57 db          	xorps  %xmm11,%xmm3
    260d:	66 45 0f 6f de       	movdqa %xmm14,%xmm11
    2612:	41 0f 57 e4          	xorps  %xmm12,%xmm4
    2616:	0f 11 16             	movups %xmm2,(%rsi)
    2619:	0f 11 5e 10          	movups %xmm3,0x10(%rsi)
    261d:	0f 11 66 20          	movups %xmm4,0x20(%rsi)
    2621:	48 8d 76 30          	lea    0x30(%rsi),%rsi
    2625:	eb 69                	jmp    2690 <aesni_xts_decrypt+0x6d0>
    2627:	66 0f 1f 84 00 00 00 	nopw   0x0(%rax,%rax,1)
    262e:	00 00 
    2630:	0f 10 17             	movups (%rdi),%xmm2
    2633:	0f 10 5f 10          	movups 0x10(%rdi),%xmm3
    2637:	0f 10 67 20          	movups 0x20(%rdi),%xmm4
    263b:	41 0f 57 d2          	xorps  %xmm10,%xmm2
    263f:	0f 10 6f 30          	movups 0x30(%rdi),%xmm5
    2643:	48 8d 7f 40          	lea    0x40(%rdi),%rdi
    2647:	41 0f 57 db          	xorps  %xmm11,%xmm3
    264b:	41 0f 57 e4          	xorps  %xmm12,%xmm4
    264f:	41 0f 57 ed          	xorps  %xmm13,%xmm5
    2653:	e8 78 dc ff ff       	call   2d0 <_aesni_decrypt4>
    2658:	66 41 0f ef d2       	pxor   %xmm10,%xmm2
    265d:	66 45 0f 6f d6       	movdqa %xmm14,%xmm10
    2662:	66 41 0f ef db       	pxor   %xmm11,%xmm3
    2667:	66 45 0f 6f df       	movdqa %xmm15,%xmm11
    266c:	66 41 0f ef e4       	pxor   %xmm12,%xmm4
    2671:	f3 0f 7f 16          	movdqu %xmm2,(%rsi)
    2675:	66 41 0f ef ed       	pxor   %xmm13,%xmm5
    267a:	f3 0f 7f 5e 10       	movdqu %xmm3,0x10(%rsi)
    267f:	f3 0f 7f 66 20       	movdqu %xmm4,0x20(%rsi)
    2684:	f3 0f 7f 6e 30       	movdqu %xmm5,0x30(%rsi)
    2689:	48 8d 76 40          	lea    0x40(%rsi),%rsi
    268d:	eb 01                	jmp    2690 <aesni_xts_decrypt+0x6d0>
    268f:	90                   	nop
    2690:	49 83 e1 0f          	and    $0xf,%r9
    2694:	0f 84 8e 00 00 00    	je     2728 <aesni_xts_decrypt+0x768>
    269a:	4c 89 ca             	mov    %r9,%rdx
    269d:	48 89 e9             	mov    %rbp,%rcx
    26a0:	44 89 d0             	mov    %r10d,%eax
    26a3:	0f 10 17             	movups (%rdi),%xmm2
    26a6:	41 0f 57 d3          	xorps  %xmm11,%xmm2
    26aa:	0f 10 01             	movups (%rcx),%xmm0
    26ad:	0f 10 49 10          	movups 0x10(%rcx),%xmm1
    26b1:	48 8d 49 20          	lea    0x20(%rcx),%rcx
    26b5:	0f 57 d0             	xorps  %xmm0,%xmm2
    26b8:	66 0f 38 de d1       	aesdec %xmm1,%xmm2
    26bd:	ff c8                	dec    %eax
    26bf:	0f 10 09             	movups (%rcx),%xmm1
    26c2:	48 8d 49 10          	lea    0x10(%rcx),%rcx
    26c6:	75 f0                	jne    26b8 <aesni_xts_decrypt+0x6f8>
    26c8:	66 0f 38 df d1       	aesdeclast %xmm1,%xmm2
    26cd:	41 0f 57 d3          	xorps  %xmm11,%xmm2
    26d1:	0f 11 16             	movups %xmm2,(%rsi)
    26d4:	0f b6 47 10          	movzbl 0x10(%rdi),%eax
    26d8:	0f b6 0e             	movzbl (%rsi),%ecx
    26db:	48 8d 7f 01          	lea    0x1(%rdi),%rdi
    26df:	88 06                	mov    %al,(%rsi)
    26e1:	88 4e 10             	mov    %cl,0x10(%rsi)
    26e4:	48 8d 76 01          	lea    0x1(%rsi),%rsi
    26e8:	48 83 ea 01          	sub    $0x1,%rdx
    26ec:	75 e6                	jne    26d4 <aesni_xts_decrypt+0x714>
    26ee:	4c 29 ce             	sub    %r9,%rsi
    26f1:	48 89 e9             	mov    %rbp,%rcx
    26f4:	44 89 d0             	mov    %r10d,%eax
    26f7:	0f 10 16             	movups (%rsi),%xmm2
    26fa:	41 0f 57 d2          	xorps  %xmm10,%xmm2
    26fe:	0f 10 01             	movups (%rcx),%xmm0
    2701:	0f 10 49 10          	movups 0x10(%rcx),%xmm1
    2705:	48 8d 49 20          	lea    0x20(%rcx),%rcx
    2709:	0f 57 d0             	xorps  %xmm0,%xmm2
    270c:	66 0f 38 de d1       	aesdec %xmm1,%xmm2
    2711:	ff c8                	dec    %eax
    2713:	0f 10 09             	movups (%rcx),%xmm1
    2716:	48 8d 49 10          	lea    0x10(%rcx),%rcx
    271a:	75 f0                	jne    270c <aesni_xts_decrypt+0x74c>
    271c:	66 0f 38 df d1       	aesdeclast %xmm1,%xmm2
    2721:	41 0f 57 d2          	xorps  %xmm10,%xmm2
    2725:	0f 11 16             	movups %xmm2,(%rsi)
    2728:	0f 57 c0             	xorps  %xmm0,%xmm0
    272b:	66 0f ef c9          	pxor   %xmm1,%xmm1
    272f:	66 0f ef d2          	pxor   %xmm2,%xmm2
    2733:	66 0f ef db          	pxor   %xmm3,%xmm3
    2737:	66 0f ef e4          	pxor   %xmm4,%xmm4
    273b:	66 0f ef ed          	pxor   %xmm5,%xmm5
    273f:	66 0f ef f6          	pxor   %xmm6,%xmm6
    2743:	66 0f ef ff          	pxor   %xmm7,%xmm7
    2747:	0f 29 04 24          	movaps %xmm0,(%rsp)
    274b:	66 45 0f ef c0       	pxor   %xmm8,%xmm8
    2750:	0f 29 44 24 10       	movaps %xmm0,0x10(%rsp)
    2755:	66 45 0f ef c9       	pxor   %xmm9,%xmm9
    275a:	0f 29 44 24 20       	movaps %xmm0,0x20(%rsp)
    275f:	66 45 0f ef d2       	pxor   %xmm10,%xmm10
    2764:	0f 29 44 24 30       	movaps %xmm0,0x30(%rsp)
    2769:	66 45 0f ef db       	pxor   %xmm11,%xmm11
    276e:	0f 29 44 24 40       	movaps %xmm0,0x40(%rsp)
    2773:	66 45 0f ef e4       	pxor   %xmm12,%xmm12
    2778:	0f 29 44 24 50       	movaps %xmm0,0x50(%rsp)
    277d:	66 45 0f ef ed       	pxor   %xmm13,%xmm13
    2782:	0f 29 44 24 60       	movaps %xmm0,0x60(%rsp)
    2787:	66 45 0f ef f6       	pxor   %xmm14,%xmm14
    278c:	66 45 0f ef ff       	pxor   %xmm15,%xmm15
    2791:	49 8b 6b f8          	mov    -0x8(%r11),%rbp
    2795:	49 8d 23             	lea    (%r11),%rsp
    2798:	f3 c3                	repz ret 
    279a:	66 0f 1f 44 00 00    	nopw   0x0(%rax,%rax,1)

00000000000027a0 <aesni_ocb_encrypt>:
    27a0:	f3 0f 1e fa          	endbr64 
    27a4:	48 8d 04 24          	lea    (%rsp),%rax
    27a8:	53                   	push   %rbx
    27a9:	55                   	push   %rbp
    27aa:	41 54                	push   %r12
    27ac:	41 55                	push   %r13
    27ae:	41 56                	push   %r14
    27b0:	48 8b 58 08          	mov    0x8(%rax),%rbx
    27b4:	48 8b 68 10          	mov    0x10(%rax),%rbp
    27b8:	44 8b 91 f0 00 00 00 	mov    0xf0(%rcx),%r10d
    27bf:	49 89 cb             	mov    %rcx,%r11
    27c2:	41 c1 e2 04          	shl    $0x4,%r10d
    27c6:	44 0f 10 09          	movups (%rcx),%xmm9
    27ca:	42 0f 10 4c 11 10    	movups 0x10(%rcx,%r10,1),%xmm1
    27d0:	f3 45 0f 6f 39       	movdqu (%r9),%xmm15
    27d5:	66 44 0f ef c9       	pxor   %xmm1,%xmm9
    27da:	66 44 0f ef f9       	pxor   %xmm1,%xmm15
    27df:	b8 30 00 00 00       	mov    $0x30,%eax
    27e4:	4b 8d 4c 13 20       	lea    0x20(%r11,%r10,1),%rcx
    27e9:	41 0f 10 4b 10       	movups 0x10(%r11),%xmm1
    27ee:	4c 29 d0             	sub    %r10,%rax
    27f1:	49 89 c2             	mov    %rax,%r10
    27f4:	f3 44 0f 6f 13       	movdqu (%rbx),%xmm10
    27f9:	f3 44 0f 6f 45 00    	movdqu 0x0(%rbp),%xmm8
    27ff:	49 f7 c0 01 00 00 00 	test   $0x1,%r8
    2806:	75 35                	jne    283d <aesni_ocb_encrypt+0x9d>
    2808:	4d 0f bc e0          	bsf    %r8,%r12
    280c:	49 83 c0 01          	add    $0x1,%r8
    2810:	49 c1 e4 04          	shl    $0x4,%r12
    2814:	f3 42 0f 6f 3c 23    	movdqu (%rbx,%r12,1),%xmm7
    281a:	f3 0f 6f 17          	movdqu (%rdi),%xmm2
    281e:	48 8d 7f 10          	lea    0x10(%rdi),%rdi
    2822:	e8 d9 04 00 00       	call   2d00 <__ocb_encrypt1>
    2827:	66 44 0f 6f ff       	movdqa %xmm7,%xmm15
    282c:	0f 11 16             	movups %xmm2,(%rsi)
    282f:	48 8d 76 10          	lea    0x10(%rsi),%rsi
    2833:	48 83 ea 01          	sub    $0x1,%rdx
    2837:	0f 84 5c 01 00 00    	je     2999 <aesni_ocb_encrypt+0x1f9>
    283d:	4d 8d 60 01          	lea    0x1(%r8),%r12
    2841:	4d 8d 68 03          	lea    0x3(%r8),%r13
    2845:	4d 8d 70 05          	lea    0x5(%r8),%r14
    2849:	4d 8d 40 06          	lea    0x6(%r8),%r8
    284d:	4d 0f bc e4          	bsf    %r12,%r12
    2851:	4d 0f bc ed          	bsf    %r13,%r13
    2855:	4d 0f bc f6          	bsf    %r14,%r14
    2859:	49 c1 e4 04          	shl    $0x4,%r12
    285d:	49 c1 e5 04          	shl    $0x4,%r13
    2861:	49 c1 e6 04          	shl    $0x4,%r14
    2865:	48 83 ea 06          	sub    $0x6,%rdx
    2869:	72 5c                	jb     28c7 <aesni_ocb_encrypt+0x127>
    286b:	eb 13                	jmp    2880 <aesni_ocb_encrypt+0xe0>
    286d:	66 66 2e 0f 1f 84 00 	data16 cs nopw 0x0(%rax,%rax,1)
    2874:	00 00 00 00 
    2878:	0f 1f 84 00 00 00 00 	nopl   0x0(%rax,%rax,1)
    287f:	00 
    2880:	f3 0f 6f 17          	movdqu (%rdi),%xmm2
    2884:	f3 0f 6f 5f 10       	movdqu 0x10(%rdi),%xmm3
    2889:	f3 0f 6f 67 20       	movdqu 0x20(%rdi),%xmm4
    288e:	f3 0f 6f 6f 30       	movdqu 0x30(%rdi),%xmm5
    2893:	f3 0f 6f 77 40       	movdqu 0x40(%rdi),%xmm6
    2898:	f3 0f 6f 7f 50       	movdqu 0x50(%rdi),%xmm7
    289d:	48 8d 7f 60          	lea    0x60(%rdi),%rdi
    28a1:	e8 7a 01 00 00       	call   2a20 <__ocb_encrypt6>
    28a6:	0f 11 16             	movups %xmm2,(%rsi)
    28a9:	0f 11 5e 10          	movups %xmm3,0x10(%rsi)
    28ad:	0f 11 66 20          	movups %xmm4,0x20(%rsi)
    28b1:	0f 11 6e 30          	movups %xmm5,0x30(%rsi)
    28b5:	0f 11 76 40          	movups %xmm6,0x40(%rsi)
    28b9:	0f 11 7e 50          	movups %xmm7,0x50(%rsi)
    28bd:	48 8d 76 60          	lea    0x60(%rsi),%rsi
    28c1:	48 83 ea 06          	sub    $0x6,%rdx
    28c5:	73 b9                	jae    2880 <aesni_ocb_encrypt+0xe0>
    28c7:	48 83 c2 06          	add    $0x6,%rdx
    28cb:	0f 84 c8 00 00 00    	je     2999 <aesni_ocb_encrypt+0x1f9>
    28d1:	f3 0f 6f 17          	movdqu (%rdi),%xmm2
    28d5:	48 83 fa 02          	cmp    $0x2,%rdx
    28d9:	72 45                	jb     2920 <aesni_ocb_encrypt+0x180>
    28db:	f3 0f 6f 5f 10       	movdqu 0x10(%rdi),%xmm3
    28e0:	74 5e                	je     2940 <aesni_ocb_encrypt+0x1a0>
    28e2:	f3 0f 6f 67 20       	movdqu 0x20(%rdi),%xmm4
    28e7:	48 83 fa 04          	cmp    $0x4,%rdx
    28eb:	72 73                	jb     2960 <aesni_ocb_encrypt+0x1c0>
    28ed:	f3 0f 6f 6f 30       	movdqu 0x30(%rdi),%xmm5
    28f2:	0f 84 88 00 00 00    	je     2980 <aesni_ocb_encrypt+0x1e0>
    28f8:	f3 0f 6f 77 40       	movdqu 0x40(%rdi),%xmm6
    28fd:	66 0f ef ff          	pxor   %xmm7,%xmm7
    2901:	e8 1a 01 00 00       	call   2a20 <__ocb_encrypt6>
    2906:	66 45 0f 6f fe       	movdqa %xmm14,%xmm15
    290b:	0f 11 16             	movups %xmm2,(%rsi)
    290e:	0f 11 5e 10          	movups %xmm3,0x10(%rsi)
    2912:	0f 11 66 20          	movups %xmm4,0x20(%rsi)
    2916:	0f 11 6e 30          	movups %xmm5,0x30(%rsi)
    291a:	0f 11 76 40          	movups %xmm6,0x40(%rsi)
    291e:	eb 79                	jmp    2999 <aesni_ocb_encrypt+0x1f9>
    2920:	66 41 0f 6f fa       	movdqa %xmm10,%xmm7
    2925:	e8 d6 03 00 00       	call   2d00 <__ocb_encrypt1>
    292a:	66 44 0f 6f ff       	movdqa %xmm7,%xmm15
    292f:	0f 11 16             	movups %xmm2,(%rsi)
    2932:	eb 65                	jmp    2999 <aesni_ocb_encrypt+0x1f9>
    2934:	66 66 2e 0f 1f 84 00 	data16 cs nopw 0x0(%rax,%rax,1)
    293b:	00 00 00 00 
    293f:	90                   	nop
    2940:	66 0f ef e4          	pxor   %xmm4,%xmm4
    2944:	66 0f ef ed          	pxor   %xmm5,%xmm5
    2948:	e8 93 02 00 00       	call   2be0 <__ocb_encrypt4>
    294d:	66 45 0f 6f fb       	movdqa %xmm11,%xmm15
    2952:	0f 11 16             	movups %xmm2,(%rsi)
    2955:	0f 11 5e 10          	movups %xmm3,0x10(%rsi)
    2959:	eb 3e                	jmp    2999 <aesni_ocb_encrypt+0x1f9>
    295b:	0f 1f 44 00 00       	nopl   0x0(%rax,%rax,1)
    2960:	66 0f ef ed          	pxor   %xmm5,%xmm5
    2964:	e8 77 02 00 00       	call   2be0 <__ocb_encrypt4>
    2969:	66 45 0f 6f fc       	movdqa %xmm12,%xmm15
    296e:	0f 11 16             	movups %xmm2,(%rsi)
    2971:	0f 11 5e 10          	movups %xmm3,0x10(%rsi)
    2975:	0f 11 66 20          	movups %xmm4,0x20(%rsi)
    2979:	eb 1e                	jmp    2999 <aesni_ocb_encrypt+0x1f9>
    297b:	0f 1f 44 00 00       	nopl   0x0(%rax,%rax,1)
    2980:	e8 5b 02 00 00       	call   2be0 <__ocb_encrypt4>
    2985:	66 45 0f 6f fd       	movdqa %xmm13,%xmm15
    298a:	0f 11 16             	movups %xmm2,(%rsi)
    298d:	0f 11 5e 10          	movups %xmm3,0x10(%rsi)
    2991:	0f 11 66 20          	movups %xmm4,0x20(%rsi)
    2995:	0f 11 6e 30          	movups %xmm5,0x30(%rsi)
    2999:	66 44 0f ef f8       	pxor   %xmm0,%xmm15
    299e:	f3 44 0f 7f 45 00    	movdqu %xmm8,0x0(%rbp)
    29a4:	f3 45 0f 7f 39       	movdqu %xmm15,(%r9)
    29a9:	0f 57 c0             	xorps  %xmm0,%xmm0
    29ac:	66 0f ef c9          	pxor   %xmm1,%xmm1
    29b0:	66 0f ef d2          	pxor   %xmm2,%xmm2
    29b4:	66 0f ef db          	pxor   %xmm3,%xmm3
    29b8:	66 0f ef e4          	pxor   %xmm4,%xmm4
    29bc:	66 0f ef ed          	pxor   %xmm5,%xmm5
    29c0:	66 0f ef f6          	pxor   %xmm6,%xmm6
    29c4:	66 0f ef ff          	pxor   %xmm7,%xmm7
    29c8:	66 45 0f ef c0       	pxor   %xmm8,%xmm8
    29cd:	66 45 0f ef c9       	pxor   %xmm9,%xmm9
    29d2:	66 45 0f ef d2       	pxor   %xmm10,%xmm10
    29d7:	66 45 0f ef db       	pxor   %xmm11,%xmm11
    29dc:	66 45 0f ef e4       	pxor   %xmm12,%xmm12
    29e1:	66 45 0f ef ed       	pxor   %xmm13,%xmm13
    29e6:	66 45 0f ef f6       	pxor   %xmm14,%xmm14
    29eb:	66 45 0f ef ff       	pxor   %xmm15,%xmm15
    29f0:	48 8d 44 24 28       	lea    0x28(%rsp),%rax
    29f5:	4c 8b 70 d8          	mov    -0x28(%rax),%r14
    29f9:	4c 8b 68 e0          	mov    -0x20(%rax),%r13
    29fd:	4c 8b 60 e8          	mov    -0x18(%rax),%r12
    2a01:	48 8b 68 f0          	mov    -0x10(%rax),%rbp
    2a05:	48 8b 58 f8          	mov    -0x8(%rax),%rbx
    2a09:	48 8d 20             	lea    (%rax),%rsp
    2a0c:	f3 c3                	repz ret 
    2a0e:	66 66 2e 0f 1f 84 00 	data16 cs nopw 0x0(%rax,%rax,1)
    2a15:	00 00 00 00 
    2a19:	0f 1f 80 00 00 00 00 	nopl   0x0(%rax)

0000000000002a20 <__ocb_encrypt6>:
    2a20:	66 45 0f ef f9       	pxor   %xmm9,%xmm15
    2a25:	f3 46 0f 6f 1c 23    	movdqu (%rbx,%r12,1),%xmm11
    2a2b:	66 45 0f 6f e2       	movdqa %xmm10,%xmm12
    2a30:	f3 46 0f 6f 2c 2b    	movdqu (%rbx,%r13,1),%xmm13
    2a36:	66 45 0f 6f f2       	movdqa %xmm10,%xmm14
    2a3b:	66 45 0f ef d7       	pxor   %xmm15,%xmm10
    2a40:	f3 46 0f 6f 3c 33    	movdqu (%rbx,%r14,1),%xmm15
    2a46:	66 45 0f ef da       	pxor   %xmm10,%xmm11
    2a4b:	66 44 0f ef c2       	pxor   %xmm2,%xmm8
    2a50:	66 41 0f ef d2       	pxor   %xmm10,%xmm2
    2a55:	66 45 0f ef e3       	pxor   %xmm11,%xmm12
    2a5a:	66 44 0f ef c3       	pxor   %xmm3,%xmm8
    2a5f:	66 41 0f ef db       	pxor   %xmm11,%xmm3
    2a64:	66 45 0f ef ec       	pxor   %xmm12,%xmm13
    2a69:	66 44 0f ef c4       	pxor   %xmm4,%xmm8
    2a6e:	66 41 0f ef e4       	pxor   %xmm12,%xmm4
    2a73:	66 45 0f ef f5       	pxor   %xmm13,%xmm14
    2a78:	66 44 0f ef c5       	pxor   %xmm5,%xmm8
    2a7d:	66 41 0f ef ed       	pxor   %xmm13,%xmm5
    2a82:	66 45 0f ef fe       	pxor   %xmm14,%xmm15
    2a87:	66 44 0f ef c6       	pxor   %xmm6,%xmm8
    2a8c:	66 41 0f ef f6       	pxor   %xmm14,%xmm6
    2a91:	66 44 0f ef c7       	pxor   %xmm7,%xmm8
    2a96:	66 41 0f ef ff       	pxor   %xmm15,%xmm7
    2a9b:	41 0f 10 43 20       	movups 0x20(%r11),%xmm0
    2aa0:	4d 8d 60 01          	lea    0x1(%r8),%r12
    2aa4:	4d 8d 68 03          	lea    0x3(%r8),%r13
    2aa8:	4d 8d 70 05          	lea    0x5(%r8),%r14
    2aac:	49 83 c0 06          	add    $0x6,%r8
    2ab0:	66 45 0f ef d1       	pxor   %xmm9,%xmm10
    2ab5:	4d 0f bc e4          	bsf    %r12,%r12
    2ab9:	4d 0f bc ed          	bsf    %r13,%r13
    2abd:	4d 0f bc f6          	bsf    %r14,%r14
    2ac1:	66 0f 38 dc d1       	aesenc %xmm1,%xmm2
    2ac6:	66 0f 38 dc d9       	aesenc %xmm1,%xmm3
    2acb:	66 0f 38 dc e1       	aesenc %xmm1,%xmm4
    2ad0:	66 0f 38 dc e9       	aesenc %xmm1,%xmm5
    2ad5:	66 45 0f ef d9       	pxor   %xmm9,%xmm11
    2ada:	66 45 0f ef e1       	pxor   %xmm9,%xmm12
    2adf:	66 0f 38 dc f1       	aesenc %xmm1,%xmm6
    2ae4:	66 45 0f ef e9       	pxor   %xmm9,%xmm13
    2ae9:	66 45 0f ef f1       	pxor   %xmm9,%xmm14
    2aee:	66 0f 38 dc f9       	aesenc %xmm1,%xmm7
    2af3:	41 0f 10 4b 30       	movups 0x30(%r11),%xmm1
    2af8:	66 45 0f ef f9       	pxor   %xmm9,%xmm15
    2afd:	66 0f 38 dc d0       	aesenc %xmm0,%xmm2
    2b02:	66 0f 38 dc d8       	aesenc %xmm0,%xmm3
    2b07:	66 0f 38 dc e0       	aesenc %xmm0,%xmm4
    2b0c:	66 0f 38 dc e8       	aesenc %xmm0,%xmm5
    2b11:	66 0f 38 dc f0       	aesenc %xmm0,%xmm6
    2b16:	66 0f 38 dc f8       	aesenc %xmm0,%xmm7
    2b1b:	41 0f 10 43 40       	movups 0x40(%r11),%xmm0
    2b20:	49 c1 e4 04          	shl    $0x4,%r12
    2b24:	49 c1 e5 04          	shl    $0x4,%r13
    2b28:	eb 16                	jmp    2b40 <__ocb_encrypt6+0x120>
    2b2a:	66 66 2e 0f 1f 84 00 	data16 cs nopw 0x0(%rax,%rax,1)
    2b31:	00 00 00 00 
    2b35:	66 66 2e 0f 1f 84 00 	data16 cs nopw 0x0(%rax,%rax,1)
    2b3c:	00 00 00 00 
    2b40:	66 0f 38 dc d1       	aesenc %xmm1,%xmm2
    2b45:	66 0f 38 dc d9       	aesenc %xmm1,%xmm3
    2b4a:	66 0f 38 dc e1       	aesenc %xmm1,%xmm4
    2b4f:	66 0f 38 dc e9       	aesenc %xmm1,%xmm5
    2b54:	66 0f 38 dc f1       	aesenc %xmm1,%xmm6
    2b59:	66 0f 38 dc f9       	aesenc %xmm1,%xmm7
    2b5e:	0f 10 0c 01          	movups (%rcx,%rax,1),%xmm1
    2b62:	48 83 c0 20          	add    $0x20,%rax
    2b66:	66 0f 38 dc d0       	aesenc %xmm0,%xmm2
    2b6b:	66 0f 38 dc d8       	aesenc %xmm0,%xmm3
    2b70:	66 0f 38 dc e0       	aesenc %xmm0,%xmm4
    2b75:	66 0f 38 dc e8       	aesenc %xmm0,%xmm5
    2b7a:	66 0f 38 dc f0       	aesenc %xmm0,%xmm6
    2b7f:	66 0f 38 dc f8       	aesenc %xmm0,%xmm7
    2b84:	0f 10 44 01 f0       	movups -0x10(%rcx,%rax,1),%xmm0
    2b89:	75 b5                	jne    2b40 <__ocb_encrypt6+0x120>
    2b8b:	66 0f 38 dc d1       	aesenc %xmm1,%xmm2
    2b90:	66 0f 38 dc d9       	aesenc %xmm1,%xmm3
    2b95:	66 0f 38 dc e1       	aesenc %xmm1,%xmm4
    2b9a:	66 0f 38 dc e9       	aesenc %xmm1,%xmm5
    2b9f:	66 0f 38 dc f1       	aesenc %xmm1,%xmm6
    2ba4:	66 0f 38 dc f9       	aesenc %xmm1,%xmm7
    2ba9:	41 0f 10 4b 10       	movups 0x10(%r11),%xmm1
    2bae:	49 c1 e6 04          	shl    $0x4,%r14
    2bb2:	66 41 0f 38 dd d2    	aesenclast %xmm10,%xmm2
    2bb8:	f3 44 0f 6f 13       	movdqu (%rbx),%xmm10
    2bbd:	4c 89 d0             	mov    %r10,%rax
    2bc0:	66 41 0f 38 dd db    	aesenclast %xmm11,%xmm3
    2bc6:	66 41 0f 38 dd e4    	aesenclast %xmm12,%xmm4
    2bcc:	66 41 0f 38 dd ed    	aesenclast %xmm13,%xmm5
    2bd2:	66 41 0f 38 dd f6    	aesenclast %xmm14,%xmm6
    2bd8:	66 41 0f 38 dd ff    	aesenclast %xmm15,%xmm7
    2bde:	f3 c3                	repz ret 

0000000000002be0 <__ocb_encrypt4>:
    2be0:	66 45 0f ef f9       	pxor   %xmm9,%xmm15
    2be5:	f3 46 0f 6f 1c 23    	movdqu (%rbx,%r12,1),%xmm11
    2beb:	66 45 0f 6f e2       	movdqa %xmm10,%xmm12
    2bf0:	f3 46 0f 6f 2c 2b    	movdqu (%rbx,%r13,1),%xmm13
    2bf6:	66 45 0f ef d7       	pxor   %xmm15,%xmm10
    2bfb:	66 45 0f ef da       	pxor   %xmm10,%xmm11
    2c00:	66 44 0f ef c2       	pxor   %xmm2,%xmm8
    2c05:	66 41 0f ef d2       	pxor   %xmm10,%xmm2
    2c0a:	66 45 0f ef e3       	pxor   %xmm11,%xmm12
    2c0f:	66 44 0f ef c3       	pxor   %xmm3,%xmm8
    2c14:	66 41 0f ef db       	pxor   %xmm11,%xmm3
    2c19:	66 45 0f ef ec       	pxor   %xmm12,%xmm13
    2c1e:	66 44 0f ef c4       	pxor   %xmm4,%xmm8
    2c23:	66 41 0f ef e4       	pxor   %xmm12,%xmm4
    2c28:	66 44 0f ef c5       	pxor   %xmm5,%xmm8
    2c2d:	66 41 0f ef ed       	pxor   %xmm13,%xmm5
    2c32:	41 0f 10 43 20       	movups 0x20(%r11),%xmm0
    2c37:	66 45 0f ef d1       	pxor   %xmm9,%xmm10
    2c3c:	66 45 0f ef d9       	pxor   %xmm9,%xmm11
    2c41:	66 45 0f ef e1       	pxor   %xmm9,%xmm12
    2c46:	66 45 0f ef e9       	pxor   %xmm9,%xmm13
    2c4b:	66 0f 38 dc d1       	aesenc %xmm1,%xmm2
    2c50:	66 0f 38 dc d9       	aesenc %xmm1,%xmm3
    2c55:	66 0f 38 dc e1       	aesenc %xmm1,%xmm4
    2c5a:	66 0f 38 dc e9       	aesenc %xmm1,%xmm5
    2c5f:	41 0f 10 4b 30       	movups 0x30(%r11),%xmm1
    2c64:	66 0f 38 dc d0       	aesenc %xmm0,%xmm2
    2c69:	66 0f 38 dc d8       	aesenc %xmm0,%xmm3
    2c6e:	66 0f 38 dc e0       	aesenc %xmm0,%xmm4
    2c73:	66 0f 38 dc e8       	aesenc %xmm0,%xmm5
    2c78:	41 0f 10 43 40       	movups 0x40(%r11),%xmm0
    2c7d:	eb 01                	jmp    2c80 <__ocb_encrypt4+0xa0>
    2c7f:	90                   	nop
    2c80:	66 0f 38 dc d1       	aesenc %xmm1,%xmm2
    2c85:	66 0f 38 dc d9       	aesenc %xmm1,%xmm3
    2c8a:	66 0f 38 dc e1       	aesenc %xmm1,%xmm4
    2c8f:	66 0f 38 dc e9       	aesenc %xmm1,%xmm5
    2c94:	0f 10 0c 01          	movups (%rcx,%rax,1),%xmm1
    2c98:	48 83 c0 20          	add    $0x20,%rax
    2c9c:	66 0f 38 dc d0       	aesenc %xmm0,%xmm2
    2ca1:	66 0f 38 dc d8       	aesenc %xmm0,%xmm3
    2ca6:	66 0f 38 dc e0       	aesenc %xmm0,%xmm4
    2cab:	66 0f 38 dc e8       	aesenc %xmm0,%xmm5
    2cb0:	0f 10 44 01 f0       	movups -0x10(%rcx,%rax,1),%xmm0
    2cb5:	75 c9                	jne    2c80 <__ocb_encrypt4+0xa0>
    2cb7:	66 0f 38 dc d1       	aesenc %xmm1,%xmm2
    2cbc:	66 0f 38 dc d9       	aesenc %xmm1,%xmm3
    2cc1:	66 0f 38 dc e1       	aesenc %xmm1,%xmm4
    2cc6:	66 0f 38 dc e9       	aesenc %xmm1,%xmm5
    2ccb:	41 0f 10 4b 10       	movups 0x10(%r11),%xmm1
    2cd0:	4c 89 d0             	mov    %r10,%rax
    2cd3:	66 41 0f 38 dd d2    	aesenclast %xmm10,%xmm2
    2cd9:	66 41 0f 38 dd db    	aesenclast %xmm11,%xmm3
    2cdf:	66 41 0f 38 dd e4    	aesenclast %xmm12,%xmm4
    2ce5:	66 41 0f 38 dd ed    	aesenclast %xmm13,%xmm5
    2ceb:	f3 c3                	repz ret 
    2ced:	66 66 2e 0f 1f 84 00 	data16 cs nopw 0x0(%rax,%rax,1)
    2cf4:	00 00 00 00 
    2cf8:	0f 1f 84 00 00 00 00 	nopl   0x0(%rax,%rax,1)
    2cff:	00 

0000000000002d00 <__ocb_encrypt1>:
    2d00:	66 41 0f ef ff       	pxor   %xmm15,%xmm7
    2d05:	66 41 0f ef f9       	pxor   %xmm9,%xmm7
    2d0a:	66 44 0f ef c2       	pxor   %xmm2,%xmm8
    2d0f:	66 0f ef d7          	pxor   %xmm7,%xmm2
    2d13:	41 0f 10 43 20       	movups 0x20(%r11),%xmm0
    2d18:	66 0f 38 dc d1       	aesenc %xmm1,%xmm2
    2d1d:	41 0f 10 4b 30       	movups 0x30(%r11),%xmm1
    2d22:	66 41 0f ef f9       	pxor   %xmm9,%xmm7
    2d27:	66 0f 38 dc d0       	aesenc %xmm0,%xmm2
    2d2c:	41 0f 10 43 40       	movups 0x40(%r11),%xmm0
    2d31:	eb 0d                	jmp    2d40 <__ocb_encrypt1+0x40>
    2d33:	66 66 2e 0f 1f 84 00 	data16 cs nopw 0x0(%rax,%rax,1)
    2d3a:	00 00 00 00 
    2d3e:	66 90                	xchg   %ax,%ax
    2d40:	66 0f 38 dc d1       	aesenc %xmm1,%xmm2
    2d45:	0f 10 0c 01          	movups (%rcx,%rax,1),%xmm1
    2d49:	48 83 c0 20          	add    $0x20,%rax
    2d4d:	66 0f 38 dc d0       	aesenc %xmm0,%xmm2
    2d52:	0f 10 44 01 f0       	movups -0x10(%rcx,%rax,1),%xmm0
    2d57:	75 e7                	jne    2d40 <__ocb_encrypt1+0x40>
    2d59:	66 0f 38 dc d1       	aesenc %xmm1,%xmm2
    2d5e:	41 0f 10 4b 10       	movups 0x10(%r11),%xmm1
    2d63:	4c 89 d0             	mov    %r10,%rax
    2d66:	66 0f 38 dd d7       	aesenclast %xmm7,%xmm2
    2d6b:	f3 c3                	repz ret 
    2d6d:	66 66 2e 0f 1f 84 00 	data16 cs nopw 0x0(%rax,%rax,1)
    2d74:	00 00 00 00 
    2d78:	0f 1f 84 00 00 00 00 	nopl   0x0(%rax,%rax,1)
    2d7f:	00 

0000000000002d80 <aesni_ocb_decrypt>:
    2d80:	f3 0f 1e fa          	endbr64 
    2d84:	48 8d 04 24          	lea    (%rsp),%rax
    2d88:	53                   	push   %rbx
    2d89:	55                   	push   %rbp
    2d8a:	41 54                	push   %r12
    2d8c:	41 55                	push   %r13
    2d8e:	41 56                	push   %r14
    2d90:	48 8b 58 08          	mov    0x8(%rax),%rbx
    2d94:	48 8b 68 10          	mov    0x10(%rax),%rbp
    2d98:	44 8b 91 f0 00 00 00 	mov    0xf0(%rcx),%r10d
    2d9f:	49 89 cb             	mov    %rcx,%r11
    2da2:	41 c1 e2 04          	shl    $0x4,%r10d
    2da6:	44 0f 10 09          	movups (%rcx),%xmm9
    2daa:	42 0f 10 4c 11 10    	movups 0x10(%rcx,%r10,1),%xmm1
    2db0:	f3 45 0f 6f 39       	movdqu (%r9),%xmm15
    2db5:	66 44 0f ef c9       	pxor   %xmm1,%xmm9
    2dba:	66 44 0f ef f9       	pxor   %xmm1,%xmm15
    2dbf:	b8 30 00 00 00       	mov    $0x30,%eax
    2dc4:	4b 8d 4c 13 20       	lea    0x20(%r11,%r10,1),%rcx
    2dc9:	41 0f 10 4b 10       	movups 0x10(%r11),%xmm1
    2dce:	4c 29 d0             	sub    %r10,%rax
    2dd1:	49 89 c2             	mov    %rax,%r10
    2dd4:	f3 44 0f 6f 13       	movdqu (%rbx),%xmm10
    2dd9:	f3 44 0f 6f 45 00    	movdqu 0x0(%rbp),%xmm8
    2ddf:	49 f7 c0 01 00 00 00 	test   $0x1,%r8
    2de6:	75 39                	jne    2e21 <aesni_ocb_decrypt+0xa1>
    2de8:	4d 0f bc e0          	bsf    %r8,%r12
    2dec:	49 83 c0 01          	add    $0x1,%r8
    2df0:	49 c1 e4 04          	shl    $0x4,%r12
    2df4:	f3 42 0f 6f 3c 23    	movdqu (%rbx,%r12,1),%xmm7
    2dfa:	f3 0f 6f 17          	movdqu (%rdi),%xmm2
    2dfe:	48 8d 7f 10          	lea    0x10(%rdi),%rdi
    2e02:	e8 39 05 00 00       	call   3340 <__ocb_decrypt1>
    2e07:	66 44 0f 6f ff       	movdqa %xmm7,%xmm15
    2e0c:	0f 11 16             	movups %xmm2,(%rsi)
    2e0f:	44 0f 57 c2          	xorps  %xmm2,%xmm8
    2e13:	48 8d 76 10          	lea    0x10(%rsi),%rsi
    2e17:	48 83 ea 01          	sub    $0x1,%rdx
    2e1b:	0f 84 dc 01 00 00    	je     2ffd <aesni_ocb_decrypt+0x27d>
    2e21:	4d 8d 60 01          	lea    0x1(%r8),%r12
    2e25:	4d 8d 68 03          	lea    0x3(%r8),%r13
    2e29:	4d 8d 70 05          	lea    0x5(%r8),%r14
    2e2d:	4d 8d 40 06          	lea    0x6(%r8),%r8
    2e31:	4d 0f bc e4          	bsf    %r12,%r12
    2e35:	4d 0f bc ed          	bsf    %r13,%r13
    2e39:	4d 0f bc f6          	bsf    %r14,%r14
    2e3d:	49 c1 e4 04          	shl    $0x4,%r12
    2e41:	49 c1 e5 04          	shl    $0x4,%r13
    2e45:	49 c1 e6 04          	shl    $0x4,%r14
    2e49:	48 83 ea 06          	sub    $0x6,%rdx
    2e4d:	72 76                	jb     2ec5 <aesni_ocb_decrypt+0x145>
    2e4f:	eb 0f                	jmp    2e60 <aesni_ocb_decrypt+0xe0>
    2e51:	66 66 2e 0f 1f 84 00 	data16 cs nopw 0x0(%rax,%rax,1)
    2e58:	00 00 00 00 
    2e5c:	0f 1f 40 00          	nopl   0x0(%rax)
    2e60:	f3 0f 6f 17          	movdqu (%rdi),%xmm2
    2e64:	f3 0f 6f 5f 10       	movdqu 0x10(%rdi),%xmm3
    2e69:	f3 0f 6f 67 20       	movdqu 0x20(%rdi),%xmm4
    2e6e:	f3 0f 6f 6f 30       	movdqu 0x30(%rdi),%xmm5
    2e73:	f3 0f 6f 77 40       	movdqu 0x40(%rdi),%xmm6
    2e78:	f3 0f 6f 7f 50       	movdqu 0x50(%rdi),%xmm7
    2e7d:	48 8d 7f 60          	lea    0x60(%rdi),%rdi
    2e81:	e8 fa 01 00 00       	call   3080 <__ocb_decrypt6>
    2e86:	0f 11 16             	movups %xmm2,(%rsi)
    2e89:	66 44 0f ef c2       	pxor   %xmm2,%xmm8
    2e8e:	0f 11 5e 10          	movups %xmm3,0x10(%rsi)
    2e92:	66 44 0f ef c3       	pxor   %xmm3,%xmm8
    2e97:	0f 11 66 20          	movups %xmm4,0x20(%rsi)
    2e9b:	66 44 0f ef c4       	pxor   %xmm4,%xmm8
    2ea0:	0f 11 6e 30          	movups %xmm5,0x30(%rsi)
    2ea4:	66 44 0f ef c5       	pxor   %xmm5,%xmm8
    2ea9:	0f 11 76 40          	movups %xmm6,0x40(%rsi)
    2ead:	66 44 0f ef c6       	pxor   %xmm6,%xmm8
    2eb2:	0f 11 7e 50          	movups %xmm7,0x50(%rsi)
    2eb6:	66 44 0f ef c7       	pxor   %xmm7,%xmm8
    2ebb:	48 8d 76 60          	lea    0x60(%rsi),%rsi
    2ebf:	48 83 ea 06          	sub    $0x6,%rdx
    2ec3:	73 9b                	jae    2e60 <aesni_ocb_decrypt+0xe0>
    2ec5:	48 83 c2 06          	add    $0x6,%rdx
    2ec9:	0f 84 2e 01 00 00    	je     2ffd <aesni_ocb_decrypt+0x27d>
    2ecf:	f3 0f 6f 17          	movdqu (%rdi),%xmm2
    2ed3:	48 83 fa 02          	cmp    $0x2,%rdx
    2ed7:	72 77                	jb     2f50 <aesni_ocb_decrypt+0x1d0>
    2ed9:	f3 0f 6f 5f 10       	movdqu 0x10(%rdi),%xmm3
    2ede:	0f 84 8c 00 00 00    	je     2f70 <aesni_ocb_decrypt+0x1f0>
    2ee4:	f3 0f 6f 67 20       	movdqu 0x20(%rdi),%xmm4
    2ee9:	48 83 fa 04          	cmp    $0x4,%rdx
    2eed:	0f 82 ad 00 00 00    	jb     2fa0 <aesni_ocb_decrypt+0x220>
    2ef3:	f3 0f 6f 6f 30       	movdqu 0x30(%rdi),%xmm5
    2ef8:	0f 84 d2 00 00 00    	je     2fd0 <aesni_ocb_decrypt+0x250>
    2efe:	f3 0f 6f 77 40       	movdqu 0x40(%rdi),%xmm6
    2f03:	66 0f ef ff          	pxor   %xmm7,%xmm7
    2f07:	e8 74 01 00 00       	call   3080 <__ocb_decrypt6>
    2f0c:	66 45 0f 6f fe       	movdqa %xmm14,%xmm15
    2f11:	0f 11 16             	movups %xmm2,(%rsi)
    2f14:	66 44 0f ef c2       	pxor   %xmm2,%xmm8
    2f19:	0f 11 5e 10          	movups %xmm3,0x10(%rsi)
    2f1d:	66 44 0f ef c3       	pxor   %xmm3,%xmm8
    2f22:	0f 11 66 20          	movups %xmm4,0x20(%rsi)
    2f26:	66 44 0f ef c4       	pxor   %xmm4,%xmm8
    2f2b:	0f 11 6e 30          	movups %xmm5,0x30(%rsi)
    2f2f:	66 44 0f ef c5       	pxor   %xmm5,%xmm8
    2f34:	0f 11 76 40          	movups %xmm6,0x40(%rsi)
    2f38:	66 44 0f ef c6       	pxor   %xmm6,%xmm8
    2f3d:	e9 bb 00 00 00       	jmp    2ffd <aesni_ocb_decrypt+0x27d>
    2f42:	66 66 2e 0f 1f 84 00 	data16 cs nopw 0x0(%rax,%rax,1)
    2f49:	00 00 00 00 
    2f4d:	0f 1f 00             	nopl   (%rax)
    2f50:	66 41 0f 6f fa       	movdqa %xmm10,%xmm7
    2f55:	e8 e6 03 00 00       	call   3340 <__ocb_decrypt1>
    2f5a:	66 44 0f 6f ff       	movdqa %xmm7,%xmm15
    2f5f:	0f 11 16             	movups %xmm2,(%rsi)
    2f62:	44 0f 57 c2          	xorps  %xmm2,%xmm8
    2f66:	e9 92 00 00 00       	jmp    2ffd <aesni_ocb_decrypt+0x27d>
    2f6b:	0f 1f 44 00 00       	nopl   0x0(%rax,%rax,1)
    2f70:	66 0f ef e4          	pxor   %xmm4,%xmm4
    2f74:	66 0f ef ed          	pxor   %xmm5,%xmm5
    2f78:	e8 a3 02 00 00       	call   3220 <__ocb_decrypt4>
    2f7d:	66 45 0f 6f fb       	movdqa %xmm11,%xmm15
    2f82:	0f 11 16             	movups %xmm2,(%rsi)
    2f85:	44 0f 57 c2          	xorps  %xmm2,%xmm8
    2f89:	0f 11 5e 10          	movups %xmm3,0x10(%rsi)
    2f8d:	44 0f 57 c3          	xorps  %xmm3,%xmm8
    2f91:	eb 6a                	jmp    2ffd <aesni_ocb_decrypt+0x27d>
    2f93:	66 66 2e 0f 1f 84 00 	data16 cs nopw 0x0(%rax,%rax,1)
    2f9a:	00 00 00 00 
    2f9e:	66 90                	xchg   %ax,%ax
    2fa0:	66 0f ef ed          	pxor   %xmm5,%xmm5
    2fa4:	e8 77 02 00 00       	call   3220 <__ocb_decrypt4>
    2fa9:	66 45 0f 6f fc       	movdqa %xmm12,%xmm15
    2fae:	0f 11 16             	movups %xmm2,(%rsi)
    2fb1:	44 0f 57 c2          	xorps  %xmm2,%xmm8
    2fb5:	0f 11 5e 10          	movups %xmm3,0x10(%rsi)
    2fb9:	44 0f 57 c3          	xorps  %xmm3,%xmm8
    2fbd:	0f 11 66 20          	movups %xmm4,0x20(%rsi)
    2fc1:	44 0f 57 c4          	xorps  %xmm4,%xmm8
    2fc5:	eb 36                	jmp    2ffd <aesni_ocb_decrypt+0x27d>
    2fc7:	66 0f 1f 84 00 00 00 	nopw   0x0(%rax,%rax,1)
    2fce:	00 00 
    2fd0:	e8 4b 02 00 00       	call   3220 <__ocb_decrypt4>
    2fd5:	66 45 0f 6f fd       	movdqa %xmm13,%xmm15
    2fda:	0f 11 16             	movups %xmm2,(%rsi)
    2fdd:	66 44 0f ef c2       	pxor   %xmm2,%xmm8
    2fe2:	0f 11 5e 10          	movups %xmm3,0x10(%rsi)
    2fe6:	66 44 0f ef c3       	pxor   %xmm3,%xmm8
    2feb:	0f 11 66 20          	movups %xmm4,0x20(%rsi)
    2fef:	66 44 0f ef c4       	pxor   %xmm4,%xmm8
    2ff4:	0f 11 6e 30          	movups %xmm5,0x30(%rsi)
    2ff8:	66 44 0f ef c5       	pxor   %xmm5,%xmm8
    2ffd:	66 44 0f ef f8       	pxor   %xmm0,%xmm15
    3002:	f3 44 0f 7f 45 00    	movdqu %xmm8,0x0(%rbp)
    3008:	f3 45 0f 7f 39       	movdqu %xmm15,(%r9)
    300d:	0f 57 c0             	xorps  %xmm0,%xmm0
    3010:	66 0f ef c9          	pxor   %xmm1,%xmm1
    3014:	66 0f ef d2          	pxor   %xmm2,%xmm2
    3018:	66 0f ef db          	pxor   %xmm3,%xmm3
    301c:	66 0f ef e4          	pxor   %xmm4,%xmm4
    3020:	66 0f ef ed          	pxor   %xmm5,%xmm5
    3024:	66 0f ef f6          	pxor   %xmm6,%xmm6
    3028:	66 0f ef ff          	pxor   %xmm7,%xmm7
    302c:	66 45 0f ef c0       	pxor   %xmm8,%xmm8
    3031:	66 45 0f ef c9       	pxor   %xmm9,%xmm9
    3036:	66 45 0f ef d2       	pxor   %xmm10,%xmm10
    303b:	66 45 0f ef db       	pxor   %xmm11,%xmm11
    3040:	66 45 0f ef e4       	pxor   %xmm12,%xmm12
    3045:	66 45 0f ef ed       	pxor   %xmm13,%xmm13
    304a:	66 45 0f ef f6       	pxor   %xmm14,%xmm14
    304f:	66 45 0f ef ff       	pxor   %xmm15,%xmm15
    3054:	48 8d 44 24 28       	lea    0x28(%rsp),%rax
    3059:	4c 8b 70 d8          	mov    -0x28(%rax),%r14
    305d:	4c 8b 68 e0          	mov    -0x20(%rax),%r13
    3061:	4c 8b 60 e8          	mov    -0x18(%rax),%r12
    3065:	48 8b 68 f0          	mov    -0x10(%rax),%rbp
    3069:	48 8b 58 f8          	mov    -0x8(%rax),%rbx
    306d:	48 8d 20             	lea    (%rax),%rsp
    3070:	f3 c3                	repz ret 
    3072:	66 66 2e 0f 1f 84 00 	data16 cs nopw 0x0(%rax,%rax,1)
    3079:	00 00 00 00 
    307d:	0f 1f 00             	nopl   (%rax)

0000000000003080 <__ocb_decrypt6>:
    3080:	66 45 0f ef f9       	pxor   %xmm9,%xmm15
    3085:	f3 46 0f 6f 1c 23    	movdqu (%rbx,%r12,1),%xmm11
    308b:	66 45 0f 6f e2       	movdqa %xmm10,%xmm12
    3090:	f3 46 0f 6f 2c 2b    	movdqu (%rbx,%r13,1),%xmm13
    3096:	66 45 0f 6f f2       	movdqa %xmm10,%xmm14
    309b:	66 45 0f ef d7       	pxor   %xmm15,%xmm10
    30a0:	f3 46 0f 6f 3c 33    	movdqu (%rbx,%r14,1),%xmm15
    30a6:	66 45 0f ef da       	pxor   %xmm10,%xmm11
    30ab:	66 41 0f ef d2       	pxor   %xmm10,%xmm2
    30b0:	66 45 0f ef e3       	pxor   %xmm11,%xmm12
    30b5:	66 41 0f ef db       	pxor   %xmm11,%xmm3
    30ba:	66 45 0f ef ec       	pxor   %xmm12,%xmm13
    30bf:	66 41 0f ef e4       	pxor   %xmm12,%xmm4
    30c4:	66 45 0f ef f5       	pxor   %xmm13,%xmm14
    30c9:	66 41 0f ef ed       	pxor   %xmm13,%xmm5
    30ce:	66 45 0f ef fe       	pxor   %xmm14,%xmm15
    30d3:	66 41 0f ef f6       	pxor   %xmm14,%xmm6
    30d8:	66 41 0f ef ff       	pxor   %xmm15,%xmm7
    30dd:	41 0f 10 43 20       	movups 0x20(%r11),%xmm0
    30e2:	4d 8d 60 01          	lea    0x1(%r8),%r12
    30e6:	4d 8d 68 03          	lea    0x3(%r8),%r13
    30ea:	4d 8d 70 05          	lea    0x5(%r8),%r14
    30ee:	49 83 c0 06          	add    $0x6,%r8
    30f2:	66 45 0f ef d1       	pxor   %xmm9,%xmm10
    30f7:	4d 0f bc e4          	bsf    %r12,%r12
    30fb:	4d 0f bc ed          	bsf    %r13,%r13
    30ff:	4d 0f bc f6          	bsf    %r14,%r14
    3103:	66 0f 38 de d1       	aesdec %xmm1,%xmm2
    3108:	66 0f 38 de d9       	aesdec %xmm1,%xmm3
    310d:	66 0f 38 de e1       	aesdec %xmm1,%xmm4
    3112:	66 0f 38 de e9       	aesdec %xmm1,%xmm5
    3117:	66 45 0f ef d9       	pxor   %xmm9,%xmm11
    311c:	66 45 0f ef e1       	pxor   %xmm9,%xmm12
    3121:	66 0f 38 de f1       	aesdec %xmm1,%xmm6
    3126:	66 45 0f ef e9       	pxor   %xmm9,%xmm13
    312b:	66 45 0f ef f1       	pxor   %xmm9,%xmm14
    3130:	66 0f 38 de f9       	aesdec %xmm1,%xmm7
    3135:	41 0f 10 4b 30       	movups 0x30(%r11),%xmm1
    313a:	66 45 0f ef f9       	pxor   %xmm9,%xmm15
    313f:	66 0f 38 de d0       	aesdec %xmm0,%xmm2
    3144:	66 0f 38 de d8       	aesdec %xmm0,%xmm3
    3149:	66 0f 38 de e0       	aesdec %xmm0,%xmm4
    314e:	66 0f 38 de e8       	aesdec %xmm0,%xmm5
    3153:	66 0f 38 de f0       	aesdec %xmm0,%xmm6
    3158:	66 0f 38 de f8       	aesdec %xmm0,%xmm7
    315d:	41 0f 10 43 40       	movups 0x40(%r11),%xmm0
    3162:	49 c1 e4 04          	shl    $0x4,%r12
    3166:	49 c1 e5 04          	shl    $0x4,%r13
    316a:	eb 14                	jmp    3180 <__ocb_decrypt6+0x100>
    316c:	66 66 2e 0f 1f 84 00 	data16 cs nopw 0x0(%rax,%rax,1)
    3173:	00 00 00 00 
    3177:	66 0f 1f 84 00 00 00 	nopw   0x0(%rax,%rax,1)
    317e:	00 00 
    3180:	66 0f 38 de d1       	aesdec %xmm1,%xmm2
    3185:	66 0f 38 de d9       	aesdec %xmm1,%xmm3
    318a:	66 0f 38 de e1       	aesdec %xmm1,%xmm4
    318f:	66 0f 38 de e9       	aesdec %xmm1,%xmm5
    3194:	66 0f 38 de f1       	aesdec %xmm1,%xmm6
    3199:	66 0f 38 de f9       	aesdec %xmm1,%xmm7
    319e:	0f 10 0c 01          	movups (%rcx,%rax,1),%xmm1
    31a2:	48 83 c0 20          	add    $0x20,%rax
    31a6:	66 0f 38 de d0       	aesdec %xmm0,%xmm2
    31ab:	66 0f 38 de d8       	aesdec %xmm0,%xmm3
    31b0:	66 0f 38 de e0       	aesdec %xmm0,%xmm4
    31b5:	66 0f 38 de e8       	aesdec %xmm0,%xmm5
    31ba:	66 0f 38 de f0       	aesdec %xmm0,%xmm6
    31bf:	66 0f 38 de f8       	aesdec %xmm0,%xmm7
    31c4:	0f 10 44 01 f0       	movups -0x10(%rcx,%rax,1),%xmm0
    31c9:	75 b5                	jne    3180 <__ocb_decrypt6+0x100>
    31cb:	66 0f 38 de d1       	aesdec %xmm1,%xmm2
    31d0:	66 0f 38 de d9       	aesdec %xmm1,%xmm3
    31d5:	66 0f 38 de e1       	aesdec %xmm1,%xmm4
    31da:	66 0f 38 de e9       	aesdec %xmm1,%xmm5
    31df:	66 0f 38 de f1       	aesdec %xmm1,%xmm6
    31e4:	66 0f 38 de f9       	aesdec %xmm1,%xmm7
    31e9:	41 0f 10 4b 10       	movups 0x10(%r11),%xmm1
    31ee:	49 c1 e6 04          	shl    $0x4,%r14
    31f2:	66 41 0f 38 df d2    	aesdeclast %xmm10,%xmm2
    31f8:	f3 44 0f 6f 13       	movdqu (%rbx),%xmm10
    31fd:	4c 89 d0             	mov    %r10,%rax
    3200:	66 41 0f 38 df db    	aesdeclast %xmm11,%xmm3
    3206:	66 41 0f 38 df e4    	aesdeclast %xmm12,%xmm4
    320c:	66 41 0f 38 df ed    	aesdeclast %xmm13,%xmm5
    3212:	66 41 0f 38 df f6    	aesdeclast %xmm14,%xmm6
    3218:	66 41 0f 38 df ff    	aesdeclast %xmm15,%xmm7
    321e:	f3 c3                	repz ret 

0000000000003220 <__ocb_decrypt4>:
    3220:	66 45 0f ef f9       	pxor   %xmm9,%xmm15
    3225:	f3 46 0f 6f 1c 23    	movdqu (%rbx,%r12,1),%xmm11
    322b:	66 45 0f 6f e2       	movdqa %xmm10,%xmm12
    3230:	f3 46 0f 6f 2c 2b    	movdqu (%rbx,%r13,1),%xmm13
    3236:	66 45 0f ef d7       	pxor   %xmm15,%xmm10
    323b:	66 45 0f ef da       	pxor   %xmm10,%xmm11
    3240:	66 41 0f ef d2       	pxor   %xmm10,%xmm2
    3245:	66 45 0f ef e3       	pxor   %xmm11,%xmm12
    324a:	66 41 0f ef db       	pxor   %xmm11,%xmm3
    324f:	66 45 0f ef ec       	pxor   %xmm12,%xmm13
    3254:	66 41 0f ef e4       	pxor   %xmm12,%xmm4
    3259:	66 41 0f ef ed       	pxor   %xmm13,%xmm5
    325e:	41 0f 10 43 20       	movups 0x20(%r11),%xmm0
    3263:	66 45 0f ef d1       	pxor   %xmm9,%xmm10
    3268:	66 45 0f ef d9       	pxor   %xmm9,%xmm11
    326d:	66 45 0f ef e1       	pxor   %xmm9,%xmm12
    3272:	66 45 0f ef e9       	pxor   %xmm9,%xmm13
    3277:	66 0f 38 de d1       	aesdec %xmm1,%xmm2
    327c:	66 0f 38 de d9       	aesdec %xmm1,%xmm3
    3281:	66 0f 38 de e1       	aesdec %xmm1,%xmm4
    3286:	66 0f 38 de e9       	aesdec %xmm1,%xmm5
    328b:	41 0f 10 4b 30       	movups 0x30(%r11),%xmm1
    3290:	66 0f 38 de d0       	aesdec %xmm0,%xmm2
    3295:	66 0f 38 de d8       	aesdec %xmm0,%xmm3
    329a:	66 0f 38 de e0       	aesdec %xmm0,%xmm4
    329f:	66 0f 38 de e8       	aesdec %xmm0,%xmm5
    32a4:	41 0f 10 43 40       	movups 0x40(%r11),%xmm0
    32a9:	eb 15                	jmp    32c0 <__ocb_decrypt4+0xa0>
    32ab:	66 66 2e 0f 1f 84 00 	data16 cs nopw 0x0(%rax,%rax,1)
    32b2:	00 00 00 00 
    32b6:	66 2e 0f 1f 84 00 00 	cs nopw 0x0(%rax,%rax,1)
    32bd:	00 00 00 
    32c0:	66 0f 38 de d1       	aesdec %xmm1,%xmm2
    32c5:	66 0f 38 de d9       	aesdec %xmm1,%xmm3
    32ca:	66 0f 38 de e1       	aesdec %xmm1,%xmm4
    32cf:	66 0f 38 de e9       	aesdec %xmm1,%xmm5
    32d4:	0f 10 0c 01          	movups (%rcx,%rax,1),%xmm1
    32d8:	48 83 c0 20          	add    $0x20,%rax
    32dc:	66 0f 38 de d0       	aesdec %xmm0,%xmm2
    32e1:	66 0f 38 de d8       	aesdec %xmm0,%xmm3
    32e6:	66 0f 38 de e0       	aesdec %xmm0,%xmm4
    32eb:	66 0f 38 de e8       	aesdec %xmm0,%xmm5
    32f0:	0f 10 44 01 f0       	movups -0x10(%rcx,%rax,1),%xmm0
    32f5:	75 c9                	jne    32c0 <__ocb_decrypt4+0xa0>
    32f7:	66 0f 38 de d1       	aesdec %xmm1,%xmm2
    32fc:	66 0f 38 de d9       	aesdec %xmm1,%xmm3
    3301:	66 0f 38 de e1       	aesdec %xmm1,%xmm4
    3306:	66 0f 38 de e9       	aesdec %xmm1,%xmm5
    330b:	41 0f 10 4b 10       	movups 0x10(%r11),%xmm1
    3310:	4c 89 d0             	mov    %r10,%rax
    3313:	66 41 0f 38 df d2    	aesdeclast %xmm10,%xmm2
    3319:	66 41 0f 38 df db    	aesdeclast %xmm11,%xmm3
    331f:	66 41 0f 38 df e4    	aesdeclast %xmm12,%xmm4
    3325:	66 41 0f 38 df ed    	aesdeclast %xmm13,%xmm5
    332b:	f3 c3                	repz ret 
    332d:	66 66 2e 0f 1f 84 00 	data16 cs nopw 0x0(%rax,%rax,1)
    3334:	00 00 00 00 
    3338:	0f 1f 84 00 00 00 00 	nopl   0x0(%rax,%rax,1)
    333f:	00 

0000000000003340 <__ocb_decrypt1>:
    3340:	66 41 0f ef ff       	pxor   %xmm15,%xmm7
    3345:	66 41 0f ef f9       	pxor   %xmm9,%xmm7
    334a:	66 0f ef d7          	pxor   %xmm7,%xmm2
    334e:	41 0f 10 43 20       	movups 0x20(%r11),%xmm0
    3353:	66 0f 38 de d1       	aesdec %xmm1,%xmm2
    3358:	41 0f 10 4b 30       	movups 0x30(%r11),%xmm1
    335d:	66 41 0f ef f9       	pxor   %xmm9,%xmm7
    3362:	66 0f 38 de d0       	aesdec %xmm0,%xmm2
    3367:	41 0f 10 43 40       	movups 0x40(%r11),%xmm0
    336c:	eb 12                	jmp    3380 <__ocb_decrypt1+0x40>
    336e:	66 66 2e 0f 1f 84 00 	data16 cs nopw 0x0(%rax,%rax,1)
    3375:	00 00 00 00 
    3379:	0f 1f 80 00 00 00 00 	nopl   0x0(%rax)
    3380:	66 0f 38 de d1       	aesdec %xmm1,%xmm2
    3385:	0f 10 0c 01          	movups (%rcx,%rax,1),%xmm1
    3389:	48 83 c0 20          	add    $0x20,%rax
    338d:	66 0f 38 de d0       	aesdec %xmm0,%xmm2
    3392:	0f 10 44 01 f0       	movups -0x10(%rcx,%rax,1),%xmm0
    3397:	75 e7                	jne    3380 <__ocb_decrypt1+0x40>
    3399:	66 0f 38 de d1       	aesdec %xmm1,%xmm2
    339e:	41 0f 10 4b 10       	movups 0x10(%r11),%xmm1
    33a3:	4c 89 d0             	mov    %r10,%rax
    33a6:	66 0f 38 df d7       	aesdeclast %xmm7,%xmm2
    33ab:	f3 c3                	repz ret 
    33ad:	0f 1f 00             	nopl   (%rax)

00000000000033b0 <aesni_cbc_encrypt>:
    33b0:	f3 0f 1e fa          	endbr64 
    33b4:	48 85 d2             	test   %rdx,%rdx
    33b7:	0f 84 53 09 00 00    	je     3d10 <aesni_cbc_encrypt+0x960>
    33bd:	44 8b 91 f0 00 00 00 	mov    0xf0(%rcx),%r10d
    33c4:	49 89 cb             	mov    %rcx,%r11
    33c7:	45 85 c9             	test   %r9d,%r9d
    33ca:	0f 84 b0 00 00 00    	je     3480 <aesni_cbc_encrypt+0xd0>
    33d0:	41 0f 10 10          	movups (%r8),%xmm2
    33d4:	44 89 d0             	mov    %r10d,%eax
    33d7:	48 83 fa 10          	cmp    $0x10,%rdx
    33db:	72 72                	jb     344f <aesni_cbc_encrypt+0x9f>
    33dd:	48 83 ea 10          	sub    $0x10,%rdx
    33e1:	eb 0d                	jmp    33f0 <aesni_cbc_encrypt+0x40>
    33e3:	66 66 2e 0f 1f 84 00 	data16 cs nopw 0x0(%rax,%rax,1)
    33ea:	00 00 00 00 
    33ee:	66 90                	xchg   %ax,%ax
    33f0:	0f 10 1f             	movups (%rdi),%xmm3
    33f3:	48 8d 7f 10          	lea    0x10(%rdi),%rdi
    33f7:	0f 10 01             	movups (%rcx),%xmm0
    33fa:	0f 10 49 10          	movups 0x10(%rcx),%xmm1
    33fe:	0f 57 d8             	xorps  %xmm0,%xmm3
    3401:	48 8d 49 20          	lea    0x20(%rcx),%rcx
    3405:	0f 57 d3             	xorps  %xmm3,%xmm2
    3408:	66 0f 38 dc d1       	aesenc %xmm1,%xmm2
    340d:	ff c8                	dec    %eax
    340f:	0f 10 09             	movups (%rcx),%xmm1
    3412:	48 8d 49 10          	lea    0x10(%rcx),%rcx
    3416:	75 f0                	jne    3408 <aesni_cbc_encrypt+0x58>
    3418:	66 0f 38 dd d1       	aesenclast %xmm1,%xmm2
    341d:	44 89 d0             	mov    %r10d,%eax
    3420:	4c 89 d9             	mov    %r11,%rcx
    3423:	0f 11 16             	movups %xmm2,(%rsi)
    3426:	48 8d 76 10          	lea    0x10(%rsi),%rsi
    342a:	48 83 ea 10          	sub    $0x10,%rdx
    342e:	73 c0                	jae    33f0 <aesni_cbc_encrypt+0x40>
    3430:	48 83 c2 10          	add    $0x10,%rdx
    3434:	75 19                	jne    344f <aesni_cbc_encrypt+0x9f>
    3436:	66 0f ef c0          	pxor   %xmm0,%xmm0
    343a:	66 0f ef c9          	pxor   %xmm1,%xmm1
    343e:	41 0f 11 10          	movups %xmm2,(%r8)
    3442:	66 0f ef d2          	pxor   %xmm2,%xmm2
    3446:	66 0f ef db          	pxor   %xmm3,%xmm3
    344a:	e9 c1 08 00 00       	jmp    3d10 <aesni_cbc_encrypt+0x960>
    344f:	48 89 d1             	mov    %rdx,%rcx
    3452:	48 87 fe             	xchg   %rdi,%rsi
    3455:	f3 a4                	rep movsb %ds:(%rsi),%es:(%rdi)
    3457:	66 90                	xchg   %ax,%ax
    3459:	b9 10 00 00 00       	mov    $0x10,%ecx
    345e:	48 29 d1             	sub    %rdx,%rcx
    3461:	31 c0                	xor    %eax,%eax
    3463:	f3 aa                	rep stos %al,%es:(%rdi)
    3465:	66 90                	xchg   %ax,%ax
    3467:	48 8d 7f f0          	lea    -0x10(%rdi),%rdi
    346b:	44 89 d0             	mov    %r10d,%eax
    346e:	48 89 fe             	mov    %rdi,%rsi
    3471:	4c 89 d9             	mov    %r11,%rcx
    3474:	48 31 d2             	xor    %rdx,%rdx
    3477:	e9 74 ff ff ff       	jmp    33f0 <aesni_cbc_encrypt+0x40>
    347c:	0f 1f 40 00          	nopl   0x0(%rax)
    3480:	48 83 fa 10          	cmp    $0x10,%rdx
    3484:	75 5a                	jne    34e0 <aesni_cbc_encrypt+0x130>
    3486:	f3 0f 6f 17          	movdqu (%rdi),%xmm2
    348a:	f3 41 0f 6f 18       	movdqu (%r8),%xmm3
    348f:	66 0f 6f e2          	movdqa %xmm2,%xmm4
    3493:	0f 10 01             	movups (%rcx),%xmm0
    3496:	0f 10 49 10          	movups 0x10(%rcx),%xmm1
    349a:	48 8d 49 20          	lea    0x20(%rcx),%rcx
    349e:	0f 57 d0             	xorps  %xmm0,%xmm2
    34a1:	66 0f 38 de d1       	aesdec %xmm1,%xmm2
    34a6:	41 ff ca             	dec    %r10d
    34a9:	0f 10 09             	movups (%rcx),%xmm1
    34ac:	48 8d 49 10          	lea    0x10(%rcx),%rcx
    34b0:	75 ef                	jne    34a1 <aesni_cbc_encrypt+0xf1>
    34b2:	66 0f 38 df d1       	aesdeclast %xmm1,%xmm2
    34b7:	66 0f ef c0          	pxor   %xmm0,%xmm0
    34bb:	66 0f ef c9          	pxor   %xmm1,%xmm1
    34bf:	f3 41 0f 7f 20       	movdqu %xmm4,(%r8)
    34c4:	0f 57 d3             	xorps  %xmm3,%xmm2
    34c7:	66 0f ef db          	pxor   %xmm3,%xmm3
    34cb:	0f 11 16             	movups %xmm2,(%rsi)
    34ce:	66 0f ef d2          	pxor   %xmm2,%xmm2
    34d2:	e9 39 08 00 00       	jmp    3d10 <aesni_cbc_encrypt+0x960>
    34d7:	66 0f 1f 84 00 00 00 	nopw   0x0(%rax,%rax,1)
    34de:	00 00 
    34e0:	4c 8d 1c 24          	lea    (%rsp),%r11
    34e4:	55                   	push   %rbp
    34e5:	48 83 ec 10          	sub    $0x10,%rsp
    34e9:	48 83 e4 f0          	and    $0xfffffffffffffff0,%rsp
    34ed:	48 89 cd             	mov    %rcx,%rbp
    34f0:	45 0f 10 10          	movups (%r8),%xmm10
    34f4:	44 89 d0             	mov    %r10d,%eax
    34f7:	48 83 fa 50          	cmp    $0x50,%rdx
    34fb:	0f 86 ee 05 00 00    	jbe    3aef <aesni_cbc_encrypt+0x73f>
    3501:	0f 10 01             	movups (%rcx),%xmm0
    3504:	f3 0f 6f 17          	movdqu (%rdi),%xmm2
    3508:	f3 0f 6f 5f 10       	movdqu 0x10(%rdi),%xmm3
    350d:	66 44 0f 6f da       	movdqa %xmm2,%xmm11
    3512:	f3 0f 6f 67 20       	movdqu 0x20(%rdi),%xmm4
    3517:	66 44 0f 6f e3       	movdqa %xmm3,%xmm12
    351c:	f3 0f 6f 6f 30       	movdqu 0x30(%rdi),%xmm5
    3521:	66 44 0f 6f ec       	movdqa %xmm4,%xmm13
    3526:	f3 0f 6f 77 40       	movdqu 0x40(%rdi),%xmm6
    352b:	66 44 0f 6f f5       	movdqa %xmm5,%xmm14
    3530:	f3 0f 6f 7f 50       	movdqu 0x50(%rdi),%xmm7
    3535:	66 44 0f 6f fe       	movdqa %xmm6,%xmm15
    353a:	44 8b 0d 00 00 00 00 	mov    0x0(%rip),%r9d        # 3541 <aesni_cbc_encrypt+0x191>
    3541:	48 83 fa 70          	cmp    $0x70,%rdx
    3545:	0f 86 fb 03 00 00    	jbe    3946 <aesni_cbc_encrypt+0x596>
    354b:	41 81 e1 00 00 40 04 	and    $0x4400000,%r9d
    3552:	48 83 ea 50          	sub    $0x50,%rdx
    3556:	41 81 f9 00 00 40 00 	cmp    $0x400000,%r9d
    355d:	0f 84 1a 05 00 00    	je     3a7d <aesni_cbc_encrypt+0x6cd>
    3563:	48 83 ea 20          	sub    $0x20,%rdx
    3567:	48 8d 49 70          	lea    0x70(%rcx),%rcx
    356b:	eb 0b                	jmp    3578 <aesni_cbc_encrypt+0x1c8>
    356d:	0f 1f 00             	nopl   (%rax)
    3570:	44 0f 11 0e          	movups %xmm9,(%rsi)
    3574:	48 8d 76 10          	lea    0x10(%rsi),%rsi
    3578:	f3 44 0f 6f 47 60    	movdqu 0x60(%rdi),%xmm8
    357e:	66 0f ef d0          	pxor   %xmm0,%xmm2
    3582:	f3 44 0f 6f 4f 70    	movdqu 0x70(%rdi),%xmm9
    3588:	66 0f ef d8          	pxor   %xmm0,%xmm3
    358c:	0f 10 49 a0          	movups -0x60(%rcx),%xmm1
    3590:	66 0f ef e0          	pxor   %xmm0,%xmm4
    3594:	48 c7 c5 ff ff ff ff 	mov    $0xffffffffffffffff,%rbp
    359b:	48 83 fa 70          	cmp    $0x70,%rdx
    359f:	66 0f ef e8          	pxor   %xmm0,%xmm5
    35a3:	66 0f ef f0          	pxor   %xmm0,%xmm6
    35a7:	66 0f ef f8          	pxor   %xmm0,%xmm7
    35ab:	66 44 0f ef c0       	pxor   %xmm0,%xmm8
    35b0:	66 0f 38 de d1       	aesdec %xmm1,%xmm2
    35b5:	66 44 0f ef c8       	pxor   %xmm0,%xmm9
    35ba:	0f 10 41 b0          	movups -0x50(%rcx),%xmm0
    35be:	66 0f 38 de d9       	aesdec %xmm1,%xmm3
    35c3:	66 0f 38 de e1       	aesdec %xmm1,%xmm4
    35c8:	66 0f 38 de e9       	aesdec %xmm1,%xmm5
    35cd:	66 0f 38 de f1       	aesdec %xmm1,%xmm6
    35d2:	66 0f 38 de f9       	aesdec %xmm1,%xmm7
    35d7:	66 44 0f 38 de c1    	aesdec %xmm1,%xmm8
    35dd:	48 83 d5 00          	adc    $0x0,%rbp
    35e1:	48 81 e5 80 00 00 00 	and    $0x80,%rbp
    35e8:	66 44 0f 38 de c9    	aesdec %xmm1,%xmm9
    35ee:	48 01 fd             	add    %rdi,%rbp
    35f1:	0f 10 49 c0          	movups -0x40(%rcx),%xmm1
    35f5:	66 0f 38 de d0       	aesdec %xmm0,%xmm2
    35fa:	66 0f 38 de d8       	aesdec %xmm0,%xmm3
    35ff:	66 0f 38 de e0       	aesdec %xmm0,%xmm4
    3604:	66 0f 38 de e8       	aesdec %xmm0,%xmm5
    3609:	66 0f 38 de f0       	aesdec %xmm0,%xmm6
    360e:	66 0f 38 de f8       	aesdec %xmm0,%xmm7
    3613:	66 44 0f 38 de c0    	aesdec %xmm0,%xmm8
    3619:	66 44 0f 38 de c8    	aesdec %xmm0,%xmm9
    361f:	0f 10 41 d0          	movups -0x30(%rcx),%xmm0
    3623:	90                   	nop
    3624:	66 0f 38 de d1       	aesdec %xmm1,%xmm2
    3629:	66 0f 38 de d9       	aesdec %xmm1,%xmm3
    362e:	66 0f 38 de e1       	aesdec %xmm1,%xmm4
    3633:	66 0f 38 de e9       	aesdec %xmm1,%xmm5
    3638:	66 0f 38 de f1       	aesdec %xmm1,%xmm6
    363d:	66 0f 38 de f9       	aesdec %xmm1,%xmm7
    3642:	66 44 0f 38 de c1    	aesdec %xmm1,%xmm8
    3648:	66 44 0f 38 de c9    	aesdec %xmm1,%xmm9
    364e:	0f 10 49 e0          	movups -0x20(%rcx),%xmm1
    3652:	90                   	nop
    3653:	66 0f 38 de d0       	aesdec %xmm0,%xmm2
    3658:	66 0f 38 de d8       	aesdec %xmm0,%xmm3
    365d:	66 0f 38 de e0       	aesdec %xmm0,%xmm4
    3662:	66 0f 38 de e8       	aesdec %xmm0,%xmm5
    3667:	66 0f 38 de f0       	aesdec %xmm0,%xmm6
    366c:	66 0f 38 de f8       	aesdec %xmm0,%xmm7
    3671:	66 44 0f 38 de c0    	aesdec %xmm0,%xmm8
    3677:	66 44 0f 38 de c8    	aesdec %xmm0,%xmm9
    367d:	0f 10 41 f0          	movups -0x10(%rcx),%xmm0
    3681:	90                   	nop
    3682:	66 0f 38 de d1       	aesdec %xmm1,%xmm2
    3687:	66 0f 38 de d9       	aesdec %xmm1,%xmm3
    368c:	66 0f 38 de e1       	aesdec %xmm1,%xmm4
    3691:	66 0f 38 de e9       	aesdec %xmm1,%xmm5
    3696:	66 0f 38 de f1       	aesdec %xmm1,%xmm6
    369b:	66 0f 38 de f9       	aesdec %xmm1,%xmm7
    36a0:	66 44 0f 38 de c1    	aesdec %xmm1,%xmm8
    36a6:	66 44 0f 38 de c9    	aesdec %xmm1,%xmm9
    36ac:	0f 10 09             	movups (%rcx),%xmm1
    36af:	90                   	nop
    36b0:	66 0f 38 de d0       	aesdec %xmm0,%xmm2
    36b5:	66 0f 38 de d8       	aesdec %xmm0,%xmm3
    36ba:	66 0f 38 de e0       	aesdec %xmm0,%xmm4
    36bf:	66 0f 38 de e8       	aesdec %xmm0,%xmm5
    36c4:	66 0f 38 de f0       	aesdec %xmm0,%xmm6
    36c9:	66 0f 38 de f8       	aesdec %xmm0,%xmm7
    36ce:	66 44 0f 38 de c0    	aesdec %xmm0,%xmm8
    36d4:	66 44 0f 38 de c8    	aesdec %xmm0,%xmm9
    36da:	0f 10 41 10          	movups 0x10(%rcx),%xmm0
    36de:	90                   	nop
    36df:	66 0f 38 de d1       	aesdec %xmm1,%xmm2
    36e4:	66 0f 38 de d9       	aesdec %xmm1,%xmm3
    36e9:	66 0f 38 de e1       	aesdec %xmm1,%xmm4
    36ee:	66 0f 38 de e9       	aesdec %xmm1,%xmm5
    36f3:	66 0f 38 de f1       	aesdec %xmm1,%xmm6
    36f8:	66 0f 38 de f9       	aesdec %xmm1,%xmm7
    36fd:	66 44 0f 38 de c1    	aesdec %xmm1,%xmm8
    3703:	66 44 0f 38 de c9    	aesdec %xmm1,%xmm9
    3709:	0f 10 49 20          	movups 0x20(%rcx),%xmm1
    370d:	83 f8 0b             	cmp    $0xb,%eax
    3710:	66 0f 38 de d0       	aesdec %xmm0,%xmm2
    3715:	66 0f 38 de d8       	aesdec %xmm0,%xmm3
    371a:	66 0f 38 de e0       	aesdec %xmm0,%xmm4
    371f:	66 0f 38 de e8       	aesdec %xmm0,%xmm5
    3724:	66 0f 38 de f0       	aesdec %xmm0,%xmm6
    3729:	66 0f 38 de f8       	aesdec %xmm0,%xmm7
    372e:	66 44 0f 38 de c0    	aesdec %xmm0,%xmm8
    3734:	66 44 0f 38 de c8    	aesdec %xmm0,%xmm9
    373a:	0f 10 41 30          	movups 0x30(%rcx),%xmm0
    373e:	0f 82 cc 00 00 00    	jb     3810 <aesni_cbc_encrypt+0x460>
    3744:	66 0f 38 de d1       	aesdec %xmm1,%xmm2
    3749:	66 0f 38 de d9       	aesdec %xmm1,%xmm3
    374e:	66 0f 38 de e1       	aesdec %xmm1,%xmm4
    3753:	66 0f 38 de e9       	aesdec %xmm1,%xmm5
    3758:	66 0f 38 de f1       	aesdec %xmm1,%xmm6
    375d:	66 0f 38 de f9       	aesdec %xmm1,%xmm7
    3762:	66 44 0f 38 de c1    	aesdec %xmm1,%xmm8
    3768:	66 44 0f 38 de c9    	aesdec %xmm1,%xmm9
    376e:	0f 10 49 40          	movups 0x40(%rcx),%xmm1
    3772:	90                   	nop
    3773:	66 0f 38 de d0       	aesdec %xmm0,%xmm2
    3778:	66 0f 38 de d8       	aesdec %xmm0,%xmm3
    377d:	66 0f 38 de e0       	aesdec %xmm0,%xmm4
    3782:	66 0f 38 de e8       	aesdec %xmm0,%xmm5
    3787:	66 0f 38 de f0       	aesdec %xmm0,%xmm6
    378c:	66 0f 38 de f8       	aesdec %xmm0,%xmm7
    3791:	66 44 0f 38 de c0    	aesdec %xmm0,%xmm8
    3797:	66 44 0f 38 de c8    	aesdec %xmm0,%xmm9
    379d:	0f 10 41 50          	movups 0x50(%rcx),%xmm0
    37a1:	74 6d                	je     3810 <aesni_cbc_encrypt+0x460>
    37a3:	66 0f 38 de d1       	aesdec %xmm1,%xmm2
    37a8:	66 0f 38 de d9       	aesdec %xmm1,%xmm3
    37ad:	66 0f 38 de e1       	aesdec %xmm1,%xmm4
    37b2:	66 0f 38 de e9       	aesdec %xmm1,%xmm5
    37b7:	66 0f 38 de f1       	aesdec %xmm1,%xmm6
    37bc:	66 0f 38 de f9       	aesdec %xmm1,%xmm7
    37c1:	66 44 0f 38 de c1    	aesdec %xmm1,%xmm8
    37c7:	66 44 0f 38 de c9    	aesdec %xmm1,%xmm9
    37cd:	0f 10 49 60          	movups 0x60(%rcx),%xmm1
    37d1:	90                   	nop
    37d2:	66 0f 38 de d0       	aesdec %xmm0,%xmm2
    37d7:	66 0f 38 de d8       	aesdec %xmm0,%xmm3
    37dc:	66 0f 38 de e0       	aesdec %xmm0,%xmm4
    37e1:	66 0f 38 de e8       	aesdec %xmm0,%xmm5
    37e6:	66 0f 38 de f0       	aesdec %xmm0,%xmm6
    37eb:	66 0f 38 de f8       	aesdec %xmm0,%xmm7
    37f0:	66 44 0f 38 de c0    	aesdec %xmm0,%xmm8
    37f6:	66 44 0f 38 de c8    	aesdec %xmm0,%xmm9
    37fc:	0f 10 41 70          	movups 0x70(%rcx),%xmm0
    3800:	eb 0e                	jmp    3810 <aesni_cbc_encrypt+0x460>
    3802:	66 66 2e 0f 1f 84 00 	data16 cs nopw 0x0(%rax,%rax,1)
    3809:	00 00 00 00 
    380d:	0f 1f 00             	nopl   (%rax)
    3810:	66 0f 38 de d1       	aesdec %xmm1,%xmm2
    3815:	66 0f 38 de d9       	aesdec %xmm1,%xmm3
    381a:	66 44 0f ef d0       	pxor   %xmm0,%xmm10
    381f:	66 44 0f ef d8       	pxor   %xmm0,%xmm11
    3824:	66 0f 38 de e1       	aesdec %xmm1,%xmm4
    3829:	66 0f 38 de e9       	aesdec %xmm1,%xmm5
    382e:	66 44 0f ef e0       	pxor   %xmm0,%xmm12
    3833:	66 44 0f ef e8       	pxor   %xmm0,%xmm13
    3838:	66 0f 38 de f1       	aesdec %xmm1,%xmm6
    383d:	66 0f 38 de f9       	aesdec %xmm1,%xmm7
    3842:	66 44 0f ef f0       	pxor   %xmm0,%xmm14
    3847:	66 44 0f ef f8       	pxor   %xmm0,%xmm15
    384c:	66 44 0f 38 de c1    	aesdec %xmm1,%xmm8
    3852:	66 44 0f 38 de c9    	aesdec %xmm1,%xmm9
    3858:	f3 0f 6f 4f 50       	movdqu 0x50(%rdi),%xmm1
    385d:	66 41 0f 38 df d2    	aesdeclast %xmm10,%xmm2
    3863:	f3 44 0f 6f 57 60    	movdqu 0x60(%rdi),%xmm10
    3869:	66 0f ef c8          	pxor   %xmm0,%xmm1
    386d:	66 41 0f 38 df db    	aesdeclast %xmm11,%xmm3
    3873:	66 44 0f ef d0       	pxor   %xmm0,%xmm10
    3878:	f3 0f 6f 47 70       	movdqu 0x70(%rdi),%xmm0
    387d:	66 41 0f 38 df e4    	aesdeclast %xmm12,%xmm4
    3883:	48 8d bf 80 00 00 00 	lea    0x80(%rdi),%rdi
    388a:	f3 44 0f 6f 5d 00    	movdqu 0x0(%rbp),%xmm11
    3890:	66 41 0f 38 df ed    	aesdeclast %xmm13,%xmm5
    3896:	66 41 0f 38 df f6    	aesdeclast %xmm14,%xmm6
    389c:	f3 44 0f 6f 65 10    	movdqu 0x10(%rbp),%xmm12
    38a2:	f3 44 0f 6f 6d 20    	movdqu 0x20(%rbp),%xmm13
    38a8:	66 41 0f 38 df ff    	aesdeclast %xmm15,%xmm7
    38ae:	66 44 0f 38 df c1    	aesdeclast %xmm1,%xmm8
    38b4:	f3 44 0f 6f 75 30    	movdqu 0x30(%rbp),%xmm14
    38ba:	f3 44 0f 6f 7d 40    	movdqu 0x40(%rbp),%xmm15
    38c0:	66 45 0f 38 df ca    	aesdeclast %xmm10,%xmm9
    38c6:	66 44 0f 6f d0       	movdqa %xmm0,%xmm10
    38cb:	f3 0f 6f 4d 50       	movdqu 0x50(%rbp),%xmm1
    38d0:	0f 10 41 90          	movups -0x70(%rcx),%xmm0
    38d4:	0f 11 16             	movups %xmm2,(%rsi)
    38d7:	66 41 0f 6f d3       	movdqa %xmm11,%xmm2
    38dc:	0f 11 5e 10          	movups %xmm3,0x10(%rsi)
    38e0:	66 41 0f 6f dc       	movdqa %xmm12,%xmm3
    38e5:	0f 11 66 20          	movups %xmm4,0x20(%rsi)
    38e9:	66 41 0f 6f e5       	movdqa %xmm13,%xmm4
    38ee:	0f 11 6e 30          	movups %xmm5,0x30(%rsi)
    38f2:	66 41 0f 6f ee       	movdqa %xmm14,%xmm5
    38f7:	0f 11 76 40          	movups %xmm6,0x40(%rsi)
    38fb:	66 41 0f 6f f7       	movdqa %xmm15,%xmm6
    3900:	0f 11 7e 50          	movups %xmm7,0x50(%rsi)
    3904:	66 0f 6f f9          	movdqa %xmm1,%xmm7
    3908:	44 0f 11 46 60       	movups %xmm8,0x60(%rsi)
    390d:	48 8d 76 70          	lea    0x70(%rsi),%rsi
    3911:	48 81 ea 80 00 00 00 	sub    $0x80,%rdx
    3918:	0f 87 52 fc ff ff    	ja     3570 <aesni_cbc_encrypt+0x1c0>
    391e:	41 0f 28 d1          	movaps %xmm9,%xmm2
    3922:	48 8d 49 90          	lea    -0x70(%rcx),%rcx
    3926:	48 83 c2 70          	add    $0x70,%rdx
    392a:	0f 8e 70 03 00 00    	jle    3ca0 <aesni_cbc_encrypt+0x8f0>
    3930:	44 0f 11 0e          	movups %xmm9,(%rsi)
    3934:	48 8d 76 10          	lea    0x10(%rsi),%rsi
    3938:	48 83 fa 50          	cmp    $0x50,%rdx
    393c:	0f 86 ad 01 00 00    	jbe    3aef <aesni_cbc_encrypt+0x73f>
    3942:	41 0f 28 d3          	movaps %xmm11,%xmm2
    3946:	48 83 fa 60          	cmp    $0x60,%rdx
    394a:	77 64                	ja     39b0 <aesni_cbc_encrypt+0x600>
    394c:	44 0f 28 c7          	movaps %xmm7,%xmm8
    3950:	e8 eb ca ff ff       	call   440 <_aesni_decrypt6>
    3955:	66 41 0f ef d2       	pxor   %xmm10,%xmm2
    395a:	45 0f 28 d0          	movaps %xmm8,%xmm10
    395e:	66 41 0f ef db       	pxor   %xmm11,%xmm3
    3963:	f3 0f 7f 16          	movdqu %xmm2,(%rsi)
    3967:	66 41 0f ef e4       	pxor   %xmm12,%xmm4
    396c:	f3 0f 7f 5e 10       	movdqu %xmm3,0x10(%rsi)
    3971:	66 0f ef db          	pxor   %xmm3,%xmm3
    3975:	66 41 0f ef ed       	pxor   %xmm13,%xmm5
    397a:	f3 0f 7f 66 20       	movdqu %xmm4,0x20(%rsi)
    397f:	66 0f ef e4          	pxor   %xmm4,%xmm4
    3983:	66 41 0f ef f6       	pxor   %xmm14,%xmm6
    3988:	f3 0f 7f 6e 30       	movdqu %xmm5,0x30(%rsi)
    398d:	66 0f ef ed          	pxor   %xmm5,%xmm5
    3991:	66 41 0f ef ff       	pxor   %xmm15,%xmm7
    3996:	f3 0f 7f 76 40       	movdqu %xmm6,0x40(%rsi)
    399b:	66 0f ef f6          	pxor   %xmm6,%xmm6
    399f:	48 8d 76 50          	lea    0x50(%rsi),%rsi
    39a3:	66 0f 6f d7          	movdqa %xmm7,%xmm2
    39a7:	66 0f ef ff          	pxor   %xmm7,%xmm7
    39ab:	e9 0e 03 00 00       	jmp    3cbe <aesni_cbc_encrypt+0x90e>
    39b0:	44 0f 10 47 60       	movups 0x60(%rdi),%xmm8
    39b5:	45 0f 57 c9          	xorps  %xmm9,%xmm9
    39b9:	e8 72 cc ff ff       	call   630 <_aesni_decrypt8>
    39be:	44 0f 10 4f 50       	movups 0x50(%rdi),%xmm9
    39c3:	66 41 0f ef d2       	pxor   %xmm10,%xmm2
    39c8:	44 0f 10 57 60       	movups 0x60(%rdi),%xmm10
    39cd:	66 41 0f ef db       	pxor   %xmm11,%xmm3
    39d2:	f3 0f 7f 16          	movdqu %xmm2,(%rsi)
    39d6:	66 41 0f ef e4       	pxor   %xmm12,%xmm4
    39db:	f3 0f 7f 5e 10       	movdqu %xmm3,0x10(%rsi)
    39e0:	66 0f ef db          	pxor   %xmm3,%xmm3
    39e4:	66 41 0f ef ed       	pxor   %xmm13,%xmm5
    39e9:	f3 0f 7f 66 20       	movdqu %xmm4,0x20(%rsi)
    39ee:	66 0f ef e4          	pxor   %xmm4,%xmm4
    39f2:	66 41 0f ef f6       	pxor   %xmm14,%xmm6
    39f7:	f3 0f 7f 6e 30       	movdqu %xmm5,0x30(%rsi)
    39fc:	66 0f ef ed          	pxor   %xmm5,%xmm5
    3a00:	66 41 0f ef ff       	pxor   %xmm15,%xmm7
    3a05:	f3 0f 7f 76 40       	movdqu %xmm6,0x40(%rsi)
    3a0a:	66 0f ef f6          	pxor   %xmm6,%xmm6
    3a0e:	66 45 0f ef c1       	pxor   %xmm9,%xmm8
    3a13:	f3 0f 7f 7e 50       	movdqu %xmm7,0x50(%rsi)
    3a18:	66 0f ef ff          	pxor   %xmm7,%xmm7
    3a1c:	48 8d 76 60          	lea    0x60(%rsi),%rsi
    3a20:	66 41 0f 6f d0       	movdqa %xmm8,%xmm2
    3a25:	66 45 0f ef c0       	pxor   %xmm8,%xmm8
    3a2a:	66 45 0f ef c9       	pxor   %xmm9,%xmm9
    3a2f:	e9 8a 02 00 00       	jmp    3cbe <aesni_cbc_encrypt+0x90e>
    3a34:	66 66 2e 0f 1f 84 00 	data16 cs nopw 0x0(%rax,%rax,1)
    3a3b:	00 00 00 00 
    3a3f:	90                   	nop
    3a40:	0f 11 3e             	movups %xmm7,(%rsi)
    3a43:	48 8d 76 10          	lea    0x10(%rsi),%rsi
    3a47:	f3 0f 6f 17          	movdqu (%rdi),%xmm2
    3a4b:	f3 0f 6f 5f 10       	movdqu 0x10(%rdi),%xmm3
    3a50:	66 44 0f 6f da       	movdqa %xmm2,%xmm11
    3a55:	f3 0f 6f 67 20       	movdqu 0x20(%rdi),%xmm4
    3a5a:	66 44 0f 6f e3       	movdqa %xmm3,%xmm12
    3a5f:	f3 0f 6f 6f 30       	movdqu 0x30(%rdi),%xmm5
    3a64:	66 44 0f 6f ec       	movdqa %xmm4,%xmm13
    3a69:	f3 0f 6f 77 40       	movdqu 0x40(%rdi),%xmm6
    3a6e:	66 44 0f 6f f5       	movdqa %xmm5,%xmm14
    3a73:	f3 0f 6f 7f 50       	movdqu 0x50(%rdi),%xmm7
    3a78:	66 44 0f 6f fe       	movdqa %xmm6,%xmm15
    3a7d:	48 8d 7f 60          	lea    0x60(%rdi),%rdi
    3a81:	66 44 0f 6f c7       	movdqa %xmm7,%xmm8
    3a86:	e8 b5 c9 ff ff       	call   440 <_aesni_decrypt6>
    3a8b:	66 41 0f ef d2       	pxor   %xmm10,%xmm2
    3a90:	66 45 0f 6f d0       	movdqa %xmm8,%xmm10
    3a95:	66 41 0f ef db       	pxor   %xmm11,%xmm3
    3a9a:	f3 0f 7f 16          	movdqu %xmm2,(%rsi)
    3a9e:	66 41 0f ef e4       	pxor   %xmm12,%xmm4
    3aa3:	f3 0f 7f 5e 10       	movdqu %xmm3,0x10(%rsi)
    3aa8:	66 41 0f ef ed       	pxor   %xmm13,%xmm5
    3aad:	f3 0f 7f 66 20       	movdqu %xmm4,0x20(%rsi)
    3ab2:	66 41 0f ef f6       	pxor   %xmm14,%xmm6
    3ab7:	48 89 e9             	mov    %rbp,%rcx
    3aba:	f3 0f 7f 6e 30       	movdqu %xmm5,0x30(%rsi)
    3abf:	66 41 0f ef ff       	pxor   %xmm15,%xmm7
    3ac4:	44 89 d0             	mov    %r10d,%eax
    3ac7:	f3 0f 7f 76 40       	movdqu %xmm6,0x40(%rsi)
    3acc:	48 8d 76 50          	lea    0x50(%rsi),%rsi
    3ad0:	48 83 ea 60          	sub    $0x60,%rdx
    3ad4:	0f 87 66 ff ff ff    	ja     3a40 <aesni_cbc_encrypt+0x690>
    3ada:	66 0f 6f d7          	movdqa %xmm7,%xmm2
    3ade:	48 83 c2 50          	add    $0x50,%rdx
    3ae2:	0f 8e b8 01 00 00    	jle    3ca0 <aesni_cbc_encrypt+0x8f0>
    3ae8:	0f 11 3e             	movups %xmm7,(%rsi)
    3aeb:	48 8d 76 10          	lea    0x10(%rsi),%rsi
    3aef:	0f 10 17             	movups (%rdi),%xmm2
    3af2:	48 83 ea 10          	sub    $0x10,%rdx
    3af6:	0f 86 a4 00 00 00    	jbe    3ba0 <aesni_cbc_encrypt+0x7f0>
    3afc:	0f 10 5f 10          	movups 0x10(%rdi),%xmm3
    3b00:	44 0f 28 da          	movaps %xmm2,%xmm11
    3b04:	48 83 ea 10          	sub    $0x10,%rdx
    3b08:	0f 86 d2 00 00 00    	jbe    3be0 <aesni_cbc_encrypt+0x830>
    3b0e:	0f 10 67 20          	movups 0x20(%rdi),%xmm4
    3b12:	44 0f 28 e3          	movaps %xmm3,%xmm12
    3b16:	48 83 ea 10          	sub    $0x10,%rdx
    3b1a:	0f 86 f0 00 00 00    	jbe    3c10 <aesni_cbc_encrypt+0x860>
    3b20:	0f 10 6f 30          	movups 0x30(%rdi),%xmm5
    3b24:	44 0f 28 ec          	movaps %xmm4,%xmm13
    3b28:	48 83 ea 10          	sub    $0x10,%rdx
    3b2c:	0f 86 1e 01 00 00    	jbe    3c50 <aesni_cbc_encrypt+0x8a0>
    3b32:	0f 10 77 40          	movups 0x40(%rdi),%xmm6
    3b36:	44 0f 28 f5          	movaps %xmm5,%xmm14
    3b3a:	44 0f 28 fe          	movaps %xmm6,%xmm15
    3b3e:	0f 57 ff             	xorps  %xmm7,%xmm7
    3b41:	e8 fa c8 ff ff       	call   440 <_aesni_decrypt6>
    3b46:	66 41 0f ef d2       	pxor   %xmm10,%xmm2
    3b4b:	45 0f 28 d7          	movaps %xmm15,%xmm10
    3b4f:	66 41 0f ef db       	pxor   %xmm11,%xmm3
    3b54:	f3 0f 7f 16          	movdqu %xmm2,(%rsi)
    3b58:	66 41 0f ef e4       	pxor   %xmm12,%xmm4
    3b5d:	f3 0f 7f 5e 10       	movdqu %xmm3,0x10(%rsi)
    3b62:	66 0f ef db          	pxor   %xmm3,%xmm3
    3b66:	66 41 0f ef ed       	pxor   %xmm13,%xmm5
    3b6b:	f3 0f 7f 66 20       	movdqu %xmm4,0x20(%rsi)
    3b70:	66 0f ef e4          	pxor   %xmm4,%xmm4
    3b74:	66 41 0f ef f6       	pxor   %xmm14,%xmm6
    3b79:	f3 0f 7f 6e 30       	movdqu %xmm5,0x30(%rsi)
    3b7e:	66 0f ef ed          	pxor   %xmm5,%xmm5
    3b82:	48 8d 76 40          	lea    0x40(%rsi),%rsi
    3b86:	66 0f 6f d6          	movdqa %xmm6,%xmm2
    3b8a:	66 0f ef f6          	pxor   %xmm6,%xmm6
    3b8e:	66 0f ef ff          	pxor   %xmm7,%xmm7
    3b92:	48 83 ea 10          	sub    $0x10,%rdx
    3b96:	e9 23 01 00 00       	jmp    3cbe <aesni_cbc_encrypt+0x90e>
    3b9b:	0f 1f 44 00 00       	nopl   0x0(%rax,%rax,1)
    3ba0:	44 0f 28 da          	movaps %xmm2,%xmm11
    3ba4:	0f 10 01             	movups (%rcx),%xmm0
    3ba7:	0f 10 49 10          	movups 0x10(%rcx),%xmm1
    3bab:	48 8d 49 20          	lea    0x20(%rcx),%rcx
    3baf:	0f 57 d0             	xorps  %xmm0,%xmm2
    3bb2:	66 0f 38 de d1       	aesdec %xmm1,%xmm2
    3bb7:	ff c8                	dec    %eax
    3bb9:	0f 10 09             	movups (%rcx),%xmm1
    3bbc:	48 8d 49 10          	lea    0x10(%rcx),%rcx
    3bc0:	75 f0                	jne    3bb2 <aesni_cbc_encrypt+0x802>
    3bc2:	66 0f 38 df d1       	aesdeclast %xmm1,%xmm2
    3bc7:	41 0f 57 d2          	xorps  %xmm10,%xmm2
    3bcb:	45 0f 28 d3          	movaps %xmm11,%xmm10
    3bcf:	e9 ea 00 00 00       	jmp    3cbe <aesni_cbc_encrypt+0x90e>
    3bd4:	66 66 2e 0f 1f 84 00 	data16 cs nopw 0x0(%rax,%rax,1)
    3bdb:	00 00 00 00 
    3bdf:	90                   	nop
    3be0:	44 0f 28 e3          	movaps %xmm3,%xmm12
    3be4:	e8 17 c5 ff ff       	call   100 <_aesni_decrypt2>
    3be9:	66 41 0f ef d2       	pxor   %xmm10,%xmm2
    3bee:	45 0f 28 d4          	movaps %xmm12,%xmm10
    3bf2:	66 41 0f ef db       	pxor   %xmm11,%xmm3
    3bf7:	f3 0f 7f 16          	movdqu %xmm2,(%rsi)
    3bfb:	66 0f 6f d3          	movdqa %xmm3,%xmm2
    3bff:	66 0f ef db          	pxor   %xmm3,%xmm3
    3c03:	48 8d 76 10          	lea    0x10(%rsi),%rsi
    3c07:	e9 b2 00 00 00       	jmp    3cbe <aesni_cbc_encrypt+0x90e>
    3c0c:	0f 1f 40 00          	nopl   0x0(%rax)
    3c10:	44 0f 28 ec          	movaps %xmm4,%xmm13
    3c14:	e8 b7 c5 ff ff       	call   1d0 <_aesni_decrypt3>
    3c19:	66 41 0f ef d2       	pxor   %xmm10,%xmm2
    3c1e:	45 0f 28 d5          	movaps %xmm13,%xmm10
    3c22:	66 41 0f ef db       	pxor   %xmm11,%xmm3
    3c27:	f3 0f 7f 16          	movdqu %xmm2,(%rsi)
    3c2b:	66 41 0f ef e4       	pxor   %xmm12,%xmm4
    3c30:	f3 0f 7f 5e 10       	movdqu %xmm3,0x10(%rsi)
    3c35:	66 0f ef db          	pxor   %xmm3,%xmm3
    3c39:	66 0f 6f d4          	movdqa %xmm4,%xmm2
    3c3d:	66 0f ef e4          	pxor   %xmm4,%xmm4
    3c41:	48 8d 76 20          	lea    0x20(%rsi),%rsi
    3c45:	eb 77                	jmp    3cbe <aesni_cbc_encrypt+0x90e>
    3c47:	66 0f 1f 84 00 00 00 	nopw   0x0(%rax,%rax,1)
    3c4e:	00 00 
    3c50:	44 0f 28 f5          	movaps %xmm5,%xmm14
    3c54:	e8 77 c6 ff ff       	call   2d0 <_aesni_decrypt4>
    3c59:	66 41 0f ef d2       	pxor   %xmm10,%xmm2
    3c5e:	45 0f 28 d6          	movaps %xmm14,%xmm10
    3c62:	66 41 0f ef db       	pxor   %xmm11,%xmm3
    3c67:	f3 0f 7f 16          	movdqu %xmm2,(%rsi)
    3c6b:	66 41 0f ef e4       	pxor   %xmm12,%xmm4
    3c70:	f3 0f 7f 5e 10       	movdqu %xmm3,0x10(%rsi)
    3c75:	66 0f ef db          	pxor   %xmm3,%xmm3
    3c79:	66 41 0f ef ed       	pxor   %xmm13,%xmm5
    3c7e:	f3 0f 7f 66 20       	movdqu %xmm4,0x20(%rsi)
    3c83:	66 0f ef e4          	pxor   %xmm4,%xmm4
    3c87:	66 0f 6f d5          	movdqa %xmm5,%xmm2
    3c8b:	66 0f ef ed          	pxor   %xmm5,%xmm5
    3c8f:	48 8d 76 30          	lea    0x30(%rsi),%rsi
    3c93:	eb 29                	jmp    3cbe <aesni_cbc_encrypt+0x90e>
    3c95:	66 66 2e 0f 1f 84 00 	data16 cs nopw 0x0(%rax,%rax,1)
    3c9c:	00 00 00 00 
    3ca0:	66 0f ef db          	pxor   %xmm3,%xmm3
    3ca4:	66 0f ef e4          	pxor   %xmm4,%xmm4
    3ca8:	66 0f ef ed          	pxor   %xmm5,%xmm5
    3cac:	66 0f ef f6          	pxor   %xmm6,%xmm6
    3cb0:	66 0f ef ff          	pxor   %xmm7,%xmm7
    3cb4:	66 45 0f ef c0       	pxor   %xmm8,%xmm8
    3cb9:	66 45 0f ef c9       	pxor   %xmm9,%xmm9
    3cbe:	45 0f 11 10          	movups %xmm10,(%r8)
    3cc2:	48 83 e2 0f          	and    $0xf,%rdx
    3cc6:	75 18                	jne    3ce0 <aesni_cbc_encrypt+0x930>
    3cc8:	0f 11 16             	movups %xmm2,(%rsi)
    3ccb:	66 0f ef d2          	pxor   %xmm2,%xmm2
    3ccf:	eb 31                	jmp    3d02 <aesni_cbc_encrypt+0x952>
    3cd1:	66 66 2e 0f 1f 84 00 	data16 cs nopw 0x0(%rax,%rax,1)
    3cd8:	00 00 00 00 
    3cdc:	0f 1f 40 00          	nopl   0x0(%rax)
    3ce0:	0f 29 14 24          	movaps %xmm2,(%rsp)
    3ce4:	66 0f ef d2          	pxor   %xmm2,%xmm2
    3ce8:	48 c7 c1 10 00 00 00 	mov    $0x10,%rcx
    3cef:	48 89 f7             	mov    %rsi,%rdi
    3cf2:	48 29 d1             	sub    %rdx,%rcx
    3cf5:	48 8d 34 24          	lea    (%rsp),%rsi
    3cf9:	f3 a4                	rep movsb %ds:(%rsi),%es:(%rdi)
    3cfb:	66 90                	xchg   %ax,%ax
    3cfd:	66 0f 7f 14 24       	movdqa %xmm2,(%rsp)
    3d02:	0f 57 c0             	xorps  %xmm0,%xmm0
    3d05:	66 0f ef c9          	pxor   %xmm1,%xmm1
    3d09:	49 8b 6b f8          	mov    -0x8(%r11),%rbp
    3d0d:	49 8d 23             	lea    (%r11),%rsp
    3d10:	f3 c3                	repz ret 
    3d12:	66 66 2e 0f 1f 84 00 	data16 cs nopw 0x0(%rax,%rax,1)
    3d19:	00 00 00 00 
    3d1d:	0f 1f 00             	nopl   (%rax)

0000000000003d20 <aesni_set_decrypt_key>:
    3d20:	48 83 ec 08          	sub    $0x8,%rsp
    3d24:	e8 67 00 00 00       	call   3d90 <aesni_set_encrypt_key>
    3d29:	c1 e6 04             	shl    $0x4,%esi
    3d2c:	85 c0                	test   %eax,%eax
    3d2e:	75 51                	jne    3d81 <aesni_set_decrypt_key+0x61>
    3d30:	48 8d 7c 32 10       	lea    0x10(%rdx,%rsi,1),%rdi
    3d35:	0f 10 02             	movups (%rdx),%xmm0
    3d38:	0f 10 0f             	movups (%rdi),%xmm1
    3d3b:	0f 11 07             	movups %xmm0,(%rdi)
    3d3e:	0f 11 0a             	movups %xmm1,(%rdx)
    3d41:	48 8d 52 10          	lea    0x10(%rdx),%rdx
    3d45:	48 8d 7f f0          	lea    -0x10(%rdi),%rdi
    3d49:	0f 10 02             	movups (%rdx),%xmm0
    3d4c:	0f 10 0f             	movups (%rdi),%xmm1
    3d4f:	66 0f 38 db c0       	aesimc %xmm0,%xmm0
    3d54:	66 0f 38 db c9       	aesimc %xmm1,%xmm1
    3d59:	48 8d 52 10          	lea    0x10(%rdx),%rdx
    3d5d:	48 8d 7f f0          	lea    -0x10(%rdi),%rdi
    3d61:	0f 11 47 10          	movups %xmm0,0x10(%rdi)
    3d65:	0f 11 4a f0          	movups %xmm1,-0x10(%rdx)
    3d69:	48 39 d7             	cmp    %rdx,%rdi
    3d6c:	77 db                	ja     3d49 <aesni_set_decrypt_key+0x29>
    3d6e:	0f 10 02             	movups (%rdx),%xmm0
    3d71:	66 0f 38 db c0       	aesimc %xmm0,%xmm0
    3d76:	66 0f ef c9          	pxor   %xmm1,%xmm1
    3d7a:	0f 11 07             	movups %xmm0,(%rdi)
    3d7d:	66 0f ef c0          	pxor   %xmm0,%xmm0
    3d81:	48 83 c4 08          	add    $0x8,%rsp
    3d85:	f3 c3                	repz ret 
    3d87:	66 0f 1f 84 00 00 00 	nopw   0x0(%rax,%rax,1)
    3d8e:	00 00 

0000000000003d90 <aesni_set_encrypt_key>:
    3d90:	48 83 ec 08          	sub    $0x8,%rsp
    3d94:	48 c7 c0 ff ff ff ff 	mov    $0xffffffffffffffff,%rax
    3d9b:	48 85 ff             	test   %rdi,%rdi
    3d9e:	0f 84 63 04 00 00    	je     4207 <aesni_set_encrypt_key+0x477>
    3da4:	48 85 d2             	test   %rdx,%rdx
    3da7:	0f 84 5a 04 00 00    	je     4207 <aesni_set_encrypt_key+0x477>
    3dad:	41 ba 00 08 00 10    	mov    $0x10000800,%r10d
    3db3:	0f 10 07             	movups (%rdi),%xmm0
    3db6:	0f 57 e4             	xorps  %xmm4,%xmm4
    3db9:	44 23 15 00 00 00 00 	and    0x0(%rip),%r10d        # 3dc0 <aesni_set_encrypt_key+0x30>
    3dc0:	48 8d 42 10          	lea    0x10(%rdx),%rax
    3dc4:	81 fe 00 01 00 00    	cmp    $0x100,%esi
    3dca:	0f 84 b0 02 00 00    	je     4080 <aesni_set_encrypt_key+0x2f0>
    3dd0:	81 fe c0 00 00 00    	cmp    $0xc0,%esi
    3dd6:	0f 84 94 01 00 00    	je     3f70 <aesni_set_encrypt_key+0x1e0>
    3ddc:	81 fe 80 00 00 00    	cmp    $0x80,%esi
    3de2:	0f 85 18 04 00 00    	jne    4200 <aesni_set_encrypt_key+0x470>
    3de8:	be 09 00 00 00       	mov    $0x9,%esi
    3ded:	41 81 fa 00 00 00 10 	cmp    $0x10000000,%r10d
    3df4:	0f 84 86 00 00 00    	je     3e80 <aesni_set_encrypt_key+0xf0>
    3dfa:	0f 11 02             	movups %xmm0,(%rdx)
    3dfd:	66 0f 3a df c8 01    	aeskeygenassist $0x1,%xmm0,%xmm1
    3e03:	e8 2f 04 00 00       	call   4237 <aesni_set_encrypt_key+0x4a7>
    3e08:	66 0f 3a df c8 02    	aeskeygenassist $0x2,%xmm0,%xmm1
    3e0e:	e8 1d 04 00 00       	call   4230 <aesni_set_encrypt_key+0x4a0>
    3e13:	66 0f 3a df c8 04    	aeskeygenassist $0x4,%xmm0,%xmm1
    3e19:	e8 12 04 00 00       	call   4230 <aesni_set_encrypt_key+0x4a0>
    3e1e:	66 0f 3a df c8 08    	aeskeygenassist $0x8,%xmm0,%xmm1
    3e24:	e8 07 04 00 00       	call   4230 <aesni_set_encrypt_key+0x4a0>
    3e29:	66 0f 3a df c8 10    	aeskeygenassist $0x10,%xmm0,%xmm1
    3e2f:	e8 fc 03 00 00       	call   4230 <aesni_set_encrypt_key+0x4a0>
    3e34:	66 0f 3a df c8 20    	aeskeygenassist $0x20,%xmm0,%xmm1
    3e3a:	e8 f1 03 00 00       	call   4230 <aesni_set_encrypt_key+0x4a0>
    3e3f:	66 0f 3a df c8 40    	aeskeygenassist $0x40,%xmm0,%xmm1
    3e45:	e8 e6 03 00 00       	call   4230 <aesni_set_encrypt_key+0x4a0>
    3e4a:	66 0f 3a df c8 80    	aeskeygenassist $0x80,%xmm0,%xmm1
    3e50:	e8 db 03 00 00       	call   4230 <aesni_set_encrypt_key+0x4a0>
    3e55:	66 0f 3a df c8 1b    	aeskeygenassist $0x1b,%xmm0,%xmm1
    3e5b:	e8 d0 03 00 00       	call   4230 <aesni_set_encrypt_key+0x4a0>
    3e60:	66 0f 3a df c8 36    	aeskeygenassist $0x36,%xmm0,%xmm1
    3e66:	e8 c5 03 00 00       	call   4230 <aesni_set_encrypt_key+0x4a0>
    3e6b:	0f 11 00             	movups %xmm0,(%rax)
    3e6e:	89 70 50             	mov    %esi,0x50(%rax)
    3e71:	31 c0                	xor    %eax,%eax
    3e73:	e9 8f 03 00 00       	jmp    4207 <aesni_set_encrypt_key+0x477>
    3e78:	0f 1f 84 00 00 00 00 	nopl   0x0(%rax,%rax,1)
    3e7f:	00 
    3e80:	66 0f 6f 2d 00 00 00 	movdqa 0x0(%rip),%xmm5        # 3e88 <aesni_set_encrypt_key+0xf8>
    3e87:	00 
    3e88:	41 ba 08 00 00 00    	mov    $0x8,%r10d
    3e8e:	66 0f 6f 25 00 00 00 	movdqa 0x0(%rip),%xmm4        # 3e96 <aesni_set_encrypt_key+0x106>
    3e95:	00 
    3e96:	66 0f 6f d0          	movdqa %xmm0,%xmm2
    3e9a:	f3 0f 7f 02          	movdqu %xmm0,(%rdx)
    3e9e:	eb 00                	jmp    3ea0 <aesni_set_encrypt_key+0x110>
    3ea0:	66 0f 38 00 c5       	pshufb %xmm5,%xmm0
    3ea5:	66 0f 38 dd c4       	aesenclast %xmm4,%xmm0
    3eaa:	66 0f 72 f4 01       	pslld  $0x1,%xmm4
    3eaf:	48 8d 40 10          	lea    0x10(%rax),%rax
    3eb3:	66 0f 6f da          	movdqa %xmm2,%xmm3
    3eb7:	66 0f 73 fa 04       	pslldq $0x4,%xmm2
    3ebc:	66 0f ef da          	pxor   %xmm2,%xmm3
    3ec0:	66 0f 73 fa 04       	pslldq $0x4,%xmm2
    3ec5:	66 0f ef da          	pxor   %xmm2,%xmm3
    3ec9:	66 0f 73 fa 04       	pslldq $0x4,%xmm2
    3ece:	66 0f ef d3          	pxor   %xmm3,%xmm2
    3ed2:	66 0f ef c2          	pxor   %xmm2,%xmm0
    3ed6:	f3 0f 7f 40 f0       	movdqu %xmm0,-0x10(%rax)
    3edb:	66 0f 6f d0          	movdqa %xmm0,%xmm2
    3edf:	41 ff ca             	dec    %r10d
    3ee2:	75 bc                	jne    3ea0 <aesni_set_encrypt_key+0x110>
    3ee4:	66 0f 6f 25 00 00 00 	movdqa 0x0(%rip),%xmm4        # 3eec <aesni_set_encrypt_key+0x15c>
    3eeb:	00 
    3eec:	66 0f 38 00 c5       	pshufb %xmm5,%xmm0
    3ef1:	66 0f 38 dd c4       	aesenclast %xmm4,%xmm0
    3ef6:	66 0f 72 f4 01       	pslld  $0x1,%xmm4
    3efb:	66 0f 6f da          	movdqa %xmm2,%xmm3
    3eff:	66 0f 73 fa 04       	pslldq $0x4,%xmm2
    3f04:	66 0f ef da          	pxor   %xmm2,%xmm3
    3f08:	66 0f 73 fa 04       	pslldq $0x4,%xmm2
    3f0d:	66 0f ef da          	pxor   %xmm2,%xmm3
    3f11:	66 0f 73 fa 04       	pslldq $0x4,%xmm2
    3f16:	66 0f ef d3          	pxor   %xmm3,%xmm2
    3f1a:	66 0f ef c2          	pxor   %xmm2,%xmm0
    3f1e:	f3 0f 7f 00          	movdqu %xmm0,(%rax)
    3f22:	66 0f 6f d0          	movdqa %xmm0,%xmm2
    3f26:	66 0f 38 00 c5       	pshufb %xmm5,%xmm0
    3f2b:	66 0f 38 dd c4       	aesenclast %xmm4,%xmm0
    3f30:	66 0f 6f da          	movdqa %xmm2,%xmm3
    3f34:	66 0f 73 fa 04       	pslldq $0x4,%xmm2
    3f39:	66 0f ef da          	pxor   %xmm2,%xmm3
    3f3d:	66 0f 73 fa 04       	pslldq $0x4,%xmm2
    3f42:	66 0f ef da          	pxor   %xmm2,%xmm3
    3f46:	66 0f 73 fa 04       	pslldq $0x4,%xmm2
    3f4b:	66 0f ef d3          	pxor   %xmm3,%xmm2
    3f4f:	66 0f ef c2          	pxor   %xmm2,%xmm0
    3f53:	f3 0f 7f 40 10       	movdqu %xmm0,0x10(%rax)
    3f58:	89 70 60             	mov    %esi,0x60(%rax)
    3f5b:	31 c0                	xor    %eax,%eax
    3f5d:	e9 a5 02 00 00       	jmp    4207 <aesni_set_encrypt_key+0x477>
    3f62:	66 66 2e 0f 1f 84 00 	data16 cs nopw 0x0(%rax,%rax,1)
    3f69:	00 00 00 00 
    3f6d:	0f 1f 00             	nopl   (%rax)
    3f70:	f3 0f 7e 57 10       	movq   0x10(%rdi),%xmm2
    3f75:	be 0b 00 00 00       	mov    $0xb,%esi
    3f7a:	41 81 fa 00 00 00 10 	cmp    $0x10000000,%r10d
    3f81:	74 6d                	je     3ff0 <aesni_set_encrypt_key+0x260>
    3f83:	0f 11 02             	movups %xmm0,(%rdx)
    3f86:	66 0f 3a df ca 01    	aeskeygenassist $0x1,%xmm2,%xmm1
    3f8c:	e8 c6 02 00 00       	call   4257 <aesni_set_encrypt_key+0x4c7>
    3f91:	66 0f 3a df ca 02    	aeskeygenassist $0x2,%xmm2,%xmm1
    3f97:	e8 f4 02 00 00       	call   4290 <aesni_set_encrypt_key+0x500>
    3f9c:	66 0f 3a df ca 04    	aeskeygenassist $0x4,%xmm2,%xmm1
    3fa2:	e8 a9 02 00 00       	call   4250 <aesni_set_encrypt_key+0x4c0>
    3fa7:	66 0f 3a df ca 08    	aeskeygenassist $0x8,%xmm2,%xmm1
    3fad:	e8 de 02 00 00       	call   4290 <aesni_set_encrypt_key+0x500>
    3fb2:	66 0f 3a df ca 10    	aeskeygenassist $0x10,%xmm2,%xmm1
    3fb8:	e8 93 02 00 00       	call   4250 <aesni_set_encrypt_key+0x4c0>
    3fbd:	66 0f 3a df ca 20    	aeskeygenassist $0x20,%xmm2,%xmm1
    3fc3:	e8 c8 02 00 00       	call   4290 <aesni_set_encrypt_key+0x500>
    3fc8:	66 0f 3a df ca 40    	aeskeygenassist $0x40,%xmm2,%xmm1
    3fce:	e8 7d 02 00 00       	call   4250 <aesni_set_encrypt_key+0x4c0>
    3fd3:	66 0f 3a df ca 80    	aeskeygenassist $0x80,%xmm2,%xmm1
    3fd9:	e8 b2 02 00 00       	call   4290 <aesni_set_encrypt_key+0x500>
    3fde:	0f 11 00             	movups %xmm0,(%rax)
    3fe1:	89 70 30             	mov    %esi,0x30(%rax)
    3fe4:	48 31 c0             	xor    %rax,%rax
    3fe7:	e9 1b 02 00 00       	jmp    4207 <aesni_set_encrypt_key+0x477>
    3fec:	0f 1f 40 00          	nopl   0x0(%rax)
    3ff0:	66 0f 6f 2d 00 00 00 	movdqa 0x0(%rip),%xmm5        # 3ff8 <aesni_set_encrypt_key+0x268>
    3ff7:	00 
    3ff8:	66 0f 6f 25 00 00 00 	movdqa 0x0(%rip),%xmm4        # 4000 <aesni_set_encrypt_key+0x270>
    3fff:	00 
    4000:	41 ba 08 00 00 00    	mov    $0x8,%r10d
    4006:	f3 0f 7f 02          	movdqu %xmm0,(%rdx)
    400a:	eb 04                	jmp    4010 <aesni_set_encrypt_key+0x280>
    400c:	0f 1f 40 00          	nopl   0x0(%rax)
    4010:	66 0f d6 10          	movq   %xmm2,(%rax)
    4014:	66 0f 6f ca          	movdqa %xmm2,%xmm1
    4018:	66 0f 38 00 d5       	pshufb %xmm5,%xmm2
    401d:	66 0f 38 dd d4       	aesenclast %xmm4,%xmm2
    4022:	66 0f 72 f4 01       	pslld  $0x1,%xmm4
    4027:	48 8d 40 18          	lea    0x18(%rax),%rax
    402b:	66 0f 6f d8          	movdqa %xmm0,%xmm3
    402f:	66 0f 73 f8 04       	pslldq $0x4,%xmm0
    4034:	66 0f ef d8          	pxor   %xmm0,%xmm3
    4038:	66 0f 73 f8 04       	pslldq $0x4,%xmm0
    403d:	66 0f ef d8          	pxor   %xmm0,%xmm3
    4041:	66 0f 73 f8 04       	pslldq $0x4,%xmm0
    4046:	66 0f ef c3          	pxor   %xmm3,%xmm0
    404a:	66 0f 70 d8 ff       	pshufd $0xff,%xmm0,%xmm3
    404f:	66 0f ef d9          	pxor   %xmm1,%xmm3
    4053:	66 0f 73 f9 04       	pslldq $0x4,%xmm1
    4058:	66 0f ef d9          	pxor   %xmm1,%xmm3
    405c:	66 0f ef c2          	pxor   %xmm2,%xmm0
    4060:	66 0f ef d3          	pxor   %xmm3,%xmm2
    4064:	f3 0f 7f 40 f0       	movdqu %xmm0,-0x10(%rax)
    4069:	41 ff ca             	dec    %r10d
    406c:	75 a2                	jne    4010 <aesni_set_encrypt_key+0x280>
    406e:	89 70 20             	mov    %esi,0x20(%rax)
    4071:	31 c0                	xor    %eax,%eax
    4073:	e9 8f 01 00 00       	jmp    4207 <aesni_set_encrypt_key+0x477>
    4078:	0f 1f 84 00 00 00 00 	nopl   0x0(%rax,%rax,1)
    407f:	00 
    4080:	0f 10 57 10          	movups 0x10(%rdi),%xmm2
    4084:	be 0d 00 00 00       	mov    $0xd,%esi
    4089:	48 8d 40 10          	lea    0x10(%rax),%rax
    408d:	41 81 fa 00 00 00 10 	cmp    $0x10000000,%r10d
    4094:	0f 84 a6 00 00 00    	je     4140 <aesni_set_encrypt_key+0x3b0>
    409a:	0f 11 02             	movups %xmm0,(%rdx)
    409d:	0f 11 52 10          	movups %xmm2,0x10(%rdx)
    40a1:	66 0f 3a df ca 01    	aeskeygenassist $0x1,%xmm2,%xmm1
    40a7:	e8 0b 02 00 00       	call   42b7 <aesni_set_encrypt_key+0x527>
    40ac:	66 0f 3a df c8 01    	aeskeygenassist $0x1,%xmm0,%xmm1
    40b2:	e8 19 02 00 00       	call   42d0 <aesni_set_encrypt_key+0x540>
    40b7:	66 0f 3a df ca 02    	aeskeygenassist $0x2,%xmm2,%xmm1
    40bd:	e8 ee 01 00 00       	call   42b0 <aesni_set_encrypt_key+0x520>
    40c2:	66 0f 3a df c8 02    	aeskeygenassist $0x2,%xmm0,%xmm1
    40c8:	e8 03 02 00 00       	call   42d0 <aesni_set_encrypt_key+0x540>
    40cd:	66 0f 3a df ca 04    	aeskeygenassist $0x4,%xmm2,%xmm1
    40d3:	e8 d8 01 00 00       	call   42b0 <aesni_set_encrypt_key+0x520>
    40d8:	66 0f 3a df c8 04    	aeskeygenassist $0x4,%xmm0,%xmm1
    40de:	e8 ed 01 00 00       	call   42d0 <aesni_set_encrypt_key+0x540>
    40e3:	66 0f 3a df ca 08    	aeskeygenassist $0x8,%xmm2,%xmm1
    40e9:	e8 c2 01 00 00       	call   42b0 <aesni_set_encrypt_key+0x520>
    40ee:	66 0f 3a df c8 08    	aeskeygenassist $0x8,%xmm0,%xmm1
    40f4:	e8 d7 01 00 00       	call   42d0 <aesni_set_encrypt_key+0x540>
    40f9:	66 0f 3a df ca 10    	aeskeygenassist $0x10,%xmm2,%xmm1
    40ff:	e8 ac 01 00 00       	call   42b0 <aesni_set_encrypt_key+0x520>
    4104:	66 0f 3a df c8 10    	aeskeygenassist $0x10,%xmm0,%xmm1
    410a:	e8 c1 01 00 00       	call   42d0 <aesni_set_encrypt_key+0x540>
    410f:	66 0f 3a df ca 20    	aeskeygenassist $0x20,%xmm2,%xmm1
    4115:	e8 96 01 00 00       	call   42b0 <aesni_set_encrypt_key+0x520>
    411a:	66 0f 3a df c8 20    	aeskeygenassist $0x20,%xmm0,%xmm1
    4120:	e8 ab 01 00 00       	call   42d0 <aesni_set_encrypt_key+0x540>
    4125:	66 0f 3a df ca 40    	aeskeygenassist $0x40,%xmm2,%xmm1
    412b:	e8 80 01 00 00       	call   42b0 <aesni_set_encrypt_key+0x520>
    4130:	0f 11 00             	movups %xmm0,(%rax)
    4133:	89 70 10             	mov    %esi,0x10(%rax)
    4136:	48 31 c0             	xor    %rax,%rax
    4139:	e9 c9 00 00 00       	jmp    4207 <aesni_set_encrypt_key+0x477>
    413e:	66 90                	xchg   %ax,%ax
    4140:	66 0f 6f 2d 00 00 00 	movdqa 0x0(%rip),%xmm5        # 4148 <aesni_set_encrypt_key+0x3b8>
    4147:	00 
    4148:	66 0f 6f 25 00 00 00 	movdqa 0x0(%rip),%xmm4        # 4150 <aesni_set_encrypt_key+0x3c0>
    414f:	00 
    4150:	41 ba 07 00 00 00    	mov    $0x7,%r10d
    4156:	f3 0f 7f 02          	movdqu %xmm0,(%rdx)
    415a:	66 0f 6f ca          	movdqa %xmm2,%xmm1
    415e:	f3 0f 7f 52 10       	movdqu %xmm2,0x10(%rdx)
    4163:	eb 0b                	jmp    4170 <aesni_set_encrypt_key+0x3e0>
    4165:	66 66 2e 0f 1f 84 00 	data16 cs nopw 0x0(%rax,%rax,1)
    416c:	00 00 00 00 
    4170:	66 0f 38 00 d5       	pshufb %xmm5,%xmm2
    4175:	66 0f 38 dd d4       	aesenclast %xmm4,%xmm2
    417a:	66 0f 6f d8          	movdqa %xmm0,%xmm3
    417e:	66 0f 73 f8 04       	pslldq $0x4,%xmm0
    4183:	66 0f ef d8          	pxor   %xmm0,%xmm3
    4187:	66 0f 73 f8 04       	pslldq $0x4,%xmm0
    418c:	66 0f ef d8          	pxor   %xmm0,%xmm3
    4190:	66 0f 73 f8 04       	pslldq $0x4,%xmm0
    4195:	66 0f ef c3          	pxor   %xmm3,%xmm0
    4199:	66 0f 72 f4 01       	pslld  $0x1,%xmm4
    419e:	66 0f ef c2          	pxor   %xmm2,%xmm0
    41a2:	f3 0f 7f 00          	movdqu %xmm0,(%rax)
    41a6:	41 ff ca             	dec    %r10d
    41a9:	74 40                	je     41eb <aesni_set_encrypt_key+0x45b>
    41ab:	66 0f 70 d0 ff       	pshufd $0xff,%xmm0,%xmm2
    41b0:	66 0f ef db          	pxor   %xmm3,%xmm3
    41b4:	66 0f 38 dd d3       	aesenclast %xmm3,%xmm2
    41b9:	66 0f 6f d9          	movdqa %xmm1,%xmm3
    41bd:	66 0f 73 f9 04       	pslldq $0x4,%xmm1
    41c2:	66 0f ef d9          	pxor   %xmm1,%xmm3
    41c6:	66 0f 73 f9 04       	pslldq $0x4,%xmm1
    41cb:	66 0f ef d9          	pxor   %xmm1,%xmm3
    41cf:	66 0f 73 f9 04       	pslldq $0x4,%xmm1
    41d4:	66 0f ef cb          	pxor   %xmm3,%xmm1
    41d8:	66 0f ef d1          	pxor   %xmm1,%xmm2
    41dc:	f3 0f 7f 50 10       	movdqu %xmm2,0x10(%rax)
    41e1:	48 8d 40 20          	lea    0x20(%rax),%rax
    41e5:	66 0f 6f ca          	movdqa %xmm2,%xmm1
    41e9:	eb 85                	jmp    4170 <aesni_set_encrypt_key+0x3e0>
    41eb:	89 70 10             	mov    %esi,0x10(%rax)
    41ee:	31 c0                	xor    %eax,%eax
    41f0:	eb 15                	jmp    4207 <aesni_set_encrypt_key+0x477>
    41f2:	66 66 2e 0f 1f 84 00 	data16 cs nopw 0x0(%rax,%rax,1)
    41f9:	00 00 00 00 
    41fd:	0f 1f 00             	nopl   (%rax)
    4200:	48 c7 c0 fe ff ff ff 	mov    $0xfffffffffffffffe,%rax
    4207:	66 0f ef c0          	pxor   %xmm0,%xmm0
    420b:	66 0f ef c9          	pxor   %xmm1,%xmm1
    420f:	66 0f ef d2          	pxor   %xmm2,%xmm2
    4213:	66 0f ef db          	pxor   %xmm3,%xmm3
    4217:	66 0f ef e4          	pxor   %xmm4,%xmm4
    421b:	66 0f ef ed          	pxor   %xmm5,%xmm5
    421f:	48 83 c4 08          	add    $0x8,%rsp
    4223:	f3 c3                	repz ret 
    4225:	66 66 2e 0f 1f 84 00 	data16 cs nopw 0x0(%rax,%rax,1)
    422c:	00 00 00 00 
    4230:	0f 11 00             	movups %xmm0,(%rax)
    4233:	48 8d 40 10          	lea    0x10(%rax),%rax
    4237:	0f c6 e0 10          	shufps $0x10,%xmm0,%xmm4
    423b:	0f 57 c4             	xorps  %xmm4,%xmm0
    423e:	0f c6 e0 8c          	shufps $0x8c,%xmm0,%xmm4
    4242:	0f 57 c4             	xorps  %xmm4,%xmm0
    4245:	0f c6 c9 ff          	shufps $0xff,%xmm1,%xmm1
    4249:	0f 57 c1             	xorps  %xmm1,%xmm0
    424c:	f3 c3                	repz ret 
    424e:	66 90                	xchg   %ax,%ax
    4250:	0f 11 00             	movups %xmm0,(%rax)
    4253:	48 8d 40 10          	lea    0x10(%rax),%rax
    4257:	0f 28 ea             	movaps %xmm2,%xmm5
    425a:	0f c6 e0 10          	shufps $0x10,%xmm0,%xmm4
    425e:	66 0f 6f da          	movdqa %xmm2,%xmm3
    4262:	0f 57 c4             	xorps  %xmm4,%xmm0
    4265:	0f c6 e0 8c          	shufps $0x8c,%xmm0,%xmm4
    4269:	66 0f 73 fb 04       	pslldq $0x4,%xmm3
    426e:	0f 57 c4             	xorps  %xmm4,%xmm0
    4271:	66 0f 70 c9 55       	pshufd $0x55,%xmm1,%xmm1
    4276:	66 0f ef d3          	pxor   %xmm3,%xmm2
    427a:	66 0f ef c1          	pxor   %xmm1,%xmm0
    427e:	66 0f 70 d8 ff       	pshufd $0xff,%xmm0,%xmm3
    4283:	66 0f ef d3          	pxor   %xmm3,%xmm2
    4287:	f3 c3                	repz ret 
    4289:	0f 1f 80 00 00 00 00 	nopl   0x0(%rax)
    4290:	0f 28 d8             	movaps %xmm0,%xmm3
    4293:	0f c6 e8 44          	shufps $0x44,%xmm0,%xmm5
    4297:	0f 11 28             	movups %xmm5,(%rax)
    429a:	0f c6 da 4e          	shufps $0x4e,%xmm2,%xmm3
    429e:	0f 11 58 10          	movups %xmm3,0x10(%rax)
    42a2:	48 8d 40 20          	lea    0x20(%rax),%rax
    42a6:	eb b2                	jmp    425a <aesni_set_encrypt_key+0x4ca>
    42a8:	0f 1f 84 00 00 00 00 	nopl   0x0(%rax,%rax,1)
    42af:	00 
    42b0:	0f 11 10             	movups %xmm2,(%rax)
    42b3:	48 8d 40 10          	lea    0x10(%rax),%rax
    42b7:	0f c6 e0 10          	shufps $0x10,%xmm0,%xmm4
    42bb:	0f 57 c4             	xorps  %xmm4,%xmm0
    42be:	0f c6 e0 8c          	shufps $0x8c,%xmm0,%xmm4
    42c2:	0f 57 c4             	xorps  %xmm4,%xmm0
    42c5:	0f c6 c9 ff          	shufps $0xff,%xmm1,%xmm1
    42c9:	0f 57 c1             	xorps  %xmm1,%xmm0
    42cc:	f3 c3                	repz ret 
    42ce:	66 90                	xchg   %ax,%ax
    42d0:	0f 11 00             	movups %xmm0,(%rax)
    42d3:	48 8d 40 10          	lea    0x10(%rax),%rax
    42d7:	0f c6 e2 10          	shufps $0x10,%xmm2,%xmm4
    42db:	0f 57 d4             	xorps  %xmm4,%xmm2
    42de:	0f c6 e2 8c          	shufps $0x8c,%xmm2,%xmm4
    42e2:	0f 57 d4             	xorps  %xmm4,%xmm2
    42e5:	0f c6 c9 aa          	shufps $0xaa,%xmm1,%xmm1
    42e9:	0f 57 d1             	xorps  %xmm1,%xmm2
    42ec:	f3 c3                	repz ret 
