
dump_x86_64_libjade:     file format elf64-x86-64


Disassembly of section .init:

0000000000001000 <_init>:
    1000:	f3 0f 1e fa          	endbr64 
    1004:	48 83 ec 08          	sub    $0x8,%rsp
    1008:	48 8b 05 c1 4f 00 00 	mov    0x4fc1(%rip),%rax        # 5fd0 <__gmon_start__@Base>
    100f:	48 85 c0             	test   %rax,%rax
    1012:	74 02                	je     1016 <_init+0x16>
    1014:	ff d0                	call   *%rax
    1016:	48 83 c4 08          	add    $0x8,%rsp
    101a:	c3                   	ret    

Disassembly of section .plt:

0000000000001020 <putchar@plt-0x10>:
    1020:	ff 35 6a 4f 00 00    	push   0x4f6a(%rip)        # 5f90 <_GLOBAL_OFFSET_TABLE_+0x8>
    1026:	ff 25 6c 4f 00 00    	jmp    *0x4f6c(%rip)        # 5f98 <_GLOBAL_OFFSET_TABLE_+0x10>
    102c:	0f 1f 40 00          	nopl   0x0(%rax)

0000000000001030 <putchar@plt>:
    1030:	ff 25 6a 4f 00 00    	jmp    *0x4f6a(%rip)        # 5fa0 <putchar@GLIBC_2.2.5>
    1036:	68 00 00 00 00       	push   $0x0
    103b:	e9 e0 ff ff ff       	jmp    1020 <_init+0x20>

0000000000001040 <__stack_chk_fail@plt>:
    1040:	ff 25 62 4f 00 00    	jmp    *0x4f62(%rip)        # 5fa8 <__stack_chk_fail@GLIBC_2.4>
    1046:	68 01 00 00 00       	push   $0x1
    104b:	e9 d0 ff ff ff       	jmp    1020 <_init+0x20>

0000000000001050 <__isoc99_sscanf@plt>:
    1050:	ff 25 5a 4f 00 00    	jmp    *0x4f5a(%rip)        # 5fb0 <__isoc99_sscanf@GLIBC_2.7>
    1056:	68 02 00 00 00       	push   $0x2
    105b:	e9 c0 ff ff ff       	jmp    1020 <_init+0x20>

0000000000001060 <__printf_chk@plt>:
    1060:	ff 25 52 4f 00 00    	jmp    *0x4f52(%rip)        # 5fb8 <__printf_chk@GLIBC_2.3.4>
    1066:	68 03 00 00 00       	push   $0x3
    106b:	e9 b0 ff ff ff       	jmp    1020 <_init+0x20>

Disassembly of section .plt.got:

0000000000001070 <__cxa_finalize@plt>:
    1070:	ff 25 6a 4f 00 00    	jmp    *0x4f6a(%rip)        # 5fe0 <__cxa_finalize@GLIBC_2.2.5>
    1076:	66 90                	xchg   %ax,%ax

Disassembly of section .text:

0000000000001080 <main>:
    1080:	f3 0f 1e fa          	endbr64 
    1084:	55                   	push   %rbp
    1085:	48 89 e5             	mov    %rsp,%rbp
    1088:	41 57                	push   %r15
    108a:	41 56                	push   %r14
    108c:	48 8d 55 c0          	lea    -0x40(%rbp),%rdx
    1090:	4c 8d 7d a0          	lea    -0x60(%rbp),%r15
    1094:	41 55                	push   %r13
    1096:	4c 8d 75 80          	lea    -0x80(%rbp),%r14
    109a:	4c 8d 2d 75 2f 00 00 	lea    0x2f75(%rip),%r13        # 4016 <_IO_stdin_used+0x16>
    10a1:	41 54                	push   %r12
    10a3:	53                   	push   %rbx
    10a4:	48 81 ec 98 00 00 00 	sub    $0x98,%rsp
    10ab:	64 48 8b 04 25 28 00 	mov    %fs:0x28,%rax
    10b2:	00 00 
    10b4:	48 89 45 c8          	mov    %rax,-0x38(%rbp)
    10b8:	48 8d 05 e1 4a 00 00 	lea    0x4ae1(%rip),%rax        # 5ba0 <test_vectors>
    10bf:	48 89 95 40 ff ff ff 	mov    %rdx,-0xc0(%rbp)
    10c6:	48 c7 85 78 ff ff ff 	movq   $0x0,-0x88(%rbp)
    10cd:	00 00 00 00 
    10d1:	48 89 85 68 ff ff ff 	mov    %rax,-0x98(%rbp)
    10d8:	0f 1f 84 00 00 00 00 	nopl   0x0(%rax,%rax,1)
    10df:	00 
    10e0:	48 83 85 78 ff ff ff 	addq   $0x1,-0x88(%rbp)
    10e7:	01 
    10e8:	48 8b 95 78 ff ff ff 	mov    -0x88(%rbp),%rdx
    10ef:	bf 01 00 00 00       	mov    $0x1,%edi
    10f4:	31 c0                	xor    %eax,%eax
    10f6:	48 8d 35 07 2f 00 00 	lea    0x2f07(%rip),%rsi        # 4004 <_IO_stdin_used+0x4>
    10fd:	48 89 a5 60 ff ff ff 	mov    %rsp,-0xa0(%rbp)
    1104:	e8 57 ff ff ff       	call   1060 <__printf_chk@plt>
    1109:	48 8b 9d 68 ff ff ff 	mov    -0x98(%rbp),%rbx
    1110:	49 89 e2             	mov    %rsp,%r10
    1113:	48 8b 33             	mov    (%rbx),%rsi
    1116:	48 8b 7b 10          	mov    0x10(%rbx),%rdi
    111a:	48 8b 4b 08          	mov    0x8(%rbx),%rcx
    111e:	4c 8d 46 0f          	lea    0xf(%rsi),%r8
    1122:	48 89 b5 70 ff ff ff 	mov    %rsi,-0x90(%rbp)
    1129:	4d 89 c1             	mov    %r8,%r9
    112c:	49 81 e0 00 f0 ff ff 	and    $0xfffffffffffff000,%r8
    1133:	48 89 bd 58 ff ff ff 	mov    %rdi,-0xa8(%rbp)
    113a:	4d 29 c2             	sub    %r8,%r10
    113d:	49 83 e1 f0          	and    $0xfffffffffffffff0,%r9
    1141:	4c 39 d4             	cmp    %r10,%rsp
    1144:	74 15                	je     115b <main+0xdb>
    1146:	48 81 ec 00 10 00 00 	sub    $0x1000,%rsp
    114d:	48 83 8c 24 f8 0f 00 	orq    $0x0,0xff8(%rsp)
    1154:	00 00 
    1156:	4c 39 d4             	cmp    %r10,%rsp
    1159:	75 eb                	jne    1146 <main+0xc6>
    115b:	41 81 e1 ff 0f 00 00 	and    $0xfff,%r9d
    1162:	4c 29 cc             	sub    %r9,%rsp
    1165:	4d 85 c9             	test   %r9,%r9
    1168:	74 06                	je     1170 <main+0xf0>
    116a:	4a 83 4c 0c f8 00    	orq    $0x0,-0x8(%rsp,%r9,1)
    1170:	4c 8b 9d 70 ff ff ff 	mov    -0x90(%rbp),%r11
    1177:	48 89 a5 48 ff ff ff 	mov    %rsp,-0xb8(%rbp)
    117e:	4d 85 db             	test   %r11,%r11
    1181:	0f 84 b2 01 00 00    	je     1339 <main+0x2b9>
    1187:	4b 8d 54 1b fe       	lea    -0x2(%r11,%r11,1),%rdx
    118c:	4a 8d 04 59          	lea    (%rcx,%r11,2),%rax
    1190:	48 89 cb             	mov    %rcx,%rbx
    1193:	49 89 e4             	mov    %rsp,%r12
    1196:	48 d1 ea             	shr    %rdx
    1199:	48 89 85 50 ff ff ff 	mov    %rax,-0xb0(%rbp)
    11a0:	48 83 c2 01          	add    $0x1,%rdx
    11a4:	83 e2 07             	and    $0x7,%edx
    11a7:	0f 84 e2 00 00 00    	je     128f <main+0x20f>
    11ad:	48 83 fa 01          	cmp    $0x1,%rdx
    11b1:	0f 84 b3 00 00 00    	je     126a <main+0x1ea>
    11b7:	48 83 fa 02          	cmp    $0x2,%rdx
    11bb:	0f 84 91 00 00 00    	je     1252 <main+0x1d2>
    11c1:	48 83 fa 03          	cmp    $0x3,%rdx
    11c5:	74 73                	je     123a <main+0x1ba>
    11c7:	48 83 fa 04          	cmp    $0x4,%rdx
    11cb:	74 55                	je     1222 <main+0x1a2>
    11cd:	48 83 fa 05          	cmp    $0x5,%rdx
    11d1:	74 37                	je     120a <main+0x18a>
    11d3:	48 83 fa 06          	cmp    $0x6,%rdx
    11d7:	74 19                	je     11f2 <main+0x172>
    11d9:	48 89 e2             	mov    %rsp,%rdx
    11dc:	4c 89 ee             	mov    %r13,%rsi
    11df:	48 89 cf             	mov    %rcx,%rdi
    11e2:	31 c0                	xor    %eax,%eax
    11e4:	e8 67 fe ff ff       	call   1050 <__isoc99_sscanf@plt>
    11e9:	48 83 c3 02          	add    $0x2,%rbx
    11ed:	4c 8d 64 24 01       	lea    0x1(%rsp),%r12
    11f2:	4c 89 e2             	mov    %r12,%rdx
    11f5:	48 89 df             	mov    %rbx,%rdi
    11f8:	4c 89 ee             	mov    %r13,%rsi
    11fb:	31 c0                	xor    %eax,%eax
    11fd:	e8 4e fe ff ff       	call   1050 <__isoc99_sscanf@plt>
    1202:	48 83 c3 02          	add    $0x2,%rbx
    1206:	49 83 c4 01          	add    $0x1,%r12
    120a:	4c 89 e2             	mov    %r12,%rdx
    120d:	48 89 df             	mov    %rbx,%rdi
    1210:	4c 89 ee             	mov    %r13,%rsi
    1213:	31 c0                	xor    %eax,%eax
    1215:	e8 36 fe ff ff       	call   1050 <__isoc99_sscanf@plt>
    121a:	48 83 c3 02          	add    $0x2,%rbx
    121e:	49 83 c4 01          	add    $0x1,%r12
    1222:	4c 89 e2             	mov    %r12,%rdx
    1225:	48 89 df             	mov    %rbx,%rdi
    1228:	4c 89 ee             	mov    %r13,%rsi
    122b:	31 c0                	xor    %eax,%eax
    122d:	e8 1e fe ff ff       	call   1050 <__isoc99_sscanf@plt>
    1232:	48 83 c3 02          	add    $0x2,%rbx
    1236:	49 83 c4 01          	add    $0x1,%r12
    123a:	4c 89 e2             	mov    %r12,%rdx
    123d:	48 89 df             	mov    %rbx,%rdi
    1240:	4c 89 ee             	mov    %r13,%rsi
    1243:	31 c0                	xor    %eax,%eax
    1245:	e8 06 fe ff ff       	call   1050 <__isoc99_sscanf@plt>
    124a:	48 83 c3 02          	add    $0x2,%rbx
    124e:	49 83 c4 01          	add    $0x1,%r12
    1252:	4c 89 e2             	mov    %r12,%rdx
    1255:	48 89 df             	mov    %rbx,%rdi
    1258:	4c 89 ee             	mov    %r13,%rsi
    125b:	31 c0                	xor    %eax,%eax
    125d:	e8 ee fd ff ff       	call   1050 <__isoc99_sscanf@plt>
    1262:	48 83 c3 02          	add    $0x2,%rbx
    1266:	49 83 c4 01          	add    $0x1,%r12
    126a:	4c 89 e2             	mov    %r12,%rdx
    126d:	48 89 df             	mov    %rbx,%rdi
    1270:	4c 89 ee             	mov    %r13,%rsi
    1273:	31 c0                	xor    %eax,%eax
    1275:	e8 d6 fd ff ff       	call   1050 <__isoc99_sscanf@plt>
    127a:	48 83 c3 02          	add    $0x2,%rbx
    127e:	49 83 c4 01          	add    $0x1,%r12
    1282:	48 3b 9d 50 ff ff ff 	cmp    -0xb0(%rbp),%rbx
    1289:	0f 84 aa 00 00 00    	je     1339 <main+0x2b9>
    128f:	4c 89 e2             	mov    %r12,%rdx
    1292:	48 89 df             	mov    %rbx,%rdi
    1295:	4c 89 ee             	mov    %r13,%rsi
    1298:	31 c0                	xor    %eax,%eax
    129a:	e8 b1 fd ff ff       	call   1050 <__isoc99_sscanf@plt>
    129f:	48 8d 7b 02          	lea    0x2(%rbx),%rdi
    12a3:	49 8d 54 24 01       	lea    0x1(%r12),%rdx
    12a8:	31 c0                	xor    %eax,%eax
    12aa:	4c 89 ee             	mov    %r13,%rsi
    12ad:	e8 9e fd ff ff       	call   1050 <__isoc99_sscanf@plt>
    12b2:	48 8d 7b 04          	lea    0x4(%rbx),%rdi
    12b6:	49 8d 54 24 02       	lea    0x2(%r12),%rdx
    12bb:	31 c0                	xor    %eax,%eax
    12bd:	4c 89 ee             	mov    %r13,%rsi
    12c0:	e8 8b fd ff ff       	call   1050 <__isoc99_sscanf@plt>
    12c5:	48 8d 7b 06          	lea    0x6(%rbx),%rdi
    12c9:	49 8d 54 24 03       	lea    0x3(%r12),%rdx
    12ce:	31 c0                	xor    %eax,%eax
    12d0:	4c 89 ee             	mov    %r13,%rsi
    12d3:	e8 78 fd ff ff       	call   1050 <__isoc99_sscanf@plt>
    12d8:	48 8d 7b 08          	lea    0x8(%rbx),%rdi
    12dc:	49 8d 54 24 04       	lea    0x4(%r12),%rdx
    12e1:	31 c0                	xor    %eax,%eax
    12e3:	4c 89 ee             	mov    %r13,%rsi
    12e6:	e8 65 fd ff ff       	call   1050 <__isoc99_sscanf@plt>
    12eb:	48 8d 7b 0a          	lea    0xa(%rbx),%rdi
    12ef:	49 8d 54 24 05       	lea    0x5(%r12),%rdx
    12f4:	31 c0                	xor    %eax,%eax
    12f6:	4c 89 ee             	mov    %r13,%rsi
    12f9:	e8 52 fd ff ff       	call   1050 <__isoc99_sscanf@plt>
    12fe:	48 8d 7b 0c          	lea    0xc(%rbx),%rdi
    1302:	49 8d 54 24 06       	lea    0x6(%r12),%rdx
    1307:	31 c0                	xor    %eax,%eax
    1309:	4c 89 ee             	mov    %r13,%rsi
    130c:	e8 3f fd ff ff       	call   1050 <__isoc99_sscanf@plt>
    1311:	48 8d 7b 0e          	lea    0xe(%rbx),%rdi
    1315:	49 8d 54 24 07       	lea    0x7(%r12),%rdx
    131a:	31 c0                	xor    %eax,%eax
    131c:	4c 89 ee             	mov    %r13,%rsi
    131f:	48 83 c3 10          	add    $0x10,%rbx
    1323:	49 83 c4 08          	add    $0x8,%r12
    1327:	e8 24 fd ff ff       	call   1050 <__isoc99_sscanf@plt>
    132c:	48 3b 9d 50 ff ff ff 	cmp    -0xb0(%rbp),%rbx
    1333:	0f 85 56 ff ff ff    	jne    128f <main+0x20f>
    1339:	4c 8b a5 58 ff ff ff 	mov    -0xa8(%rbp),%r12
    1340:	4c 89 bd 58 ff ff ff 	mov    %r15,-0xa8(%rbp)
    1347:	4c 89 fb             	mov    %r15,%rbx
    134a:	48 89 da             	mov    %rbx,%rdx
    134d:	4c 89 e7             	mov    %r12,%rdi
    1350:	4c 89 ee             	mov    %r13,%rsi
    1353:	31 c0                	xor    %eax,%eax
    1355:	e8 f6 fc ff ff       	call   1050 <__isoc99_sscanf@plt>
    135a:	49 8d 7c 24 02       	lea    0x2(%r12),%rdi
    135f:	48 8d 53 01          	lea    0x1(%rbx),%rdx
    1363:	31 c0                	xor    %eax,%eax
    1365:	4c 89 ee             	mov    %r13,%rsi
    1368:	e8 e3 fc ff ff       	call   1050 <__isoc99_sscanf@plt>
    136d:	49 8d 7c 24 04       	lea    0x4(%r12),%rdi
    1372:	48 8d 53 02          	lea    0x2(%rbx),%rdx
    1376:	31 c0                	xor    %eax,%eax
    1378:	4c 89 ee             	mov    %r13,%rsi
    137b:	e8 d0 fc ff ff       	call   1050 <__isoc99_sscanf@plt>
    1380:	49 8d 7c 24 06       	lea    0x6(%r12),%rdi
    1385:	48 8d 53 03          	lea    0x3(%rbx),%rdx
    1389:	31 c0                	xor    %eax,%eax
    138b:	4c 89 ee             	mov    %r13,%rsi
    138e:	e8 bd fc ff ff       	call   1050 <__isoc99_sscanf@plt>
    1393:	49 8d 7c 24 08       	lea    0x8(%r12),%rdi
    1398:	48 8d 53 04          	lea    0x4(%rbx),%rdx
    139c:	31 c0                	xor    %eax,%eax
    139e:	4c 89 ee             	mov    %r13,%rsi
    13a1:	e8 aa fc ff ff       	call   1050 <__isoc99_sscanf@plt>
    13a6:	49 8d 7c 24 0a       	lea    0xa(%r12),%rdi
    13ab:	48 8d 53 05          	lea    0x5(%rbx),%rdx
    13af:	31 c0                	xor    %eax,%eax
    13b1:	4c 89 ee             	mov    %r13,%rsi
    13b4:	e8 97 fc ff ff       	call   1050 <__isoc99_sscanf@plt>
    13b9:	49 8d 7c 24 0c       	lea    0xc(%r12),%rdi
    13be:	48 8d 53 06          	lea    0x6(%rbx),%rdx
    13c2:	31 c0                	xor    %eax,%eax
    13c4:	4c 89 ee             	mov    %r13,%rsi
    13c7:	e8 84 fc ff ff       	call   1050 <__isoc99_sscanf@plt>
    13cc:	49 8d 7c 24 0e       	lea    0xe(%r12),%rdi
    13d1:	48 8d 53 07          	lea    0x7(%rbx),%rdx
    13d5:	31 c0                	xor    %eax,%eax
    13d7:	4c 89 ee             	mov    %r13,%rsi
    13da:	49 83 c4 10          	add    $0x10,%r12
    13de:	48 83 c3 08          	add    $0x8,%rbx
    13e2:	e8 69 fc ff ff       	call   1050 <__isoc99_sscanf@plt>
    13e7:	48 3b 9d 40 ff ff ff 	cmp    -0xc0(%rbp),%rbx
    13ee:	0f 85 56 ff ff ff    	jne    134a <main+0x2ca>
    13f4:	48 8b 95 70 ff ff ff 	mov    -0x90(%rbp),%rdx
    13fb:	48 8b b5 48 ff ff ff 	mov    -0xb8(%rbp),%rsi
    1402:	4c 89 f7             	mov    %r14,%rdi
    1405:	e8 f6 03 00 00       	call   1800 <_jade_hash_sha3_256_amd64>
    140a:	85 c0                	test   %eax,%eax
    140c:	0f 85 f6 00 00 00    	jne    1508 <main+0x488>
    1412:	31 f6                	xor    %esi,%esi
    1414:	41 0f b6 0c 37       	movzbl (%r15,%rsi,1),%ecx
    1419:	41 38 0c 36          	cmp    %cl,(%r14,%rsi,1)
    141d:	0f 85 e5 00 00 00    	jne    1508 <main+0x488>
    1423:	41 0f b6 7c 37 01    	movzbl 0x1(%r15,%rsi,1),%edi
    1429:	41 38 7c 36 01       	cmp    %dil,0x1(%r14,%rsi,1)
    142e:	0f 85 d4 00 00 00    	jne    1508 <main+0x488>
    1434:	45 0f b6 44 37 02    	movzbl 0x2(%r15,%rsi,1),%r8d
    143a:	45 38 44 36 02       	cmp    %r8b,0x2(%r14,%rsi,1)
    143f:	0f 85 c3 00 00 00    	jne    1508 <main+0x488>
    1445:	45 0f b6 4c 37 03    	movzbl 0x3(%r15,%rsi,1),%r9d
    144b:	45 38 4c 36 03       	cmp    %r9b,0x3(%r14,%rsi,1)
    1450:	0f 85 b2 00 00 00    	jne    1508 <main+0x488>
    1456:	45 0f b6 54 37 04    	movzbl 0x4(%r15,%rsi,1),%r10d
    145c:	45 38 54 36 04       	cmp    %r10b,0x4(%r14,%rsi,1)
    1461:	0f 85 a1 00 00 00    	jne    1508 <main+0x488>
    1467:	45 0f b6 5c 37 05    	movzbl 0x5(%r15,%rsi,1),%r11d
    146d:	45 38 5c 36 05       	cmp    %r11b,0x5(%r14,%rsi,1)
    1472:	0f 85 90 00 00 00    	jne    1508 <main+0x488>
    1478:	41 0f b6 44 37 06    	movzbl 0x6(%r15,%rsi,1),%eax
    147e:	41 38 44 36 06       	cmp    %al,0x6(%r14,%rsi,1)
    1483:	0f 85 7f 00 00 00    	jne    1508 <main+0x488>
    1489:	41 0f b6 54 37 07    	movzbl 0x7(%r15,%rsi,1),%edx
    148f:	41 38 54 36 07       	cmp    %dl,0x7(%r14,%rsi,1)
    1494:	75 72                	jne    1508 <main+0x488>
    1496:	48 83 c6 08          	add    $0x8,%rsi
    149a:	48 83 fe 20          	cmp    $0x20,%rsi
    149e:	0f 85 70 ff ff ff    	jne    1414 <main+0x394>
    14a4:	48 8b 95 78 ff ff ff 	mov    -0x88(%rbp),%rdx
    14ab:	48 8d 35 a1 2b 00 00 	lea    0x2ba1(%rip),%rsi        # 4053 <_IO_stdin_used+0x53>
    14b2:	bf 01 00 00 00       	mov    $0x1,%edi
    14b7:	31 c0                	xor    %eax,%eax
    14b9:	e8 a2 fb ff ff       	call   1060 <__printf_chk@plt>
    14be:	66 90                	xchg   %ax,%ax
    14c0:	48 83 85 68 ff ff ff 	addq   $0x18,-0x98(%rbp)
    14c7:	18 
    14c8:	48 83 bd 78 ff ff ff 	cmpq   $0x15,-0x88(%rbp)
    14cf:	15 
    14d0:	48 8b a5 60 ff ff ff 	mov    -0xa0(%rbp),%rsp
    14d7:	0f 85 03 fc ff ff    	jne    10e0 <main+0x60>
    14dd:	48 8b 45 c8          	mov    -0x38(%rbp),%rax
    14e1:	64 48 2b 04 25 28 00 	sub    %fs:0x28,%rax
    14e8:	00 00 
    14ea:	0f 85 0d 02 00 00    	jne    16fd <main+0x67d>
    14f0:	48 8d 65 d8          	lea    -0x28(%rbp),%rsp
    14f4:	31 c0                	xor    %eax,%eax
    14f6:	5b                   	pop    %rbx
    14f7:	41 5c                	pop    %r12
    14f9:	41 5d                	pop    %r13
    14fb:	41 5e                	pop    %r14
    14fd:	41 5f                	pop    %r15
    14ff:	5d                   	pop    %rbp
    1500:	c3                   	ret    
    1501:	0f 1f 80 00 00 00 00 	nopl   0x0(%rax)
    1508:	48 8b 95 78 ff ff ff 	mov    -0x88(%rbp),%rdx
    150f:	48 8d 35 06 2b 00 00 	lea    0x2b06(%rip),%rsi        # 401c <_IO_stdin_used+0x1c>
    1516:	bf 01 00 00 00       	mov    $0x1,%edi
    151b:	31 c0                	xor    %eax,%eax
    151d:	e8 3e fb ff ff       	call   1060 <__printf_chk@plt>
    1522:	48 8d 35 04 2b 00 00 	lea    0x2b04(%rip),%rsi        # 402d <_IO_stdin_used+0x2d>
    1529:	bf 01 00 00 00       	mov    $0x1,%edi
    152e:	31 c0                	xor    %eax,%eax
    1530:	e8 2b fb ff ff       	call   1060 <__printf_chk@plt>
    1535:	4c 8b a5 58 ff ff ff 	mov    -0xa8(%rbp),%r12
    153c:	41 0f b6 14 24       	movzbl (%r12),%edx
    1541:	bf 01 00 00 00       	mov    $0x1,%edi
    1546:	31 c0                	xor    %eax,%eax
    1548:	49 83 c4 08          	add    $0x8,%r12
    154c:	48 8d 35 ea 2a 00 00 	lea    0x2aea(%rip),%rsi        # 403d <_IO_stdin_used+0x3d>
    1553:	e8 08 fb ff ff       	call   1060 <__printf_chk@plt>
    1558:	41 0f b6 54 24 f9    	movzbl -0x7(%r12),%edx
    155e:	48 8d 35 d8 2a 00 00 	lea    0x2ad8(%rip),%rsi        # 403d <_IO_stdin_used+0x3d>
    1565:	31 c0                	xor    %eax,%eax
    1567:	bf 01 00 00 00       	mov    $0x1,%edi
    156c:	e8 ef fa ff ff       	call   1060 <__printf_chk@plt>
    1571:	41 0f b6 54 24 fa    	movzbl -0x6(%r12),%edx
    1577:	48 8d 35 bf 2a 00 00 	lea    0x2abf(%rip),%rsi        # 403d <_IO_stdin_used+0x3d>
    157e:	31 c0                	xor    %eax,%eax
    1580:	bf 01 00 00 00       	mov    $0x1,%edi
    1585:	e8 d6 fa ff ff       	call   1060 <__printf_chk@plt>
    158a:	41 0f b6 54 24 fb    	movzbl -0x5(%r12),%edx
    1590:	48 8d 35 a6 2a 00 00 	lea    0x2aa6(%rip),%rsi        # 403d <_IO_stdin_used+0x3d>
    1597:	31 c0                	xor    %eax,%eax
    1599:	bf 01 00 00 00       	mov    $0x1,%edi
    159e:	e8 bd fa ff ff       	call   1060 <__printf_chk@plt>
    15a3:	41 0f b6 54 24 fc    	movzbl -0x4(%r12),%edx
    15a9:	48 8d 35 8d 2a 00 00 	lea    0x2a8d(%rip),%rsi        # 403d <_IO_stdin_used+0x3d>
    15b0:	31 c0                	xor    %eax,%eax
    15b2:	bf 01 00 00 00       	mov    $0x1,%edi
    15b7:	e8 a4 fa ff ff       	call   1060 <__printf_chk@plt>
    15bc:	41 0f b6 54 24 fd    	movzbl -0x3(%r12),%edx
    15c2:	48 8d 35 74 2a 00 00 	lea    0x2a74(%rip),%rsi        # 403d <_IO_stdin_used+0x3d>
    15c9:	31 c0                	xor    %eax,%eax
    15cb:	bf 01 00 00 00       	mov    $0x1,%edi
    15d0:	e8 8b fa ff ff       	call   1060 <__printf_chk@plt>
    15d5:	41 0f b6 54 24 fe    	movzbl -0x2(%r12),%edx
    15db:	48 8d 35 5b 2a 00 00 	lea    0x2a5b(%rip),%rsi        # 403d <_IO_stdin_used+0x3d>
    15e2:	31 c0                	xor    %eax,%eax
    15e4:	bf 01 00 00 00       	mov    $0x1,%edi
    15e9:	e8 72 fa ff ff       	call   1060 <__printf_chk@plt>
    15ee:	41 0f b6 54 24 ff    	movzbl -0x1(%r12),%edx
    15f4:	48 8d 35 42 2a 00 00 	lea    0x2a42(%rip),%rsi        # 403d <_IO_stdin_used+0x3d>
    15fb:	31 c0                	xor    %eax,%eax
    15fd:	bf 01 00 00 00       	mov    $0x1,%edi
    1602:	e8 59 fa ff ff       	call   1060 <__printf_chk@plt>
    1607:	4c 3b a5 40 ff ff ff 	cmp    -0xc0(%rbp),%r12
    160e:	0f 85 28 ff ff ff    	jne    153c <main+0x4bc>
    1614:	48 8d 35 27 2a 00 00 	lea    0x2a27(%rip),%rsi        # 4042 <_IO_stdin_used+0x42>
    161b:	bf 01 00 00 00       	mov    $0x1,%edi
    1620:	31 c0                	xor    %eax,%eax
    1622:	4c 89 f3             	mov    %r14,%rbx
    1625:	e8 36 fa ff ff       	call   1060 <__printf_chk@plt>
    162a:	0f b6 13             	movzbl (%rbx),%edx
    162d:	48 8d 35 09 2a 00 00 	lea    0x2a09(%rip),%rsi        # 403d <_IO_stdin_used+0x3d>
    1634:	31 c0                	xor    %eax,%eax
    1636:	48 83 c3 08          	add    $0x8,%rbx
    163a:	bf 01 00 00 00       	mov    $0x1,%edi
    163f:	e8 1c fa ff ff       	call   1060 <__printf_chk@plt>
    1644:	0f b6 53 f9          	movzbl -0x7(%rbx),%edx
    1648:	bf 01 00 00 00       	mov    $0x1,%edi
    164d:	31 c0                	xor    %eax,%eax
    164f:	48 8d 35 e7 29 00 00 	lea    0x29e7(%rip),%rsi        # 403d <_IO_stdin_used+0x3d>
    1656:	e8 05 fa ff ff       	call   1060 <__printf_chk@plt>
    165b:	0f b6 53 fa          	movzbl -0x6(%rbx),%edx
    165f:	bf 01 00 00 00       	mov    $0x1,%edi
    1664:	31 c0                	xor    %eax,%eax
    1666:	48 8d 35 d0 29 00 00 	lea    0x29d0(%rip),%rsi        # 403d <_IO_stdin_used+0x3d>
    166d:	e8 ee f9 ff ff       	call   1060 <__printf_chk@plt>
    1672:	0f b6 53 fb          	movzbl -0x5(%rbx),%edx
    1676:	bf 01 00 00 00       	mov    $0x1,%edi
    167b:	31 c0                	xor    %eax,%eax
    167d:	48 8d 35 b9 29 00 00 	lea    0x29b9(%rip),%rsi        # 403d <_IO_stdin_used+0x3d>
    1684:	e8 d7 f9 ff ff       	call   1060 <__printf_chk@plt>
    1689:	0f b6 53 fc          	movzbl -0x4(%rbx),%edx
    168d:	bf 01 00 00 00       	mov    $0x1,%edi
    1692:	31 c0                	xor    %eax,%eax
    1694:	48 8d 35 a2 29 00 00 	lea    0x29a2(%rip),%rsi        # 403d <_IO_stdin_used+0x3d>
    169b:	e8 c0 f9 ff ff       	call   1060 <__printf_chk@plt>
    16a0:	0f b6 53 fd          	movzbl -0x3(%rbx),%edx
    16a4:	bf 01 00 00 00       	mov    $0x1,%edi
    16a9:	31 c0                	xor    %eax,%eax
    16ab:	48 8d 35 8b 29 00 00 	lea    0x298b(%rip),%rsi        # 403d <_IO_stdin_used+0x3d>
    16b2:	e8 a9 f9 ff ff       	call   1060 <__printf_chk@plt>
    16b7:	0f b6 53 fe          	movzbl -0x2(%rbx),%edx
    16bb:	bf 01 00 00 00       	mov    $0x1,%edi
    16c0:	31 c0                	xor    %eax,%eax
    16c2:	48 8d 35 74 29 00 00 	lea    0x2974(%rip),%rsi        # 403d <_IO_stdin_used+0x3d>
    16c9:	e8 92 f9 ff ff       	call   1060 <__printf_chk@plt>
    16ce:	0f b6 53 ff          	movzbl -0x1(%rbx),%edx
    16d2:	bf 01 00 00 00       	mov    $0x1,%edi
    16d7:	31 c0                	xor    %eax,%eax
    16d9:	48 8d 35 5d 29 00 00 	lea    0x295d(%rip),%rsi        # 403d <_IO_stdin_used+0x3d>
    16e0:	e8 7b f9 ff ff       	call   1060 <__printf_chk@plt>
    16e5:	49 39 df             	cmp    %rbx,%r15
    16e8:	0f 85 3c ff ff ff    	jne    162a <main+0x5aa>
    16ee:	bf 0a 00 00 00       	mov    $0xa,%edi
    16f3:	e8 38 f9 ff ff       	call   1030 <putchar@plt>
    16f8:	e9 c3 fd ff ff       	jmp    14c0 <main+0x440>
    16fd:	e8 3e f9 ff ff       	call   1040 <__stack_chk_fail@plt>
    1702:	66 2e 0f 1f 84 00 00 	cs nopw 0x0(%rax,%rax,1)
    1709:	00 00 00 
    170c:	0f 1f 40 00          	nopl   0x0(%rax)

0000000000001710 <_start>:
    1710:	f3 0f 1e fa          	endbr64 
    1714:	31 ed                	xor    %ebp,%ebp
    1716:	49 89 d1             	mov    %rdx,%r9
    1719:	5e                   	pop    %rsi
    171a:	48 89 e2             	mov    %rsp,%rdx
    171d:	48 83 e4 f0          	and    $0xfffffffffffffff0,%rsp
    1721:	50                   	push   %rax
    1722:	54                   	push   %rsp
    1723:	45 31 c0             	xor    %r8d,%r8d
    1726:	31 c9                	xor    %ecx,%ecx
    1728:	48 8d 3d 51 f9 ff ff 	lea    -0x6af(%rip),%rdi        # 1080 <main>
    172f:	ff 15 8b 48 00 00    	call   *0x488b(%rip)        # 5fc0 <__libc_start_main@GLIBC_2.34>
    1735:	f4                   	hlt    
    1736:	66 2e 0f 1f 84 00 00 	cs nopw 0x0(%rax,%rax,1)
    173d:	00 00 00 

0000000000001740 <deregister_tm_clones>:
    1740:	48 8d 3d 99 49 00 00 	lea    0x4999(%rip),%rdi        # 60e0 <__TMC_END__>
    1747:	48 8d 05 92 49 00 00 	lea    0x4992(%rip),%rax        # 60e0 <__TMC_END__>
    174e:	48 39 f8             	cmp    %rdi,%rax
    1751:	74 15                	je     1768 <deregister_tm_clones+0x28>
    1753:	48 8b 05 6e 48 00 00 	mov    0x486e(%rip),%rax        # 5fc8 <_ITM_deregisterTMCloneTable@Base>
    175a:	48 85 c0             	test   %rax,%rax
    175d:	74 09                	je     1768 <deregister_tm_clones+0x28>
    175f:	ff e0                	jmp    *%rax
    1761:	0f 1f 80 00 00 00 00 	nopl   0x0(%rax)
    1768:	c3                   	ret    
    1769:	0f 1f 80 00 00 00 00 	nopl   0x0(%rax)

0000000000001770 <register_tm_clones>:
    1770:	48 8d 3d 69 49 00 00 	lea    0x4969(%rip),%rdi        # 60e0 <__TMC_END__>
    1777:	48 8d 35 62 49 00 00 	lea    0x4962(%rip),%rsi        # 60e0 <__TMC_END__>
    177e:	48 29 fe             	sub    %rdi,%rsi
    1781:	48 89 f0             	mov    %rsi,%rax
    1784:	48 c1 ee 3f          	shr    $0x3f,%rsi
    1788:	48 c1 f8 03          	sar    $0x3,%rax
    178c:	48 01 c6             	add    %rax,%rsi
    178f:	48 d1 fe             	sar    %rsi
    1792:	74 14                	je     17a8 <register_tm_clones+0x38>
    1794:	48 8b 05 3d 48 00 00 	mov    0x483d(%rip),%rax        # 5fd8 <_ITM_registerTMCloneTable@Base>
    179b:	48 85 c0             	test   %rax,%rax
    179e:	74 08                	je     17a8 <register_tm_clones+0x38>
    17a0:	ff e0                	jmp    *%rax
    17a2:	66 0f 1f 44 00 00    	nopw   0x0(%rax,%rax,1)
    17a8:	c3                   	ret    
    17a9:	0f 1f 80 00 00 00 00 	nopl   0x0(%rax)

00000000000017b0 <__do_global_dtors_aux>:
    17b0:	f3 0f 1e fa          	endbr64 
    17b4:	80 3d 25 49 00 00 00 	cmpb   $0x0,0x4925(%rip)        # 60e0 <__TMC_END__>
    17bb:	75 2b                	jne    17e8 <__do_global_dtors_aux+0x38>
    17bd:	55                   	push   %rbp
    17be:	48 83 3d 1a 48 00 00 	cmpq   $0x0,0x481a(%rip)        # 5fe0 <__cxa_finalize@GLIBC_2.2.5>
    17c5:	00 
    17c6:	48 89 e5             	mov    %rsp,%rbp
    17c9:	74 0c                	je     17d7 <__do_global_dtors_aux+0x27>
    17cb:	48 8b 3d 36 48 00 00 	mov    0x4836(%rip),%rdi        # 6008 <__dso_handle>
    17d2:	e8 99 f8 ff ff       	call   1070 <__cxa_finalize@plt>
    17d7:	e8 64 ff ff ff       	call   1740 <deregister_tm_clones>
    17dc:	c6 05 fd 48 00 00 01 	movb   $0x1,0x48fd(%rip)        # 60e0 <__TMC_END__>
    17e3:	5d                   	pop    %rbp
    17e4:	c3                   	ret    
    17e5:	0f 1f 00             	nopl   (%rax)
    17e8:	c3                   	ret    
    17e9:	0f 1f 80 00 00 00 00 	nopl   0x0(%rax)

00000000000017f0 <frame_dummy>:
    17f0:	f3 0f 1e fa          	endbr64 
    17f4:	e9 77 ff ff ff       	jmp    1770 <register_tm_clones>
    17f9:	0f 1f 80 00 00 00 00 	nopl   0x0(%rax)

0000000000001800 <_jade_hash_sha3_256_amd64>:
    1800:	48 89 e0             	mov    %rsp,%rax
    1803:	48 8d 64 24 d0       	lea    -0x30(%rsp),%rsp
    1808:	48 83 e4 f8          	and    $0xfffffffffffffff8,%rsp
    180c:	48 89 1c 24          	mov    %rbx,(%rsp)
    1810:	48 89 6c 24 08       	mov    %rbp,0x8(%rsp)
    1815:	4c 89 64 24 10       	mov    %r12,0x10(%rsp)
    181a:	4c 89 6c 24 18       	mov    %r13,0x18(%rsp)
    181f:	4c 89 74 24 20       	mov    %r14,0x20(%rsp)
    1824:	48 89 44 24 28       	mov    %rax,0x28(%rsp)
    1829:	48 c7 c1 20 00 00 00 	mov    $0x20,%rcx
    1830:	41 b0 06             	mov    $0x6,%r8b
    1833:	48 c7 c0 88 00 00 00 	mov    $0x88,%rax
    183a:	48 8d a4 24 40 fe ff 	lea    -0x1c0(%rsp),%rsp
    1841:	ff 
    1842:	e8 29 00 00 00       	call   1870 <L_keccak1600_ref$1>

0000000000001847 <Ljade_hash_sha3_256_amd64$1>:
    1847:	48 8d a4 24 c0 01 00 	lea    0x1c0(%rsp),%rsp
    184e:	00 
    184f:	48 31 c0             	xor    %rax,%rax
    1852:	48 8b 1c 24          	mov    (%rsp),%rbx
    1856:	48 8b 6c 24 08       	mov    0x8(%rsp),%rbp
    185b:	4c 8b 64 24 10       	mov    0x10(%rsp),%r12
    1860:	4c 8b 6c 24 18       	mov    0x18(%rsp),%r13
    1865:	4c 8b 74 24 20       	mov    0x20(%rsp),%r14
    186a:	48 8b 64 24 28       	mov    0x28(%rsp),%rsp
    186f:	c3                   	ret    

0000000000001870 <L_keccak1600_ref$1>:
    1870:	48 89 7c 24 08       	mov    %rdi,0x8(%rsp)
    1875:	48 89 4c 24 10       	mov    %rcx,0x10(%rsp)
    187a:	44 88 84 24 c0 01 00 	mov    %r8b,0x1c0(%rsp)
    1881:	00 
    1882:	48 31 c9             	xor    %rcx,%rcx
    1885:	48 89 4c 24 30       	mov    %rcx,0x30(%rsp)
    188a:	48 89 4c 24 38       	mov    %rcx,0x38(%rsp)
    188f:	48 89 4c 24 40       	mov    %rcx,0x40(%rsp)
    1894:	48 89 4c 24 48       	mov    %rcx,0x48(%rsp)
    1899:	48 89 4c 24 50       	mov    %rcx,0x50(%rsp)
    189e:	48 89 4c 24 58       	mov    %rcx,0x58(%rsp)
    18a3:	48 89 4c 24 60       	mov    %rcx,0x60(%rsp)
    18a8:	48 89 4c 24 68       	mov    %rcx,0x68(%rsp)
    18ad:	48 89 4c 24 70       	mov    %rcx,0x70(%rsp)
    18b2:	48 89 4c 24 78       	mov    %rcx,0x78(%rsp)
    18b7:	48 89 8c 24 80 00 00 	mov    %rcx,0x80(%rsp)
    18be:	00 
    18bf:	48 89 8c 24 88 00 00 	mov    %rcx,0x88(%rsp)
    18c6:	00 
    18c7:	48 89 8c 24 90 00 00 	mov    %rcx,0x90(%rsp)
    18ce:	00 
    18cf:	48 89 8c 24 98 00 00 	mov    %rcx,0x98(%rsp)
    18d6:	00 
    18d7:	48 89 8c 24 a0 00 00 	mov    %rcx,0xa0(%rsp)
    18de:	00 
    18df:	48 89 8c 24 a8 00 00 	mov    %rcx,0xa8(%rsp)
    18e6:	00 
    18e7:	48 89 8c 24 b0 00 00 	mov    %rcx,0xb0(%rsp)
    18ee:	00 
    18ef:	48 89 8c 24 b8 00 00 	mov    %rcx,0xb8(%rsp)
    18f6:	00 
    18f7:	48 89 8c 24 c0 00 00 	mov    %rcx,0xc0(%rsp)
    18fe:	00 
    18ff:	48 89 8c 24 c8 00 00 	mov    %rcx,0xc8(%rsp)
    1906:	00 
    1907:	48 89 8c 24 d0 00 00 	mov    %rcx,0xd0(%rsp)
    190e:	00 
    190f:	48 89 8c 24 d8 00 00 	mov    %rcx,0xd8(%rsp)
    1916:	00 
    1917:	48 89 8c 24 e0 00 00 	mov    %rcx,0xe0(%rsp)
    191e:	00 
    191f:	48 89 8c 24 e8 00 00 	mov    %rcx,0xe8(%rsp)
    1926:	00 
    1927:	48 89 8c 24 f0 00 00 	mov    %rcx,0xf0(%rsp)
    192e:	00 
    192f:	e9 ad 08 00 00       	jmp    21e1 <L_keccak1600_ref$18>

0000000000001934 <L_keccak1600_ref$19>:
    1934:	48 89 c1             	mov    %rax,%rcx
    1937:	48 c1 e9 03          	shr    $0x3,%rcx
    193b:	48 c7 c7 00 00 00 00 	mov    $0x0,%rdi
    1942:	eb 0c                	jmp    1950 <L_keccak1600_ref$22>

0000000000001944 <L_keccak1600_ref$23>:
    1944:	4c 8b 04 fe          	mov    (%rsi,%rdi,8),%r8
    1948:	4c 31 44 fc 30       	xor    %r8,0x30(%rsp,%rdi,8)
    194d:	48 ff c7             	inc    %rdi

0000000000001950 <L_keccak1600_ref$22>:
    1950:	48 39 cf             	cmp    %rcx,%rdi
    1953:	72 ef                	jb     1944 <L_keccak1600_ref$23>
    1955:	48 01 c6             	add    %rax,%rsi
    1958:	48 29 c2             	sub    %rax,%rdx
    195b:	48 89 74 24 18       	mov    %rsi,0x18(%rsp)
    1960:	48 89 54 24 20       	mov    %rdx,0x20(%rsp)
    1965:	48 89 44 24 28       	mov    %rax,0x28(%rsp)
    196a:	48 8d 05 af 46 00 00 	lea    0x46af(%rip),%rax        # 6020 <G$KECCAK1600_RC>
    1971:	48 c7 c1 00 00 00 00 	mov    $0x0,%rcx
    1978:	e9 4b 08 00 00       	jmp    21c8 <L_keccak1600_ref$20>

000000000000197d <L_keccak1600_ref$21>:
    197d:	4c 8b 14 c8          	mov    (%rax,%rcx,8),%r10
    1981:	4c 8b 4c 24 30       	mov    0x30(%rsp),%r9
    1986:	4c 8b 44 24 38       	mov    0x38(%rsp),%r8
    198b:	4c 8b 5c 24 40       	mov    0x40(%rsp),%r11
    1990:	48 8b 5c 24 48       	mov    0x48(%rsp),%rbx
    1995:	48 8b 6c 24 50       	mov    0x50(%rsp),%rbp
    199a:	4c 33 4c 24 58       	xor    0x58(%rsp),%r9
    199f:	4c 33 44 24 60       	xor    0x60(%rsp),%r8
    19a4:	4c 33 5c 24 68       	xor    0x68(%rsp),%r11
    19a9:	48 33 5c 24 70       	xor    0x70(%rsp),%rbx
    19ae:	48 33 6c 24 78       	xor    0x78(%rsp),%rbp
    19b3:	4c 33 8c 24 80 00 00 	xor    0x80(%rsp),%r9
    19ba:	00 
    19bb:	4c 33 84 24 88 00 00 	xor    0x88(%rsp),%r8
    19c2:	00 
    19c3:	4c 33 9c 24 90 00 00 	xor    0x90(%rsp),%r11
    19ca:	00 
    19cb:	48 33 9c 24 98 00 00 	xor    0x98(%rsp),%rbx
    19d2:	00 
    19d3:	48 33 ac 24 a0 00 00 	xor    0xa0(%rsp),%rbp
    19da:	00 
    19db:	4c 33 8c 24 a8 00 00 	xor    0xa8(%rsp),%r9
    19e2:	00 
    19e3:	4c 33 84 24 b0 00 00 	xor    0xb0(%rsp),%r8
    19ea:	00 
    19eb:	4c 33 9c 24 b8 00 00 	xor    0xb8(%rsp),%r11
    19f2:	00 
    19f3:	48 33 9c 24 c0 00 00 	xor    0xc0(%rsp),%rbx
    19fa:	00 
    19fb:	48 33 ac 24 c8 00 00 	xor    0xc8(%rsp),%rbp
    1a02:	00 
    1a03:	4c 33 8c 24 d0 00 00 	xor    0xd0(%rsp),%r9
    1a0a:	00 
    1a0b:	4c 33 84 24 d8 00 00 	xor    0xd8(%rsp),%r8
    1a12:	00 
    1a13:	4c 33 9c 24 e0 00 00 	xor    0xe0(%rsp),%r11
    1a1a:	00 
    1a1b:	48 33 9c 24 e8 00 00 	xor    0xe8(%rsp),%rbx
    1a22:	00 
    1a23:	48 33 ac 24 f0 00 00 	xor    0xf0(%rsp),%rbp
    1a2a:	00 
    1a2b:	4c 89 c2             	mov    %r8,%rdx
    1a2e:	48 d1 c2             	rol    %rdx
    1a31:	48 31 ea             	xor    %rbp,%rdx
    1a34:	4c 89 de             	mov    %r11,%rsi
    1a37:	48 d1 c6             	rol    %rsi
    1a3a:	4c 31 ce             	xor    %r9,%rsi
    1a3d:	48 89 df             	mov    %rbx,%rdi
    1a40:	48 d1 c7             	rol    %rdi
    1a43:	4c 31 c7             	xor    %r8,%rdi
    1a46:	49 89 e8             	mov    %rbp,%r8
    1a49:	49 d1 c0             	rol    %r8
    1a4c:	4d 31 d8             	xor    %r11,%r8
    1a4f:	49 d1 c1             	rol    %r9
    1a52:	49 31 d9             	xor    %rbx,%r9
    1a55:	4c 8b 5c 24 30       	mov    0x30(%rsp),%r11
    1a5a:	49 31 d3             	xor    %rdx,%r11
    1a5d:	48 8b 5c 24 60       	mov    0x60(%rsp),%rbx
    1a62:	48 31 f3             	xor    %rsi,%rbx
    1a65:	48 c1 c3 2c          	rol    $0x2c,%rbx
    1a69:	48 8b ac 24 90 00 00 	mov    0x90(%rsp),%rbp
    1a70:	00 
    1a71:	48 31 fd             	xor    %rdi,%rbp
    1a74:	48 c1 c5 2b          	rol    $0x2b,%rbp
    1a78:	4c 8b a4 24 c0 00 00 	mov    0xc0(%rsp),%r12
    1a7f:	00 
    1a80:	4d 31 c4             	xor    %r8,%r12
    1a83:	49 c1 c4 15          	rol    $0x15,%r12
    1a87:	4c 8b ac 24 f0 00 00 	mov    0xf0(%rsp),%r13
    1a8e:	00 
    1a8f:	4d 31 cd             	xor    %r9,%r13
    1a92:	49 c1 c5 0e          	rol    $0xe,%r13
    1a96:	49 89 de             	mov    %rbx,%r14
    1a99:	49 f7 d6             	not    %r14
    1a9c:	49 21 ee             	and    %rbp,%r14
    1a9f:	4d 31 de             	xor    %r11,%r14
    1aa2:	4d 31 d6             	xor    %r10,%r14
    1aa5:	4c 89 b4 24 f8 00 00 	mov    %r14,0xf8(%rsp)
    1aac:	00 
    1aad:	49 89 ea             	mov    %rbp,%r10
    1ab0:	49 f7 d2             	not    %r10
    1ab3:	4d 21 e2             	and    %r12,%r10
    1ab6:	49 31 da             	xor    %rbx,%r10
    1ab9:	4c 89 94 24 00 01 00 	mov    %r10,0x100(%rsp)
    1ac0:	00 
    1ac1:	4d 89 e2             	mov    %r12,%r10
    1ac4:	49 f7 d2             	not    %r10
    1ac7:	4d 21 ea             	and    %r13,%r10
    1aca:	49 31 ea             	xor    %rbp,%r10
    1acd:	4c 89 94 24 08 01 00 	mov    %r10,0x108(%rsp)
    1ad4:	00 
    1ad5:	4d 89 ea             	mov    %r13,%r10
    1ad8:	49 f7 d2             	not    %r10
    1adb:	4d 21 da             	and    %r11,%r10
    1ade:	4d 31 e2             	xor    %r12,%r10
    1ae1:	4c 89 94 24 10 01 00 	mov    %r10,0x110(%rsp)
    1ae8:	00 
    1ae9:	49 f7 d3             	not    %r11
    1aec:	49 21 db             	and    %rbx,%r11
    1aef:	4d 31 eb             	xor    %r13,%r11
    1af2:	4c 89 9c 24 18 01 00 	mov    %r11,0x118(%rsp)
    1af9:	00 
    1afa:	4c 8b 54 24 48       	mov    0x48(%rsp),%r10
    1aff:	4d 31 c2             	xor    %r8,%r10
    1b02:	49 c1 c2 1c          	rol    $0x1c,%r10
    1b06:	4c 8b 5c 24 78       	mov    0x78(%rsp),%r11
    1b0b:	4d 31 cb             	xor    %r9,%r11
    1b0e:	49 c1 c3 14          	rol    $0x14,%r11
    1b12:	4c 8b a4 24 80 00 00 	mov    0x80(%rsp),%r12
    1b19:	00 
    1b1a:	49 31 d4             	xor    %rdx,%r12
    1b1d:	49 c1 c4 03          	rol    $0x3,%r12
    1b21:	48 8b 9c 24 b0 00 00 	mov    0xb0(%rsp),%rbx
    1b28:	00 
    1b29:	48 31 f3             	xor    %rsi,%rbx
    1b2c:	48 c1 c3 2d          	rol    $0x2d,%rbx
    1b30:	48 8b ac 24 e0 00 00 	mov    0xe0(%rsp),%rbp
    1b37:	00 
    1b38:	48 31 fd             	xor    %rdi,%rbp
    1b3b:	48 c1 c5 3d          	rol    $0x3d,%rbp
    1b3f:	4d 89 dd             	mov    %r11,%r13
    1b42:	49 f7 d5             	not    %r13
    1b45:	4d 21 e5             	and    %r12,%r13
    1b48:	4d 31 d5             	xor    %r10,%r13
    1b4b:	4c 89 ac 24 20 01 00 	mov    %r13,0x120(%rsp)
    1b52:	00 
    1b53:	4d 89 e5             	mov    %r12,%r13
    1b56:	49 f7 d5             	not    %r13
    1b59:	49 21 dd             	and    %rbx,%r13
    1b5c:	4d 31 dd             	xor    %r11,%r13
    1b5f:	4c 89 ac 24 28 01 00 	mov    %r13,0x128(%rsp)
    1b66:	00 
    1b67:	49 89 dd             	mov    %rbx,%r13
    1b6a:	49 f7 d5             	not    %r13
    1b6d:	49 21 ed             	and    %rbp,%r13
    1b70:	4d 31 e5             	xor    %r12,%r13
    1b73:	4c 89 ac 24 30 01 00 	mov    %r13,0x130(%rsp)
    1b7a:	00 
    1b7b:	49 89 ec             	mov    %rbp,%r12
    1b7e:	49 f7 d4             	not    %r12
    1b81:	4d 21 d4             	and    %r10,%r12
    1b84:	49 31 dc             	xor    %rbx,%r12
    1b87:	4c 89 a4 24 38 01 00 	mov    %r12,0x138(%rsp)
    1b8e:	00 
    1b8f:	49 f7 d2             	not    %r10
    1b92:	4d 21 da             	and    %r11,%r10
    1b95:	49 31 ea             	xor    %rbp,%r10
    1b98:	4c 89 94 24 40 01 00 	mov    %r10,0x140(%rsp)
    1b9f:	00 
    1ba0:	4c 8b 54 24 38       	mov    0x38(%rsp),%r10
    1ba5:	49 31 f2             	xor    %rsi,%r10
    1ba8:	49 d1 c2             	rol    %r10
    1bab:	4c 8b 5c 24 68       	mov    0x68(%rsp),%r11
    1bb0:	49 31 fb             	xor    %rdi,%r11
    1bb3:	49 c1 c3 06          	rol    $0x6,%r11
    1bb7:	4c 8b a4 24 98 00 00 	mov    0x98(%rsp),%r12
    1bbe:	00 
    1bbf:	4d 31 c4             	xor    %r8,%r12
    1bc2:	49 c1 c4 19          	rol    $0x19,%r12
    1bc6:	48 8b 9c 24 c8 00 00 	mov    0xc8(%rsp),%rbx
    1bcd:	00 
    1bce:	4c 31 cb             	xor    %r9,%rbx
    1bd1:	48 c1 c3 08          	rol    $0x8,%rbx
    1bd5:	48 8b ac 24 d0 00 00 	mov    0xd0(%rsp),%rbp
    1bdc:	00 
    1bdd:	48 31 d5             	xor    %rdx,%rbp
    1be0:	48 c1 c5 12          	rol    $0x12,%rbp
    1be4:	4d 89 dd             	mov    %r11,%r13
    1be7:	49 f7 d5             	not    %r13
    1bea:	4d 21 e5             	and    %r12,%r13
    1bed:	4d 31 d5             	xor    %r10,%r13
    1bf0:	4c 89 ac 24 48 01 00 	mov    %r13,0x148(%rsp)
    1bf7:	00 
    1bf8:	4d 89 e5             	mov    %r12,%r13
    1bfb:	49 f7 d5             	not    %r13
    1bfe:	49 21 dd             	and    %rbx,%r13
    1c01:	4d 31 dd             	xor    %r11,%r13
    1c04:	4c 89 ac 24 50 01 00 	mov    %r13,0x150(%rsp)
    1c0b:	00 
    1c0c:	49 89 dd             	mov    %rbx,%r13
    1c0f:	49 f7 d5             	not    %r13
    1c12:	49 21 ed             	and    %rbp,%r13
    1c15:	4d 31 e5             	xor    %r12,%r13
    1c18:	4c 89 ac 24 58 01 00 	mov    %r13,0x158(%rsp)
    1c1f:	00 
    1c20:	49 89 ec             	mov    %rbp,%r12
    1c23:	49 f7 d4             	not    %r12
    1c26:	4d 21 d4             	and    %r10,%r12
    1c29:	49 31 dc             	xor    %rbx,%r12
    1c2c:	4c 89 a4 24 60 01 00 	mov    %r12,0x160(%rsp)
    1c33:	00 
    1c34:	49 f7 d2             	not    %r10
    1c37:	4d 21 da             	and    %r11,%r10
    1c3a:	49 31 ea             	xor    %rbp,%r10
    1c3d:	4c 89 94 24 68 01 00 	mov    %r10,0x168(%rsp)
    1c44:	00 
    1c45:	4c 8b 54 24 50       	mov    0x50(%rsp),%r10
    1c4a:	4d 31 ca             	xor    %r9,%r10
    1c4d:	49 c1 c2 1b          	rol    $0x1b,%r10
    1c51:	4c 8b 5c 24 58       	mov    0x58(%rsp),%r11
    1c56:	49 31 d3             	xor    %rdx,%r11
    1c59:	49 c1 c3 24          	rol    $0x24,%r11
    1c5d:	4c 8b a4 24 88 00 00 	mov    0x88(%rsp),%r12
    1c64:	00 
    1c65:	49 31 f4             	xor    %rsi,%r12
    1c68:	49 c1 c4 0a          	rol    $0xa,%r12
    1c6c:	48 8b 9c 24 b8 00 00 	mov    0xb8(%rsp),%rbx
    1c73:	00 
    1c74:	48 31 fb             	xor    %rdi,%rbx
    1c77:	48 c1 c3 0f          	rol    $0xf,%rbx
    1c7b:	48 8b ac 24 e8 00 00 	mov    0xe8(%rsp),%rbp
    1c82:	00 
    1c83:	4c 31 c5             	xor    %r8,%rbp
    1c86:	48 c1 c5 38          	rol    $0x38,%rbp
    1c8a:	4d 89 dd             	mov    %r11,%r13
    1c8d:	49 f7 d5             	not    %r13
    1c90:	4d 21 e5             	and    %r12,%r13
    1c93:	4d 31 d5             	xor    %r10,%r13
    1c96:	4c 89 ac 24 70 01 00 	mov    %r13,0x170(%rsp)
    1c9d:	00 
    1c9e:	4d 89 e5             	mov    %r12,%r13
    1ca1:	49 f7 d5             	not    %r13
    1ca4:	49 21 dd             	and    %rbx,%r13
    1ca7:	4d 31 dd             	xor    %r11,%r13
    1caa:	4c 89 ac 24 78 01 00 	mov    %r13,0x178(%rsp)
    1cb1:	00 
    1cb2:	49 89 dd             	mov    %rbx,%r13
    1cb5:	49 f7 d5             	not    %r13
    1cb8:	49 21 ed             	and    %rbp,%r13
    1cbb:	4d 31 e5             	xor    %r12,%r13
    1cbe:	4c 89 ac 24 80 01 00 	mov    %r13,0x180(%rsp)
    1cc5:	00 
    1cc6:	49 89 ec             	mov    %rbp,%r12
    1cc9:	49 f7 d4             	not    %r12
    1ccc:	4d 21 d4             	and    %r10,%r12
    1ccf:	49 31 dc             	xor    %rbx,%r12
    1cd2:	4c 89 a4 24 88 01 00 	mov    %r12,0x188(%rsp)
    1cd9:	00 
    1cda:	49 f7 d2             	not    %r10
    1cdd:	4d 21 da             	and    %r11,%r10
    1ce0:	49 31 ea             	xor    %rbp,%r10
    1ce3:	4c 89 94 24 90 01 00 	mov    %r10,0x190(%rsp)
    1cea:	00 
    1ceb:	4c 8b 54 24 40       	mov    0x40(%rsp),%r10
    1cf0:	49 31 fa             	xor    %rdi,%r10
    1cf3:	49 c1 c2 3e          	rol    $0x3e,%r10
    1cf7:	48 8b 7c 24 70       	mov    0x70(%rsp),%rdi
    1cfc:	4c 31 c7             	xor    %r8,%rdi
    1cff:	48 c1 c7 37          	rol    $0x37,%rdi
    1d03:	4c 8b 84 24 a0 00 00 	mov    0xa0(%rsp),%r8
    1d0a:	00 
    1d0b:	4d 31 c8             	xor    %r9,%r8
    1d0e:	49 c1 c0 27          	rol    $0x27,%r8
    1d12:	4c 8b 8c 24 a8 00 00 	mov    0xa8(%rsp),%r9
    1d19:	00 
    1d1a:	49 31 d1             	xor    %rdx,%r9
    1d1d:	49 c1 c1 29          	rol    $0x29,%r9
    1d21:	48 8b 94 24 d8 00 00 	mov    0xd8(%rsp),%rdx
    1d28:	00 
    1d29:	48 31 f2             	xor    %rsi,%rdx
    1d2c:	48 c1 c2 02          	rol    $0x2,%rdx
    1d30:	48 89 fe             	mov    %rdi,%rsi
    1d33:	48 f7 d6             	not    %rsi
    1d36:	4c 21 c6             	and    %r8,%rsi
    1d39:	4c 31 d6             	xor    %r10,%rsi
    1d3c:	48 89 b4 24 98 01 00 	mov    %rsi,0x198(%rsp)
    1d43:	00 
    1d44:	4c 89 c6             	mov    %r8,%rsi
    1d47:	48 f7 d6             	not    %rsi
    1d4a:	4c 21 ce             	and    %r9,%rsi
    1d4d:	48 31 fe             	xor    %rdi,%rsi
    1d50:	48 89 b4 24 a0 01 00 	mov    %rsi,0x1a0(%rsp)
    1d57:	00 
    1d58:	4c 89 ce             	mov    %r9,%rsi
    1d5b:	48 f7 d6             	not    %rsi
    1d5e:	48 21 d6             	and    %rdx,%rsi
    1d61:	4c 31 c6             	xor    %r8,%rsi
    1d64:	48 89 b4 24 a8 01 00 	mov    %rsi,0x1a8(%rsp)
    1d6b:	00 
    1d6c:	48 89 d6             	mov    %rdx,%rsi
    1d6f:	48 f7 d6             	not    %rsi
    1d72:	4c 21 d6             	and    %r10,%rsi
    1d75:	4c 31 ce             	xor    %r9,%rsi
    1d78:	48 89 b4 24 b0 01 00 	mov    %rsi,0x1b0(%rsp)
    1d7f:	00 
    1d80:	49 f7 d2             	not    %r10
    1d83:	49 21 fa             	and    %rdi,%r10
    1d86:	49 31 d2             	xor    %rdx,%r10
    1d89:	4c 89 94 24 b8 01 00 	mov    %r10,0x1b8(%rsp)
    1d90:	00 
    1d91:	4c 8b 54 c8 08       	mov    0x8(%rax,%rcx,8),%r10
    1d96:	4c 8b 8c 24 f8 00 00 	mov    0xf8(%rsp),%r9
    1d9d:	00 
    1d9e:	4c 8b 84 24 00 01 00 	mov    0x100(%rsp),%r8
    1da5:	00 
    1da6:	4c 8b 9c 24 08 01 00 	mov    0x108(%rsp),%r11
    1dad:	00 
    1dae:	48 8b 9c 24 10 01 00 	mov    0x110(%rsp),%rbx
    1db5:	00 
    1db6:	48 8b ac 24 18 01 00 	mov    0x118(%rsp),%rbp
    1dbd:	00 
    1dbe:	4c 33 8c 24 20 01 00 	xor    0x120(%rsp),%r9
    1dc5:	00 
    1dc6:	4c 33 84 24 28 01 00 	xor    0x128(%rsp),%r8
    1dcd:	00 
    1dce:	4c 33 9c 24 30 01 00 	xor    0x130(%rsp),%r11
    1dd5:	00 
    1dd6:	48 33 9c 24 38 01 00 	xor    0x138(%rsp),%rbx
    1ddd:	00 
    1dde:	48 33 ac 24 40 01 00 	xor    0x140(%rsp),%rbp
    1de5:	00 
    1de6:	4c 33 8c 24 48 01 00 	xor    0x148(%rsp),%r9
    1ded:	00 
    1dee:	4c 33 84 24 50 01 00 	xor    0x150(%rsp),%r8
    1df5:	00 
    1df6:	4c 33 9c 24 58 01 00 	xor    0x158(%rsp),%r11
    1dfd:	00 
    1dfe:	48 33 9c 24 60 01 00 	xor    0x160(%rsp),%rbx
    1e05:	00 
    1e06:	48 33 ac 24 68 01 00 	xor    0x168(%rsp),%rbp
    1e0d:	00 
    1e0e:	4c 33 8c 24 70 01 00 	xor    0x170(%rsp),%r9
    1e15:	00 
    1e16:	4c 33 84 24 78 01 00 	xor    0x178(%rsp),%r8
    1e1d:	00 
    1e1e:	4c 33 9c 24 80 01 00 	xor    0x180(%rsp),%r11
    1e25:	00 
    1e26:	48 33 9c 24 88 01 00 	xor    0x188(%rsp),%rbx
    1e2d:	00 
    1e2e:	48 33 ac 24 90 01 00 	xor    0x190(%rsp),%rbp
    1e35:	00 
    1e36:	4c 33 8c 24 98 01 00 	xor    0x198(%rsp),%r9
    1e3d:	00 
    1e3e:	4c 33 84 24 a0 01 00 	xor    0x1a0(%rsp),%r8
    1e45:	00 
    1e46:	4c 33 9c 24 a8 01 00 	xor    0x1a8(%rsp),%r11
    1e4d:	00 
    1e4e:	48 33 9c 24 b0 01 00 	xor    0x1b0(%rsp),%rbx
    1e55:	00 
    1e56:	48 33 ac 24 b8 01 00 	xor    0x1b8(%rsp),%rbp
    1e5d:	00 
    1e5e:	4c 89 c2             	mov    %r8,%rdx
    1e61:	48 d1 c2             	rol    %rdx
    1e64:	48 31 ea             	xor    %rbp,%rdx
    1e67:	4c 89 de             	mov    %r11,%rsi
    1e6a:	48 d1 c6             	rol    %rsi
    1e6d:	4c 31 ce             	xor    %r9,%rsi
    1e70:	48 89 df             	mov    %rbx,%rdi
    1e73:	48 d1 c7             	rol    %rdi
    1e76:	4c 31 c7             	xor    %r8,%rdi
    1e79:	49 89 e8             	mov    %rbp,%r8
    1e7c:	49 d1 c0             	rol    %r8
    1e7f:	4d 31 d8             	xor    %r11,%r8
    1e82:	49 d1 c1             	rol    %r9
    1e85:	49 31 d9             	xor    %rbx,%r9
    1e88:	4c 8b 9c 24 f8 00 00 	mov    0xf8(%rsp),%r11
    1e8f:	00 
    1e90:	49 31 d3             	xor    %rdx,%r11
    1e93:	48 8b 9c 24 28 01 00 	mov    0x128(%rsp),%rbx
    1e9a:	00 
    1e9b:	48 31 f3             	xor    %rsi,%rbx
    1e9e:	48 c1 c3 2c          	rol    $0x2c,%rbx
    1ea2:	48 8b ac 24 58 01 00 	mov    0x158(%rsp),%rbp
    1ea9:	00 
    1eaa:	48 31 fd             	xor    %rdi,%rbp
    1ead:	48 c1 c5 2b          	rol    $0x2b,%rbp
    1eb1:	4c 8b a4 24 88 01 00 	mov    0x188(%rsp),%r12
    1eb8:	00 
    1eb9:	4d 31 c4             	xor    %r8,%r12
    1ebc:	49 c1 c4 15          	rol    $0x15,%r12
    1ec0:	4c 8b ac 24 b8 01 00 	mov    0x1b8(%rsp),%r13
    1ec7:	00 
    1ec8:	4d 31 cd             	xor    %r9,%r13
    1ecb:	49 c1 c5 0e          	rol    $0xe,%r13
    1ecf:	49 89 de             	mov    %rbx,%r14
    1ed2:	49 f7 d6             	not    %r14
    1ed5:	49 21 ee             	and    %rbp,%r14
    1ed8:	4d 31 de             	xor    %r11,%r14
    1edb:	4d 31 d6             	xor    %r10,%r14
    1ede:	4c 89 74 24 30       	mov    %r14,0x30(%rsp)
    1ee3:	49 89 ea             	mov    %rbp,%r10
    1ee6:	49 f7 d2             	not    %r10
    1ee9:	4d 21 e2             	and    %r12,%r10
    1eec:	49 31 da             	xor    %rbx,%r10
    1eef:	4c 89 54 24 38       	mov    %r10,0x38(%rsp)
    1ef4:	4d 89 e2             	mov    %r12,%r10
    1ef7:	49 f7 d2             	not    %r10
    1efa:	4d 21 ea             	and    %r13,%r10
    1efd:	49 31 ea             	xor    %rbp,%r10
    1f00:	4c 89 54 24 40       	mov    %r10,0x40(%rsp)
    1f05:	4d 89 ea             	mov    %r13,%r10
    1f08:	49 f7 d2             	not    %r10
    1f0b:	4d 21 da             	and    %r11,%r10
    1f0e:	4d 31 e2             	xor    %r12,%r10
    1f11:	4c 89 54 24 48       	mov    %r10,0x48(%rsp)
    1f16:	49 f7 d3             	not    %r11
    1f19:	49 21 db             	and    %rbx,%r11
    1f1c:	4d 31 eb             	xor    %r13,%r11
    1f1f:	4c 89 5c 24 50       	mov    %r11,0x50(%rsp)
    1f24:	4c 8b 94 24 10 01 00 	mov    0x110(%rsp),%r10
    1f2b:	00 
    1f2c:	4d 31 c2             	xor    %r8,%r10
    1f2f:	49 c1 c2 1c          	rol    $0x1c,%r10
    1f33:	4c 8b 9c 24 40 01 00 	mov    0x140(%rsp),%r11
    1f3a:	00 
    1f3b:	4d 31 cb             	xor    %r9,%r11
    1f3e:	49 c1 c3 14          	rol    $0x14,%r11
    1f42:	4c 8b a4 24 48 01 00 	mov    0x148(%rsp),%r12
    1f49:	00 
    1f4a:	49 31 d4             	xor    %rdx,%r12
    1f4d:	49 c1 c4 03          	rol    $0x3,%r12
    1f51:	48 8b 9c 24 78 01 00 	mov    0x178(%rsp),%rbx
    1f58:	00 
    1f59:	48 31 f3             	xor    %rsi,%rbx
    1f5c:	48 c1 c3 2d          	rol    $0x2d,%rbx
    1f60:	48 8b ac 24 a8 01 00 	mov    0x1a8(%rsp),%rbp
    1f67:	00 
    1f68:	48 31 fd             	xor    %rdi,%rbp
    1f6b:	48 c1 c5 3d          	rol    $0x3d,%rbp
    1f6f:	4d 89 dd             	mov    %r11,%r13
    1f72:	49 f7 d5             	not    %r13
    1f75:	4d 21 e5             	and    %r12,%r13
    1f78:	4d 31 d5             	xor    %r10,%r13
    1f7b:	4c 89 6c 24 58       	mov    %r13,0x58(%rsp)
    1f80:	4d 89 e5             	mov    %r12,%r13
    1f83:	49 f7 d5             	not    %r13
    1f86:	49 21 dd             	and    %rbx,%r13
    1f89:	4d 31 dd             	xor    %r11,%r13
    1f8c:	4c 89 6c 24 60       	mov    %r13,0x60(%rsp)
    1f91:	49 89 dd             	mov    %rbx,%r13
    1f94:	49 f7 d5             	not    %r13
    1f97:	49 21 ed             	and    %rbp,%r13
    1f9a:	4d 31 e5             	xor    %r12,%r13
    1f9d:	4c 89 6c 24 68       	mov    %r13,0x68(%rsp)
    1fa2:	49 89 ec             	mov    %rbp,%r12
    1fa5:	49 f7 d4             	not    %r12
    1fa8:	4d 21 d4             	and    %r10,%r12
    1fab:	49 31 dc             	xor    %rbx,%r12
    1fae:	4c 89 64 24 70       	mov    %r12,0x70(%rsp)
    1fb3:	49 f7 d2             	not    %r10
    1fb6:	4d 21 da             	and    %r11,%r10
    1fb9:	49 31 ea             	xor    %rbp,%r10
    1fbc:	4c 89 54 24 78       	mov    %r10,0x78(%rsp)
    1fc1:	4c 8b 94 24 00 01 00 	mov    0x100(%rsp),%r10
    1fc8:	00 
    1fc9:	49 31 f2             	xor    %rsi,%r10
    1fcc:	49 d1 c2             	rol    %r10
    1fcf:	4c 8b 9c 24 30 01 00 	mov    0x130(%rsp),%r11
    1fd6:	00 
    1fd7:	49 31 fb             	xor    %rdi,%r11
    1fda:	49 c1 c3 06          	rol    $0x6,%r11
    1fde:	4c 8b a4 24 60 01 00 	mov    0x160(%rsp),%r12
    1fe5:	00 
    1fe6:	4d 31 c4             	xor    %r8,%r12
    1fe9:	49 c1 c4 19          	rol    $0x19,%r12
    1fed:	48 8b 9c 24 90 01 00 	mov    0x190(%rsp),%rbx
    1ff4:	00 
    1ff5:	4c 31 cb             	xor    %r9,%rbx
    1ff8:	48 c1 c3 08          	rol    $0x8,%rbx
    1ffc:	48 8b ac 24 98 01 00 	mov    0x198(%rsp),%rbp
    2003:	00 
    2004:	48 31 d5             	xor    %rdx,%rbp
    2007:	48 c1 c5 12          	rol    $0x12,%rbp
    200b:	4d 89 dd             	mov    %r11,%r13
    200e:	49 f7 d5             	not    %r13
    2011:	4d 21 e5             	and    %r12,%r13
    2014:	4d 31 d5             	xor    %r10,%r13
    2017:	4c 89 ac 24 80 00 00 	mov    %r13,0x80(%rsp)
    201e:	00 
    201f:	4d 89 e5             	mov    %r12,%r13
    2022:	49 f7 d5             	not    %r13
    2025:	49 21 dd             	and    %rbx,%r13
    2028:	4d 31 dd             	xor    %r11,%r13
    202b:	4c 89 ac 24 88 00 00 	mov    %r13,0x88(%rsp)
    2032:	00 
    2033:	49 89 dd             	mov    %rbx,%r13
    2036:	49 f7 d5             	not    %r13
    2039:	49 21 ed             	and    %rbp,%r13
    203c:	4d 31 e5             	xor    %r12,%r13
    203f:	4c 89 ac 24 90 00 00 	mov    %r13,0x90(%rsp)
    2046:	00 
    2047:	49 89 ec             	mov    %rbp,%r12
    204a:	49 f7 d4             	not    %r12
    204d:	4d 21 d4             	and    %r10,%r12
    2050:	49 31 dc             	xor    %rbx,%r12
    2053:	4c 89 a4 24 98 00 00 	mov    %r12,0x98(%rsp)
    205a:	00 
    205b:	49 f7 d2             	not    %r10
    205e:	4d 21 da             	and    %r11,%r10
    2061:	49 31 ea             	xor    %rbp,%r10
    2064:	4c 89 94 24 a0 00 00 	mov    %r10,0xa0(%rsp)
    206b:	00 
    206c:	4c 8b 94 24 18 01 00 	mov    0x118(%rsp),%r10
    2073:	00 
    2074:	4d 31 ca             	xor    %r9,%r10
    2077:	49 c1 c2 1b          	rol    $0x1b,%r10
    207b:	4c 8b 9c 24 20 01 00 	mov    0x120(%rsp),%r11
    2082:	00 
    2083:	49 31 d3             	xor    %rdx,%r11
    2086:	49 c1 c3 24          	rol    $0x24,%r11
    208a:	4c 8b a4 24 50 01 00 	mov    0x150(%rsp),%r12
    2091:	00 
    2092:	49 31 f4             	xor    %rsi,%r12
    2095:	49 c1 c4 0a          	rol    $0xa,%r12
    2099:	48 8b 9c 24 80 01 00 	mov    0x180(%rsp),%rbx
    20a0:	00 
    20a1:	48 31 fb             	xor    %rdi,%rbx
    20a4:	48 c1 c3 0f          	rol    $0xf,%rbx
    20a8:	48 8b ac 24 b0 01 00 	mov    0x1b0(%rsp),%rbp
    20af:	00 
    20b0:	4c 31 c5             	xor    %r8,%rbp
    20b3:	48 c1 c5 38          	rol    $0x38,%rbp
    20b7:	4d 89 dd             	mov    %r11,%r13
    20ba:	49 f7 d5             	not    %r13
    20bd:	4d 21 e5             	and    %r12,%r13
    20c0:	4d 31 d5             	xor    %r10,%r13
    20c3:	4c 89 ac 24 a8 00 00 	mov    %r13,0xa8(%rsp)
    20ca:	00 
    20cb:	4d 89 e5             	mov    %r12,%r13
    20ce:	49 f7 d5             	not    %r13
    20d1:	49 21 dd             	and    %rbx,%r13
    20d4:	4d 31 dd             	xor    %r11,%r13
    20d7:	4c 89 ac 24 b0 00 00 	mov    %r13,0xb0(%rsp)
    20de:	00 
    20df:	49 89 dd             	mov    %rbx,%r13
    20e2:	49 f7 d5             	not    %r13
    20e5:	49 21 ed             	and    %rbp,%r13
    20e8:	4d 31 e5             	xor    %r12,%r13
    20eb:	4c 89 ac 24 b8 00 00 	mov    %r13,0xb8(%rsp)
    20f2:	00 
    20f3:	49 89 ec             	mov    %rbp,%r12
    20f6:	49 f7 d4             	not    %r12
    20f9:	4d 21 d4             	and    %r10,%r12
    20fc:	49 31 dc             	xor    %rbx,%r12
    20ff:	4c 89 a4 24 c0 00 00 	mov    %r12,0xc0(%rsp)
    2106:	00 
    2107:	49 f7 d2             	not    %r10
    210a:	4d 21 da             	and    %r11,%r10
    210d:	49 31 ea             	xor    %rbp,%r10
    2110:	4c 89 94 24 c8 00 00 	mov    %r10,0xc8(%rsp)
    2117:	00 
    2118:	4c 8b 94 24 08 01 00 	mov    0x108(%rsp),%r10
    211f:	00 
    2120:	49 31 fa             	xor    %rdi,%r10
    2123:	49 c1 c2 3e          	rol    $0x3e,%r10
    2127:	48 8b bc 24 38 01 00 	mov    0x138(%rsp),%rdi
    212e:	00 
    212f:	4c 31 c7             	xor    %r8,%rdi
    2132:	48 c1 c7 37          	rol    $0x37,%rdi
    2136:	4c 8b 84 24 68 01 00 	mov    0x168(%rsp),%r8
    213d:	00 
    213e:	4d 31 c8             	xor    %r9,%r8
    2141:	49 c1 c0 27          	rol    $0x27,%r8
    2145:	4c 8b 8c 24 70 01 00 	mov    0x170(%rsp),%r9
    214c:	00 
    214d:	49 31 d1             	xor    %rdx,%r9
    2150:	49 c1 c1 29          	rol    $0x29,%r9
    2154:	48 8b 94 24 a0 01 00 	mov    0x1a0(%rsp),%rdx
    215b:	00 
    215c:	48 31 f2             	xor    %rsi,%rdx
    215f:	48 c1 c2 02          	rol    $0x2,%rdx
    2163:	48 89 fe             	mov    %rdi,%rsi
    2166:	48 f7 d6             	not    %rsi
    2169:	4c 21 c6             	and    %r8,%rsi
    216c:	4c 31 d6             	xor    %r10,%rsi
    216f:	48 89 b4 24 d0 00 00 	mov    %rsi,0xd0(%rsp)
    2176:	00 
    2177:	4c 89 c6             	mov    %r8,%rsi
    217a:	48 f7 d6             	not    %rsi
    217d:	4c 21 ce             	and    %r9,%rsi
    2180:	48 31 fe             	xor    %rdi,%rsi
    2183:	48 89 b4 24 d8 00 00 	mov    %rsi,0xd8(%rsp)
    218a:	00 
    218b:	4c 89 ce             	mov    %r9,%rsi
    218e:	48 f7 d6             	not    %rsi
    2191:	48 21 d6             	and    %rdx,%rsi
    2194:	4c 31 c6             	xor    %r8,%rsi
    2197:	48 89 b4 24 e0 00 00 	mov    %rsi,0xe0(%rsp)
    219e:	00 
    219f:	48 89 d6             	mov    %rdx,%rsi
    21a2:	48 f7 d6             	not    %rsi
    21a5:	4c 21 d6             	and    %r10,%rsi
    21a8:	4c 31 ce             	xor    %r9,%rsi
    21ab:	48 89 b4 24 e8 00 00 	mov    %rsi,0xe8(%rsp)
    21b2:	00 
    21b3:	49 f7 d2             	not    %r10
    21b6:	49 21 fa             	and    %rdi,%r10
    21b9:	49 31 d2             	xor    %rdx,%r10
    21bc:	4c 89 94 24 f0 00 00 	mov    %r10,0xf0(%rsp)
    21c3:	00 
    21c4:	48 83 c1 02          	add    $0x2,%rcx

00000000000021c8 <L_keccak1600_ref$20>:
    21c8:	48 83 f9 17          	cmp    $0x17,%rcx
    21cc:	0f 82 ab f7 ff ff    	jb     197d <L_keccak1600_ref$21>
    21d2:	48 8b 74 24 18       	mov    0x18(%rsp),%rsi
    21d7:	48 8b 54 24 20       	mov    0x20(%rsp),%rdx
    21dc:	48 8b 44 24 28       	mov    0x28(%rsp),%rax

00000000000021e1 <L_keccak1600_ref$18>:
    21e1:	48 39 c2             	cmp    %rax,%rdx
    21e4:	0f 83 4a f7 ff ff    	jae    1934 <L_keccak1600_ref$19>
    21ea:	8a 8c 24 c0 01 00 00 	mov    0x1c0(%rsp),%cl
    21f1:	48 89 d7             	mov    %rdx,%rdi
    21f4:	48 c1 ef 03          	shr    $0x3,%rdi
    21f8:	49 c7 c0 00 00 00 00 	mov    $0x0,%r8
    21ff:	eb 0c                	jmp    220d <L_keccak1600_ref$16>

0000000000002201 <L_keccak1600_ref$17>:
    2201:	4e 8b 0c c6          	mov    (%rsi,%r8,8),%r9
    2205:	4e 31 4c c4 30       	xor    %r9,0x30(%rsp,%r8,8)
    220a:	49 ff c0             	inc    %r8

000000000000220d <L_keccak1600_ref$16>:
    220d:	49 39 f8             	cmp    %rdi,%r8
    2210:	72 ef                	jb     2201 <L_keccak1600_ref$17>
    2212:	49 c1 e0 03          	shl    $0x3,%r8
    2216:	eb 0c                	jmp    2224 <L_keccak1600_ref$14>

0000000000002218 <L_keccak1600_ref$15>:
    2218:	42 8a 3c 06          	mov    (%rsi,%r8,1),%dil
    221c:	42 30 7c 04 30       	xor    %dil,0x30(%rsp,%r8,1)
    2221:	49 ff c0             	inc    %r8

0000000000002224 <L_keccak1600_ref$14>:
    2224:	49 39 d0             	cmp    %rdx,%r8
    2227:	72 ef                	jb     2218 <L_keccak1600_ref$15>
    2229:	42 30 4c 04 30       	xor    %cl,0x30(%rsp,%r8,1)
    222e:	48 89 c1             	mov    %rax,%rcx
    2231:	48 83 c1 ff          	add    $0xffffffffffffffff,%rcx
    2235:	80 74 0c 30 80       	xorb   $0x80,0x30(%rsp,%rcx,1)
    223a:	48 8b 54 24 10       	mov    0x10(%rsp),%rdx
    223f:	e9 ad 08 00 00       	jmp    2af1 <L_keccak1600_ref$8>

0000000000002244 <L_keccak1600_ref$9>:
    2244:	48 89 54 24 10       	mov    %rdx,0x10(%rsp)
    2249:	48 89 44 24 28       	mov    %rax,0x28(%rsp)
    224e:	48 8d 05 cb 3d 00 00 	lea    0x3dcb(%rip),%rax        # 6020 <G$KECCAK1600_RC>
    2255:	48 c7 c1 00 00 00 00 	mov    $0x0,%rcx
    225c:	e9 4b 08 00 00       	jmp    2aac <L_keccak1600_ref$12>

0000000000002261 <L_keccak1600_ref$13>:
    2261:	4c 8b 14 c8          	mov    (%rax,%rcx,8),%r10
    2265:	4c 8b 4c 24 30       	mov    0x30(%rsp),%r9
    226a:	4c 8b 44 24 38       	mov    0x38(%rsp),%r8
    226f:	4c 8b 5c 24 40       	mov    0x40(%rsp),%r11
    2274:	48 8b 5c 24 48       	mov    0x48(%rsp),%rbx
    2279:	48 8b 6c 24 50       	mov    0x50(%rsp),%rbp
    227e:	4c 33 4c 24 58       	xor    0x58(%rsp),%r9
    2283:	4c 33 44 24 60       	xor    0x60(%rsp),%r8
    2288:	4c 33 5c 24 68       	xor    0x68(%rsp),%r11
    228d:	48 33 5c 24 70       	xor    0x70(%rsp),%rbx
    2292:	48 33 6c 24 78       	xor    0x78(%rsp),%rbp
    2297:	4c 33 8c 24 80 00 00 	xor    0x80(%rsp),%r9
    229e:	00 
    229f:	4c 33 84 24 88 00 00 	xor    0x88(%rsp),%r8
    22a6:	00 
    22a7:	4c 33 9c 24 90 00 00 	xor    0x90(%rsp),%r11
    22ae:	00 
    22af:	48 33 9c 24 98 00 00 	xor    0x98(%rsp),%rbx
    22b6:	00 
    22b7:	48 33 ac 24 a0 00 00 	xor    0xa0(%rsp),%rbp
    22be:	00 
    22bf:	4c 33 8c 24 a8 00 00 	xor    0xa8(%rsp),%r9
    22c6:	00 
    22c7:	4c 33 84 24 b0 00 00 	xor    0xb0(%rsp),%r8
    22ce:	00 
    22cf:	4c 33 9c 24 b8 00 00 	xor    0xb8(%rsp),%r11
    22d6:	00 
    22d7:	48 33 9c 24 c0 00 00 	xor    0xc0(%rsp),%rbx
    22de:	00 
    22df:	48 33 ac 24 c8 00 00 	xor    0xc8(%rsp),%rbp
    22e6:	00 
    22e7:	4c 33 8c 24 d0 00 00 	xor    0xd0(%rsp),%r9
    22ee:	00 
    22ef:	4c 33 84 24 d8 00 00 	xor    0xd8(%rsp),%r8
    22f6:	00 
    22f7:	4c 33 9c 24 e0 00 00 	xor    0xe0(%rsp),%r11
    22fe:	00 
    22ff:	48 33 9c 24 e8 00 00 	xor    0xe8(%rsp),%rbx
    2306:	00 
    2307:	48 33 ac 24 f0 00 00 	xor    0xf0(%rsp),%rbp
    230e:	00 
    230f:	4c 89 c2             	mov    %r8,%rdx
    2312:	48 d1 c2             	rol    %rdx
    2315:	48 31 ea             	xor    %rbp,%rdx
    2318:	4c 89 de             	mov    %r11,%rsi
    231b:	48 d1 c6             	rol    %rsi
    231e:	4c 31 ce             	xor    %r9,%rsi
    2321:	48 89 df             	mov    %rbx,%rdi
    2324:	48 d1 c7             	rol    %rdi
    2327:	4c 31 c7             	xor    %r8,%rdi
    232a:	49 89 e8             	mov    %rbp,%r8
    232d:	49 d1 c0             	rol    %r8
    2330:	4d 31 d8             	xor    %r11,%r8
    2333:	49 d1 c1             	rol    %r9
    2336:	49 31 d9             	xor    %rbx,%r9
    2339:	4c 8b 5c 24 30       	mov    0x30(%rsp),%r11
    233e:	49 31 d3             	xor    %rdx,%r11
    2341:	48 8b 5c 24 60       	mov    0x60(%rsp),%rbx
    2346:	48 31 f3             	xor    %rsi,%rbx
    2349:	48 c1 c3 2c          	rol    $0x2c,%rbx
    234d:	48 8b ac 24 90 00 00 	mov    0x90(%rsp),%rbp
    2354:	00 
    2355:	48 31 fd             	xor    %rdi,%rbp
    2358:	48 c1 c5 2b          	rol    $0x2b,%rbp
    235c:	4c 8b a4 24 c0 00 00 	mov    0xc0(%rsp),%r12
    2363:	00 
    2364:	4d 31 c4             	xor    %r8,%r12
    2367:	49 c1 c4 15          	rol    $0x15,%r12
    236b:	4c 8b ac 24 f0 00 00 	mov    0xf0(%rsp),%r13
    2372:	00 
    2373:	4d 31 cd             	xor    %r9,%r13
    2376:	49 c1 c5 0e          	rol    $0xe,%r13
    237a:	49 89 de             	mov    %rbx,%r14
    237d:	49 f7 d6             	not    %r14
    2380:	49 21 ee             	and    %rbp,%r14
    2383:	4d 31 de             	xor    %r11,%r14
    2386:	4d 31 d6             	xor    %r10,%r14
    2389:	4c 89 b4 24 f8 00 00 	mov    %r14,0xf8(%rsp)
    2390:	00 
    2391:	49 89 ea             	mov    %rbp,%r10
    2394:	49 f7 d2             	not    %r10
    2397:	4d 21 e2             	and    %r12,%r10
    239a:	49 31 da             	xor    %rbx,%r10
    239d:	4c 89 94 24 00 01 00 	mov    %r10,0x100(%rsp)
    23a4:	00 
    23a5:	4d 89 e2             	mov    %r12,%r10
    23a8:	49 f7 d2             	not    %r10
    23ab:	4d 21 ea             	and    %r13,%r10
    23ae:	49 31 ea             	xor    %rbp,%r10
    23b1:	4c 89 94 24 08 01 00 	mov    %r10,0x108(%rsp)
    23b8:	00 
    23b9:	4d 89 ea             	mov    %r13,%r10
    23bc:	49 f7 d2             	not    %r10
    23bf:	4d 21 da             	and    %r11,%r10
    23c2:	4d 31 e2             	xor    %r12,%r10
    23c5:	4c 89 94 24 10 01 00 	mov    %r10,0x110(%rsp)
    23cc:	00 
    23cd:	49 f7 d3             	not    %r11
    23d0:	49 21 db             	and    %rbx,%r11
    23d3:	4d 31 eb             	xor    %r13,%r11
    23d6:	4c 89 9c 24 18 01 00 	mov    %r11,0x118(%rsp)
    23dd:	00 
    23de:	4c 8b 54 24 48       	mov    0x48(%rsp),%r10
    23e3:	4d 31 c2             	xor    %r8,%r10
    23e6:	49 c1 c2 1c          	rol    $0x1c,%r10
    23ea:	4c 8b 5c 24 78       	mov    0x78(%rsp),%r11
    23ef:	4d 31 cb             	xor    %r9,%r11
    23f2:	49 c1 c3 14          	rol    $0x14,%r11
    23f6:	4c 8b a4 24 80 00 00 	mov    0x80(%rsp),%r12
    23fd:	00 
    23fe:	49 31 d4             	xor    %rdx,%r12
    2401:	49 c1 c4 03          	rol    $0x3,%r12
    2405:	48 8b 9c 24 b0 00 00 	mov    0xb0(%rsp),%rbx
    240c:	00 
    240d:	48 31 f3             	xor    %rsi,%rbx
    2410:	48 c1 c3 2d          	rol    $0x2d,%rbx
    2414:	48 8b ac 24 e0 00 00 	mov    0xe0(%rsp),%rbp
    241b:	00 
    241c:	48 31 fd             	xor    %rdi,%rbp
    241f:	48 c1 c5 3d          	rol    $0x3d,%rbp
    2423:	4d 89 dd             	mov    %r11,%r13
    2426:	49 f7 d5             	not    %r13
    2429:	4d 21 e5             	and    %r12,%r13
    242c:	4d 31 d5             	xor    %r10,%r13
    242f:	4c 89 ac 24 20 01 00 	mov    %r13,0x120(%rsp)
    2436:	00 
    2437:	4d 89 e5             	mov    %r12,%r13
    243a:	49 f7 d5             	not    %r13
    243d:	49 21 dd             	and    %rbx,%r13
    2440:	4d 31 dd             	xor    %r11,%r13
    2443:	4c 89 ac 24 28 01 00 	mov    %r13,0x128(%rsp)
    244a:	00 
    244b:	49 89 dd             	mov    %rbx,%r13
    244e:	49 f7 d5             	not    %r13
    2451:	49 21 ed             	and    %rbp,%r13
    2454:	4d 31 e5             	xor    %r12,%r13
    2457:	4c 89 ac 24 30 01 00 	mov    %r13,0x130(%rsp)
    245e:	00 
    245f:	49 89 ec             	mov    %rbp,%r12
    2462:	49 f7 d4             	not    %r12
    2465:	4d 21 d4             	and    %r10,%r12
    2468:	49 31 dc             	xor    %rbx,%r12
    246b:	4c 89 a4 24 38 01 00 	mov    %r12,0x138(%rsp)
    2472:	00 
    2473:	49 f7 d2             	not    %r10
    2476:	4d 21 da             	and    %r11,%r10
    2479:	49 31 ea             	xor    %rbp,%r10
    247c:	4c 89 94 24 40 01 00 	mov    %r10,0x140(%rsp)
    2483:	00 
    2484:	4c 8b 54 24 38       	mov    0x38(%rsp),%r10
    2489:	49 31 f2             	xor    %rsi,%r10
    248c:	49 d1 c2             	rol    %r10
    248f:	4c 8b 5c 24 68       	mov    0x68(%rsp),%r11
    2494:	49 31 fb             	xor    %rdi,%r11
    2497:	49 c1 c3 06          	rol    $0x6,%r11
    249b:	4c 8b a4 24 98 00 00 	mov    0x98(%rsp),%r12
    24a2:	00 
    24a3:	4d 31 c4             	xor    %r8,%r12
    24a6:	49 c1 c4 19          	rol    $0x19,%r12
    24aa:	48 8b 9c 24 c8 00 00 	mov    0xc8(%rsp),%rbx
    24b1:	00 
    24b2:	4c 31 cb             	xor    %r9,%rbx
    24b5:	48 c1 c3 08          	rol    $0x8,%rbx
    24b9:	48 8b ac 24 d0 00 00 	mov    0xd0(%rsp),%rbp
    24c0:	00 
    24c1:	48 31 d5             	xor    %rdx,%rbp
    24c4:	48 c1 c5 12          	rol    $0x12,%rbp
    24c8:	4d 89 dd             	mov    %r11,%r13
    24cb:	49 f7 d5             	not    %r13
    24ce:	4d 21 e5             	and    %r12,%r13
    24d1:	4d 31 d5             	xor    %r10,%r13
    24d4:	4c 89 ac 24 48 01 00 	mov    %r13,0x148(%rsp)
    24db:	00 
    24dc:	4d 89 e5             	mov    %r12,%r13
    24df:	49 f7 d5             	not    %r13
    24e2:	49 21 dd             	and    %rbx,%r13
    24e5:	4d 31 dd             	xor    %r11,%r13
    24e8:	4c 89 ac 24 50 01 00 	mov    %r13,0x150(%rsp)
    24ef:	00 
    24f0:	49 89 dd             	mov    %rbx,%r13
    24f3:	49 f7 d5             	not    %r13
    24f6:	49 21 ed             	and    %rbp,%r13
    24f9:	4d 31 e5             	xor    %r12,%r13
    24fc:	4c 89 ac 24 58 01 00 	mov    %r13,0x158(%rsp)
    2503:	00 
    2504:	49 89 ec             	mov    %rbp,%r12
    2507:	49 f7 d4             	not    %r12
    250a:	4d 21 d4             	and    %r10,%r12
    250d:	49 31 dc             	xor    %rbx,%r12
    2510:	4c 89 a4 24 60 01 00 	mov    %r12,0x160(%rsp)
    2517:	00 
    2518:	49 f7 d2             	not    %r10
    251b:	4d 21 da             	and    %r11,%r10
    251e:	49 31 ea             	xor    %rbp,%r10
    2521:	4c 89 94 24 68 01 00 	mov    %r10,0x168(%rsp)
    2528:	00 
    2529:	4c 8b 54 24 50       	mov    0x50(%rsp),%r10
    252e:	4d 31 ca             	xor    %r9,%r10
    2531:	49 c1 c2 1b          	rol    $0x1b,%r10
    2535:	4c 8b 5c 24 58       	mov    0x58(%rsp),%r11
    253a:	49 31 d3             	xor    %rdx,%r11
    253d:	49 c1 c3 24          	rol    $0x24,%r11
    2541:	4c 8b a4 24 88 00 00 	mov    0x88(%rsp),%r12
    2548:	00 
    2549:	49 31 f4             	xor    %rsi,%r12
    254c:	49 c1 c4 0a          	rol    $0xa,%r12
    2550:	48 8b 9c 24 b8 00 00 	mov    0xb8(%rsp),%rbx
    2557:	00 
    2558:	48 31 fb             	xor    %rdi,%rbx
    255b:	48 c1 c3 0f          	rol    $0xf,%rbx
    255f:	48 8b ac 24 e8 00 00 	mov    0xe8(%rsp),%rbp
    2566:	00 
    2567:	4c 31 c5             	xor    %r8,%rbp
    256a:	48 c1 c5 38          	rol    $0x38,%rbp
    256e:	4d 89 dd             	mov    %r11,%r13
    2571:	49 f7 d5             	not    %r13
    2574:	4d 21 e5             	and    %r12,%r13
    2577:	4d 31 d5             	xor    %r10,%r13
    257a:	4c 89 ac 24 70 01 00 	mov    %r13,0x170(%rsp)
    2581:	00 
    2582:	4d 89 e5             	mov    %r12,%r13
    2585:	49 f7 d5             	not    %r13
    2588:	49 21 dd             	and    %rbx,%r13
    258b:	4d 31 dd             	xor    %r11,%r13
    258e:	4c 89 ac 24 78 01 00 	mov    %r13,0x178(%rsp)
    2595:	00 
    2596:	49 89 dd             	mov    %rbx,%r13
    2599:	49 f7 d5             	not    %r13
    259c:	49 21 ed             	and    %rbp,%r13
    259f:	4d 31 e5             	xor    %r12,%r13
    25a2:	4c 89 ac 24 80 01 00 	mov    %r13,0x180(%rsp)
    25a9:	00 
    25aa:	49 89 ec             	mov    %rbp,%r12
    25ad:	49 f7 d4             	not    %r12
    25b0:	4d 21 d4             	and    %r10,%r12
    25b3:	49 31 dc             	xor    %rbx,%r12
    25b6:	4c 89 a4 24 88 01 00 	mov    %r12,0x188(%rsp)
    25bd:	00 
    25be:	49 f7 d2             	not    %r10
    25c1:	4d 21 da             	and    %r11,%r10
    25c4:	49 31 ea             	xor    %rbp,%r10
    25c7:	4c 89 94 24 90 01 00 	mov    %r10,0x190(%rsp)
    25ce:	00 
    25cf:	4c 8b 54 24 40       	mov    0x40(%rsp),%r10
    25d4:	49 31 fa             	xor    %rdi,%r10
    25d7:	49 c1 c2 3e          	rol    $0x3e,%r10
    25db:	48 8b 7c 24 70       	mov    0x70(%rsp),%rdi
    25e0:	4c 31 c7             	xor    %r8,%rdi
    25e3:	48 c1 c7 37          	rol    $0x37,%rdi
    25e7:	4c 8b 84 24 a0 00 00 	mov    0xa0(%rsp),%r8
    25ee:	00 
    25ef:	4d 31 c8             	xor    %r9,%r8
    25f2:	49 c1 c0 27          	rol    $0x27,%r8
    25f6:	4c 8b 8c 24 a8 00 00 	mov    0xa8(%rsp),%r9
    25fd:	00 
    25fe:	49 31 d1             	xor    %rdx,%r9
    2601:	49 c1 c1 29          	rol    $0x29,%r9
    2605:	48 8b 94 24 d8 00 00 	mov    0xd8(%rsp),%rdx
    260c:	00 
    260d:	48 31 f2             	xor    %rsi,%rdx
    2610:	48 c1 c2 02          	rol    $0x2,%rdx
    2614:	48 89 fe             	mov    %rdi,%rsi
    2617:	48 f7 d6             	not    %rsi
    261a:	4c 21 c6             	and    %r8,%rsi
    261d:	4c 31 d6             	xor    %r10,%rsi
    2620:	48 89 b4 24 98 01 00 	mov    %rsi,0x198(%rsp)
    2627:	00 
    2628:	4c 89 c6             	mov    %r8,%rsi
    262b:	48 f7 d6             	not    %rsi
    262e:	4c 21 ce             	and    %r9,%rsi
    2631:	48 31 fe             	xor    %rdi,%rsi
    2634:	48 89 b4 24 a0 01 00 	mov    %rsi,0x1a0(%rsp)
    263b:	00 
    263c:	4c 89 ce             	mov    %r9,%rsi
    263f:	48 f7 d6             	not    %rsi
    2642:	48 21 d6             	and    %rdx,%rsi
    2645:	4c 31 c6             	xor    %r8,%rsi
    2648:	48 89 b4 24 a8 01 00 	mov    %rsi,0x1a8(%rsp)
    264f:	00 
    2650:	48 89 d6             	mov    %rdx,%rsi
    2653:	48 f7 d6             	not    %rsi
    2656:	4c 21 d6             	and    %r10,%rsi
    2659:	4c 31 ce             	xor    %r9,%rsi
    265c:	48 89 b4 24 b0 01 00 	mov    %rsi,0x1b0(%rsp)
    2663:	00 
    2664:	49 f7 d2             	not    %r10
    2667:	49 21 fa             	and    %rdi,%r10
    266a:	49 31 d2             	xor    %rdx,%r10
    266d:	4c 89 94 24 b8 01 00 	mov    %r10,0x1b8(%rsp)
    2674:	00 
    2675:	4c 8b 54 c8 08       	mov    0x8(%rax,%rcx,8),%r10
    267a:	4c 8b 8c 24 f8 00 00 	mov    0xf8(%rsp),%r9
    2681:	00 
    2682:	4c 8b 84 24 00 01 00 	mov    0x100(%rsp),%r8
    2689:	00 
    268a:	4c 8b 9c 24 08 01 00 	mov    0x108(%rsp),%r11
    2691:	00 
    2692:	48 8b 9c 24 10 01 00 	mov    0x110(%rsp),%rbx
    2699:	00 
    269a:	48 8b ac 24 18 01 00 	mov    0x118(%rsp),%rbp
    26a1:	00 
    26a2:	4c 33 8c 24 20 01 00 	xor    0x120(%rsp),%r9
    26a9:	00 
    26aa:	4c 33 84 24 28 01 00 	xor    0x128(%rsp),%r8
    26b1:	00 
    26b2:	4c 33 9c 24 30 01 00 	xor    0x130(%rsp),%r11
    26b9:	00 
    26ba:	48 33 9c 24 38 01 00 	xor    0x138(%rsp),%rbx
    26c1:	00 
    26c2:	48 33 ac 24 40 01 00 	xor    0x140(%rsp),%rbp
    26c9:	00 
    26ca:	4c 33 8c 24 48 01 00 	xor    0x148(%rsp),%r9
    26d1:	00 
    26d2:	4c 33 84 24 50 01 00 	xor    0x150(%rsp),%r8
    26d9:	00 
    26da:	4c 33 9c 24 58 01 00 	xor    0x158(%rsp),%r11
    26e1:	00 
    26e2:	48 33 9c 24 60 01 00 	xor    0x160(%rsp),%rbx
    26e9:	00 
    26ea:	48 33 ac 24 68 01 00 	xor    0x168(%rsp),%rbp
    26f1:	00 
    26f2:	4c 33 8c 24 70 01 00 	xor    0x170(%rsp),%r9
    26f9:	00 
    26fa:	4c 33 84 24 78 01 00 	xor    0x178(%rsp),%r8
    2701:	00 
    2702:	4c 33 9c 24 80 01 00 	xor    0x180(%rsp),%r11
    2709:	00 
    270a:	48 33 9c 24 88 01 00 	xor    0x188(%rsp),%rbx
    2711:	00 
    2712:	48 33 ac 24 90 01 00 	xor    0x190(%rsp),%rbp
    2719:	00 
    271a:	4c 33 8c 24 98 01 00 	xor    0x198(%rsp),%r9
    2721:	00 
    2722:	4c 33 84 24 a0 01 00 	xor    0x1a0(%rsp),%r8
    2729:	00 
    272a:	4c 33 9c 24 a8 01 00 	xor    0x1a8(%rsp),%r11
    2731:	00 
    2732:	48 33 9c 24 b0 01 00 	xor    0x1b0(%rsp),%rbx
    2739:	00 
    273a:	48 33 ac 24 b8 01 00 	xor    0x1b8(%rsp),%rbp
    2741:	00 
    2742:	4c 89 c2             	mov    %r8,%rdx
    2745:	48 d1 c2             	rol    %rdx
    2748:	48 31 ea             	xor    %rbp,%rdx
    274b:	4c 89 de             	mov    %r11,%rsi
    274e:	48 d1 c6             	rol    %rsi
    2751:	4c 31 ce             	xor    %r9,%rsi
    2754:	48 89 df             	mov    %rbx,%rdi
    2757:	48 d1 c7             	rol    %rdi
    275a:	4c 31 c7             	xor    %r8,%rdi
    275d:	49 89 e8             	mov    %rbp,%r8
    2760:	49 d1 c0             	rol    %r8
    2763:	4d 31 d8             	xor    %r11,%r8
    2766:	49 d1 c1             	rol    %r9
    2769:	49 31 d9             	xor    %rbx,%r9
    276c:	4c 8b 9c 24 f8 00 00 	mov    0xf8(%rsp),%r11
    2773:	00 
    2774:	49 31 d3             	xor    %rdx,%r11
    2777:	48 8b 9c 24 28 01 00 	mov    0x128(%rsp),%rbx
    277e:	00 
    277f:	48 31 f3             	xor    %rsi,%rbx
    2782:	48 c1 c3 2c          	rol    $0x2c,%rbx
    2786:	48 8b ac 24 58 01 00 	mov    0x158(%rsp),%rbp
    278d:	00 
    278e:	48 31 fd             	xor    %rdi,%rbp
    2791:	48 c1 c5 2b          	rol    $0x2b,%rbp
    2795:	4c 8b a4 24 88 01 00 	mov    0x188(%rsp),%r12
    279c:	00 
    279d:	4d 31 c4             	xor    %r8,%r12
    27a0:	49 c1 c4 15          	rol    $0x15,%r12
    27a4:	4c 8b ac 24 b8 01 00 	mov    0x1b8(%rsp),%r13
    27ab:	00 
    27ac:	4d 31 cd             	xor    %r9,%r13
    27af:	49 c1 c5 0e          	rol    $0xe,%r13
    27b3:	49 89 de             	mov    %rbx,%r14
    27b6:	49 f7 d6             	not    %r14
    27b9:	49 21 ee             	and    %rbp,%r14
    27bc:	4d 31 de             	xor    %r11,%r14
    27bf:	4d 31 d6             	xor    %r10,%r14
    27c2:	4c 89 74 24 30       	mov    %r14,0x30(%rsp)
    27c7:	49 89 ea             	mov    %rbp,%r10
    27ca:	49 f7 d2             	not    %r10
    27cd:	4d 21 e2             	and    %r12,%r10
    27d0:	49 31 da             	xor    %rbx,%r10
    27d3:	4c 89 54 24 38       	mov    %r10,0x38(%rsp)
    27d8:	4d 89 e2             	mov    %r12,%r10
    27db:	49 f7 d2             	not    %r10
    27de:	4d 21 ea             	and    %r13,%r10
    27e1:	49 31 ea             	xor    %rbp,%r10
    27e4:	4c 89 54 24 40       	mov    %r10,0x40(%rsp)
    27e9:	4d 89 ea             	mov    %r13,%r10
    27ec:	49 f7 d2             	not    %r10
    27ef:	4d 21 da             	and    %r11,%r10
    27f2:	4d 31 e2             	xor    %r12,%r10
    27f5:	4c 89 54 24 48       	mov    %r10,0x48(%rsp)
    27fa:	49 f7 d3             	not    %r11
    27fd:	49 21 db             	and    %rbx,%r11
    2800:	4d 31 eb             	xor    %r13,%r11
    2803:	4c 89 5c 24 50       	mov    %r11,0x50(%rsp)
    2808:	4c 8b 94 24 10 01 00 	mov    0x110(%rsp),%r10
    280f:	00 
    2810:	4d 31 c2             	xor    %r8,%r10
    2813:	49 c1 c2 1c          	rol    $0x1c,%r10
    2817:	4c 8b 9c 24 40 01 00 	mov    0x140(%rsp),%r11
    281e:	00 
    281f:	4d 31 cb             	xor    %r9,%r11
    2822:	49 c1 c3 14          	rol    $0x14,%r11
    2826:	4c 8b a4 24 48 01 00 	mov    0x148(%rsp),%r12
    282d:	00 
    282e:	49 31 d4             	xor    %rdx,%r12
    2831:	49 c1 c4 03          	rol    $0x3,%r12
    2835:	48 8b 9c 24 78 01 00 	mov    0x178(%rsp),%rbx
    283c:	00 
    283d:	48 31 f3             	xor    %rsi,%rbx
    2840:	48 c1 c3 2d          	rol    $0x2d,%rbx
    2844:	48 8b ac 24 a8 01 00 	mov    0x1a8(%rsp),%rbp
    284b:	00 
    284c:	48 31 fd             	xor    %rdi,%rbp
    284f:	48 c1 c5 3d          	rol    $0x3d,%rbp
    2853:	4d 89 dd             	mov    %r11,%r13
    2856:	49 f7 d5             	not    %r13
    2859:	4d 21 e5             	and    %r12,%r13
    285c:	4d 31 d5             	xor    %r10,%r13
    285f:	4c 89 6c 24 58       	mov    %r13,0x58(%rsp)
    2864:	4d 89 e5             	mov    %r12,%r13
    2867:	49 f7 d5             	not    %r13
    286a:	49 21 dd             	and    %rbx,%r13
    286d:	4d 31 dd             	xor    %r11,%r13
    2870:	4c 89 6c 24 60       	mov    %r13,0x60(%rsp)
    2875:	49 89 dd             	mov    %rbx,%r13
    2878:	49 f7 d5             	not    %r13
    287b:	49 21 ed             	and    %rbp,%r13
    287e:	4d 31 e5             	xor    %r12,%r13
    2881:	4c 89 6c 24 68       	mov    %r13,0x68(%rsp)
    2886:	49 89 ec             	mov    %rbp,%r12
    2889:	49 f7 d4             	not    %r12
    288c:	4d 21 d4             	and    %r10,%r12
    288f:	49 31 dc             	xor    %rbx,%r12
    2892:	4c 89 64 24 70       	mov    %r12,0x70(%rsp)
    2897:	49 f7 d2             	not    %r10
    289a:	4d 21 da             	and    %r11,%r10
    289d:	49 31 ea             	xor    %rbp,%r10
    28a0:	4c 89 54 24 78       	mov    %r10,0x78(%rsp)
    28a5:	4c 8b 94 24 00 01 00 	mov    0x100(%rsp),%r10
    28ac:	00 
    28ad:	49 31 f2             	xor    %rsi,%r10
    28b0:	49 d1 c2             	rol    %r10
    28b3:	4c 8b 9c 24 30 01 00 	mov    0x130(%rsp),%r11
    28ba:	00 
    28bb:	49 31 fb             	xor    %rdi,%r11
    28be:	49 c1 c3 06          	rol    $0x6,%r11
    28c2:	4c 8b a4 24 60 01 00 	mov    0x160(%rsp),%r12
    28c9:	00 
    28ca:	4d 31 c4             	xor    %r8,%r12
    28cd:	49 c1 c4 19          	rol    $0x19,%r12
    28d1:	48 8b 9c 24 90 01 00 	mov    0x190(%rsp),%rbx
    28d8:	00 
    28d9:	4c 31 cb             	xor    %r9,%rbx
    28dc:	48 c1 c3 08          	rol    $0x8,%rbx
    28e0:	48 8b ac 24 98 01 00 	mov    0x198(%rsp),%rbp
    28e7:	00 
    28e8:	48 31 d5             	xor    %rdx,%rbp
    28eb:	48 c1 c5 12          	rol    $0x12,%rbp
    28ef:	4d 89 dd             	mov    %r11,%r13
    28f2:	49 f7 d5             	not    %r13
    28f5:	4d 21 e5             	and    %r12,%r13
    28f8:	4d 31 d5             	xor    %r10,%r13
    28fb:	4c 89 ac 24 80 00 00 	mov    %r13,0x80(%rsp)
    2902:	00 
    2903:	4d 89 e5             	mov    %r12,%r13
    2906:	49 f7 d5             	not    %r13
    2909:	49 21 dd             	and    %rbx,%r13
    290c:	4d 31 dd             	xor    %r11,%r13
    290f:	4c 89 ac 24 88 00 00 	mov    %r13,0x88(%rsp)
    2916:	00 
    2917:	49 89 dd             	mov    %rbx,%r13
    291a:	49 f7 d5             	not    %r13
    291d:	49 21 ed             	and    %rbp,%r13
    2920:	4d 31 e5             	xor    %r12,%r13
    2923:	4c 89 ac 24 90 00 00 	mov    %r13,0x90(%rsp)
    292a:	00 
    292b:	49 89 ec             	mov    %rbp,%r12
    292e:	49 f7 d4             	not    %r12
    2931:	4d 21 d4             	and    %r10,%r12
    2934:	49 31 dc             	xor    %rbx,%r12
    2937:	4c 89 a4 24 98 00 00 	mov    %r12,0x98(%rsp)
    293e:	00 
    293f:	49 f7 d2             	not    %r10
    2942:	4d 21 da             	and    %r11,%r10
    2945:	49 31 ea             	xor    %rbp,%r10
    2948:	4c 89 94 24 a0 00 00 	mov    %r10,0xa0(%rsp)
    294f:	00 
    2950:	4c 8b 94 24 18 01 00 	mov    0x118(%rsp),%r10
    2957:	00 
    2958:	4d 31 ca             	xor    %r9,%r10
    295b:	49 c1 c2 1b          	rol    $0x1b,%r10
    295f:	4c 8b 9c 24 20 01 00 	mov    0x120(%rsp),%r11
    2966:	00 
    2967:	49 31 d3             	xor    %rdx,%r11
    296a:	49 c1 c3 24          	rol    $0x24,%r11
    296e:	4c 8b a4 24 50 01 00 	mov    0x150(%rsp),%r12
    2975:	00 
    2976:	49 31 f4             	xor    %rsi,%r12
    2979:	49 c1 c4 0a          	rol    $0xa,%r12
    297d:	48 8b 9c 24 80 01 00 	mov    0x180(%rsp),%rbx
    2984:	00 
    2985:	48 31 fb             	xor    %rdi,%rbx
    2988:	48 c1 c3 0f          	rol    $0xf,%rbx
    298c:	48 8b ac 24 b0 01 00 	mov    0x1b0(%rsp),%rbp
    2993:	00 
    2994:	4c 31 c5             	xor    %r8,%rbp
    2997:	48 c1 c5 38          	rol    $0x38,%rbp
    299b:	4d 89 dd             	mov    %r11,%r13
    299e:	49 f7 d5             	not    %r13
    29a1:	4d 21 e5             	and    %r12,%r13
    29a4:	4d 31 d5             	xor    %r10,%r13
    29a7:	4c 89 ac 24 a8 00 00 	mov    %r13,0xa8(%rsp)
    29ae:	00 
    29af:	4d 89 e5             	mov    %r12,%r13
    29b2:	49 f7 d5             	not    %r13
    29b5:	49 21 dd             	and    %rbx,%r13
    29b8:	4d 31 dd             	xor    %r11,%r13
    29bb:	4c 89 ac 24 b0 00 00 	mov    %r13,0xb0(%rsp)
    29c2:	00 
    29c3:	49 89 dd             	mov    %rbx,%r13
    29c6:	49 f7 d5             	not    %r13
    29c9:	49 21 ed             	and    %rbp,%r13
    29cc:	4d 31 e5             	xor    %r12,%r13
    29cf:	4c 89 ac 24 b8 00 00 	mov    %r13,0xb8(%rsp)
    29d6:	00 
    29d7:	49 89 ec             	mov    %rbp,%r12
    29da:	49 f7 d4             	not    %r12
    29dd:	4d 21 d4             	and    %r10,%r12
    29e0:	49 31 dc             	xor    %rbx,%r12
    29e3:	4c 89 a4 24 c0 00 00 	mov    %r12,0xc0(%rsp)
    29ea:	00 
    29eb:	49 f7 d2             	not    %r10
    29ee:	4d 21 da             	and    %r11,%r10
    29f1:	49 31 ea             	xor    %rbp,%r10
    29f4:	4c 89 94 24 c8 00 00 	mov    %r10,0xc8(%rsp)
    29fb:	00 
    29fc:	4c 8b 94 24 08 01 00 	mov    0x108(%rsp),%r10
    2a03:	00 
    2a04:	49 31 fa             	xor    %rdi,%r10
    2a07:	49 c1 c2 3e          	rol    $0x3e,%r10
    2a0b:	48 8b bc 24 38 01 00 	mov    0x138(%rsp),%rdi
    2a12:	00 
    2a13:	4c 31 c7             	xor    %r8,%rdi
    2a16:	48 c1 c7 37          	rol    $0x37,%rdi
    2a1a:	4c 8b 84 24 68 01 00 	mov    0x168(%rsp),%r8
    2a21:	00 
    2a22:	4d 31 c8             	xor    %r9,%r8
    2a25:	49 c1 c0 27          	rol    $0x27,%r8
    2a29:	4c 8b 8c 24 70 01 00 	mov    0x170(%rsp),%r9
    2a30:	00 
    2a31:	49 31 d1             	xor    %rdx,%r9
    2a34:	49 c1 c1 29          	rol    $0x29,%r9
    2a38:	48 8b 94 24 a0 01 00 	mov    0x1a0(%rsp),%rdx
    2a3f:	00 
    2a40:	48 31 f2             	xor    %rsi,%rdx
    2a43:	48 c1 c2 02          	rol    $0x2,%rdx
    2a47:	48 89 fe             	mov    %rdi,%rsi
    2a4a:	48 f7 d6             	not    %rsi
    2a4d:	4c 21 c6             	and    %r8,%rsi
    2a50:	4c 31 d6             	xor    %r10,%rsi
    2a53:	48 89 b4 24 d0 00 00 	mov    %rsi,0xd0(%rsp)
    2a5a:	00 
    2a5b:	4c 89 c6             	mov    %r8,%rsi
    2a5e:	48 f7 d6             	not    %rsi
    2a61:	4c 21 ce             	and    %r9,%rsi
    2a64:	48 31 fe             	xor    %rdi,%rsi
    2a67:	48 89 b4 24 d8 00 00 	mov    %rsi,0xd8(%rsp)
    2a6e:	00 
    2a6f:	4c 89 ce             	mov    %r9,%rsi
    2a72:	48 f7 d6             	not    %rsi
    2a75:	48 21 d6             	and    %rdx,%rsi
    2a78:	4c 31 c6             	xor    %r8,%rsi
    2a7b:	48 89 b4 24 e0 00 00 	mov    %rsi,0xe0(%rsp)
    2a82:	00 
    2a83:	48 89 d6             	mov    %rdx,%rsi
    2a86:	48 f7 d6             	not    %rsi
    2a89:	4c 21 d6             	and    %r10,%rsi
    2a8c:	4c 31 ce             	xor    %r9,%rsi
    2a8f:	48 89 b4 24 e8 00 00 	mov    %rsi,0xe8(%rsp)
    2a96:	00 
    2a97:	49 f7 d2             	not    %r10
    2a9a:	49 21 fa             	and    %rdi,%r10
    2a9d:	49 31 d2             	xor    %rdx,%r10
    2aa0:	4c 89 94 24 f0 00 00 	mov    %r10,0xf0(%rsp)
    2aa7:	00 
    2aa8:	48 83 c1 02          	add    $0x2,%rcx

0000000000002aac <L_keccak1600_ref$12>:
    2aac:	48 83 f9 17          	cmp    $0x17,%rcx
    2ab0:	0f 82 ab f7 ff ff    	jb     2261 <L_keccak1600_ref$13>
    2ab6:	48 8b 4c 24 08       	mov    0x8(%rsp),%rcx
    2abb:	48 8b 54 24 10       	mov    0x10(%rsp),%rdx
    2ac0:	48 8b 44 24 28       	mov    0x28(%rsp),%rax
    2ac5:	48 89 c6             	mov    %rax,%rsi
    2ac8:	48 c1 ee 03          	shr    $0x3,%rsi
    2acc:	48 c7 c7 00 00 00 00 	mov    $0x0,%rdi
    2ad3:	eb 0c                	jmp    2ae1 <L_keccak1600_ref$10>

0000000000002ad5 <L_keccak1600_ref$11>:
    2ad5:	4c 8b 44 fc 30       	mov    0x30(%rsp,%rdi,8),%r8
    2ada:	4c 89 04 f9          	mov    %r8,(%rcx,%rdi,8)
    2ade:	48 ff c7             	inc    %rdi

0000000000002ae1 <L_keccak1600_ref$10>:
    2ae1:	48 39 f7             	cmp    %rsi,%rdi
    2ae4:	72 ef                	jb     2ad5 <L_keccak1600_ref$11>
    2ae6:	48 01 c1             	add    %rax,%rcx
    2ae9:	48 29 c2             	sub    %rax,%rdx
    2aec:	48 89 4c 24 08       	mov    %rcx,0x8(%rsp)

0000000000002af1 <L_keccak1600_ref$8>:
    2af1:	48 39 c2             	cmp    %rax,%rdx
    2af4:	0f 87 4a f7 ff ff    	ja     2244 <L_keccak1600_ref$9>
    2afa:	48 89 54 24 28       	mov    %rdx,0x28(%rsp)
    2aff:	48 8d 05 1a 35 00 00 	lea    0x351a(%rip),%rax        # 6020 <G$KECCAK1600_RC>
    2b06:	48 c7 c1 00 00 00 00 	mov    $0x0,%rcx
    2b0d:	e9 4b 08 00 00       	jmp    335d <L_keccak1600_ref$6>

0000000000002b12 <L_keccak1600_ref$7>:
    2b12:	4c 8b 14 c8          	mov    (%rax,%rcx,8),%r10
    2b16:	4c 8b 4c 24 30       	mov    0x30(%rsp),%r9
    2b1b:	4c 8b 44 24 38       	mov    0x38(%rsp),%r8
    2b20:	4c 8b 5c 24 40       	mov    0x40(%rsp),%r11
    2b25:	48 8b 5c 24 48       	mov    0x48(%rsp),%rbx
    2b2a:	48 8b 6c 24 50       	mov    0x50(%rsp),%rbp
    2b2f:	4c 33 4c 24 58       	xor    0x58(%rsp),%r9
    2b34:	4c 33 44 24 60       	xor    0x60(%rsp),%r8
    2b39:	4c 33 5c 24 68       	xor    0x68(%rsp),%r11
    2b3e:	48 33 5c 24 70       	xor    0x70(%rsp),%rbx
    2b43:	48 33 6c 24 78       	xor    0x78(%rsp),%rbp
    2b48:	4c 33 8c 24 80 00 00 	xor    0x80(%rsp),%r9
    2b4f:	00 
    2b50:	4c 33 84 24 88 00 00 	xor    0x88(%rsp),%r8
    2b57:	00 
    2b58:	4c 33 9c 24 90 00 00 	xor    0x90(%rsp),%r11
    2b5f:	00 
    2b60:	48 33 9c 24 98 00 00 	xor    0x98(%rsp),%rbx
    2b67:	00 
    2b68:	48 33 ac 24 a0 00 00 	xor    0xa0(%rsp),%rbp
    2b6f:	00 
    2b70:	4c 33 8c 24 a8 00 00 	xor    0xa8(%rsp),%r9
    2b77:	00 
    2b78:	4c 33 84 24 b0 00 00 	xor    0xb0(%rsp),%r8
    2b7f:	00 
    2b80:	4c 33 9c 24 b8 00 00 	xor    0xb8(%rsp),%r11
    2b87:	00 
    2b88:	48 33 9c 24 c0 00 00 	xor    0xc0(%rsp),%rbx
    2b8f:	00 
    2b90:	48 33 ac 24 c8 00 00 	xor    0xc8(%rsp),%rbp
    2b97:	00 
    2b98:	4c 33 8c 24 d0 00 00 	xor    0xd0(%rsp),%r9
    2b9f:	00 
    2ba0:	4c 33 84 24 d8 00 00 	xor    0xd8(%rsp),%r8
    2ba7:	00 
    2ba8:	4c 33 9c 24 e0 00 00 	xor    0xe0(%rsp),%r11
    2baf:	00 
    2bb0:	48 33 9c 24 e8 00 00 	xor    0xe8(%rsp),%rbx
    2bb7:	00 
    2bb8:	48 33 ac 24 f0 00 00 	xor    0xf0(%rsp),%rbp
    2bbf:	00 
    2bc0:	4c 89 c2             	mov    %r8,%rdx
    2bc3:	48 d1 c2             	rol    %rdx
    2bc6:	48 31 ea             	xor    %rbp,%rdx
    2bc9:	4c 89 de             	mov    %r11,%rsi
    2bcc:	48 d1 c6             	rol    %rsi
    2bcf:	4c 31 ce             	xor    %r9,%rsi
    2bd2:	48 89 df             	mov    %rbx,%rdi
    2bd5:	48 d1 c7             	rol    %rdi
    2bd8:	4c 31 c7             	xor    %r8,%rdi
    2bdb:	49 89 e8             	mov    %rbp,%r8
    2bde:	49 d1 c0             	rol    %r8
    2be1:	4d 31 d8             	xor    %r11,%r8
    2be4:	49 d1 c1             	rol    %r9
    2be7:	49 31 d9             	xor    %rbx,%r9
    2bea:	4c 8b 5c 24 30       	mov    0x30(%rsp),%r11
    2bef:	49 31 d3             	xor    %rdx,%r11
    2bf2:	48 8b 5c 24 60       	mov    0x60(%rsp),%rbx
    2bf7:	48 31 f3             	xor    %rsi,%rbx
    2bfa:	48 c1 c3 2c          	rol    $0x2c,%rbx
    2bfe:	48 8b ac 24 90 00 00 	mov    0x90(%rsp),%rbp
    2c05:	00 
    2c06:	48 31 fd             	xor    %rdi,%rbp
    2c09:	48 c1 c5 2b          	rol    $0x2b,%rbp
    2c0d:	4c 8b a4 24 c0 00 00 	mov    0xc0(%rsp),%r12
    2c14:	00 
    2c15:	4d 31 c4             	xor    %r8,%r12
    2c18:	49 c1 c4 15          	rol    $0x15,%r12
    2c1c:	4c 8b ac 24 f0 00 00 	mov    0xf0(%rsp),%r13
    2c23:	00 
    2c24:	4d 31 cd             	xor    %r9,%r13
    2c27:	49 c1 c5 0e          	rol    $0xe,%r13
    2c2b:	49 89 de             	mov    %rbx,%r14
    2c2e:	49 f7 d6             	not    %r14
    2c31:	49 21 ee             	and    %rbp,%r14
    2c34:	4d 31 de             	xor    %r11,%r14
    2c37:	4d 31 d6             	xor    %r10,%r14
    2c3a:	4c 89 b4 24 f8 00 00 	mov    %r14,0xf8(%rsp)
    2c41:	00 
    2c42:	49 89 ea             	mov    %rbp,%r10
    2c45:	49 f7 d2             	not    %r10
    2c48:	4d 21 e2             	and    %r12,%r10
    2c4b:	49 31 da             	xor    %rbx,%r10
    2c4e:	4c 89 94 24 00 01 00 	mov    %r10,0x100(%rsp)
    2c55:	00 
    2c56:	4d 89 e2             	mov    %r12,%r10
    2c59:	49 f7 d2             	not    %r10
    2c5c:	4d 21 ea             	and    %r13,%r10
    2c5f:	49 31 ea             	xor    %rbp,%r10
    2c62:	4c 89 94 24 08 01 00 	mov    %r10,0x108(%rsp)
    2c69:	00 
    2c6a:	4d 89 ea             	mov    %r13,%r10
    2c6d:	49 f7 d2             	not    %r10
    2c70:	4d 21 da             	and    %r11,%r10
    2c73:	4d 31 e2             	xor    %r12,%r10
    2c76:	4c 89 94 24 10 01 00 	mov    %r10,0x110(%rsp)
    2c7d:	00 
    2c7e:	49 f7 d3             	not    %r11
    2c81:	49 21 db             	and    %rbx,%r11
    2c84:	4d 31 eb             	xor    %r13,%r11
    2c87:	4c 89 9c 24 18 01 00 	mov    %r11,0x118(%rsp)
    2c8e:	00 
    2c8f:	4c 8b 54 24 48       	mov    0x48(%rsp),%r10
    2c94:	4d 31 c2             	xor    %r8,%r10
    2c97:	49 c1 c2 1c          	rol    $0x1c,%r10
    2c9b:	4c 8b 5c 24 78       	mov    0x78(%rsp),%r11
    2ca0:	4d 31 cb             	xor    %r9,%r11
    2ca3:	49 c1 c3 14          	rol    $0x14,%r11
    2ca7:	4c 8b a4 24 80 00 00 	mov    0x80(%rsp),%r12
    2cae:	00 
    2caf:	49 31 d4             	xor    %rdx,%r12
    2cb2:	49 c1 c4 03          	rol    $0x3,%r12
    2cb6:	48 8b 9c 24 b0 00 00 	mov    0xb0(%rsp),%rbx
    2cbd:	00 
    2cbe:	48 31 f3             	xor    %rsi,%rbx
    2cc1:	48 c1 c3 2d          	rol    $0x2d,%rbx
    2cc5:	48 8b ac 24 e0 00 00 	mov    0xe0(%rsp),%rbp
    2ccc:	00 
    2ccd:	48 31 fd             	xor    %rdi,%rbp
    2cd0:	48 c1 c5 3d          	rol    $0x3d,%rbp
    2cd4:	4d 89 dd             	mov    %r11,%r13
    2cd7:	49 f7 d5             	not    %r13
    2cda:	4d 21 e5             	and    %r12,%r13
    2cdd:	4d 31 d5             	xor    %r10,%r13
    2ce0:	4c 89 ac 24 20 01 00 	mov    %r13,0x120(%rsp)
    2ce7:	00 
    2ce8:	4d 89 e5             	mov    %r12,%r13
    2ceb:	49 f7 d5             	not    %r13
    2cee:	49 21 dd             	and    %rbx,%r13
    2cf1:	4d 31 dd             	xor    %r11,%r13
    2cf4:	4c 89 ac 24 28 01 00 	mov    %r13,0x128(%rsp)
    2cfb:	00 
    2cfc:	49 89 dd             	mov    %rbx,%r13
    2cff:	49 f7 d5             	not    %r13
    2d02:	49 21 ed             	and    %rbp,%r13
    2d05:	4d 31 e5             	xor    %r12,%r13
    2d08:	4c 89 ac 24 30 01 00 	mov    %r13,0x130(%rsp)
    2d0f:	00 
    2d10:	49 89 ec             	mov    %rbp,%r12
    2d13:	49 f7 d4             	not    %r12
    2d16:	4d 21 d4             	and    %r10,%r12
    2d19:	49 31 dc             	xor    %rbx,%r12
    2d1c:	4c 89 a4 24 38 01 00 	mov    %r12,0x138(%rsp)
    2d23:	00 
    2d24:	49 f7 d2             	not    %r10
    2d27:	4d 21 da             	and    %r11,%r10
    2d2a:	49 31 ea             	xor    %rbp,%r10
    2d2d:	4c 89 94 24 40 01 00 	mov    %r10,0x140(%rsp)
    2d34:	00 
    2d35:	4c 8b 54 24 38       	mov    0x38(%rsp),%r10
    2d3a:	49 31 f2             	xor    %rsi,%r10
    2d3d:	49 d1 c2             	rol    %r10
    2d40:	4c 8b 5c 24 68       	mov    0x68(%rsp),%r11
    2d45:	49 31 fb             	xor    %rdi,%r11
    2d48:	49 c1 c3 06          	rol    $0x6,%r11
    2d4c:	4c 8b a4 24 98 00 00 	mov    0x98(%rsp),%r12
    2d53:	00 
    2d54:	4d 31 c4             	xor    %r8,%r12
    2d57:	49 c1 c4 19          	rol    $0x19,%r12
    2d5b:	48 8b 9c 24 c8 00 00 	mov    0xc8(%rsp),%rbx
    2d62:	00 
    2d63:	4c 31 cb             	xor    %r9,%rbx
    2d66:	48 c1 c3 08          	rol    $0x8,%rbx
    2d6a:	48 8b ac 24 d0 00 00 	mov    0xd0(%rsp),%rbp
    2d71:	00 
    2d72:	48 31 d5             	xor    %rdx,%rbp
    2d75:	48 c1 c5 12          	rol    $0x12,%rbp
    2d79:	4d 89 dd             	mov    %r11,%r13
    2d7c:	49 f7 d5             	not    %r13
    2d7f:	4d 21 e5             	and    %r12,%r13
    2d82:	4d 31 d5             	xor    %r10,%r13
    2d85:	4c 89 ac 24 48 01 00 	mov    %r13,0x148(%rsp)
    2d8c:	00 
    2d8d:	4d 89 e5             	mov    %r12,%r13
    2d90:	49 f7 d5             	not    %r13
    2d93:	49 21 dd             	and    %rbx,%r13
    2d96:	4d 31 dd             	xor    %r11,%r13
    2d99:	4c 89 ac 24 50 01 00 	mov    %r13,0x150(%rsp)
    2da0:	00 
    2da1:	49 89 dd             	mov    %rbx,%r13
    2da4:	49 f7 d5             	not    %r13
    2da7:	49 21 ed             	and    %rbp,%r13
    2daa:	4d 31 e5             	xor    %r12,%r13
    2dad:	4c 89 ac 24 58 01 00 	mov    %r13,0x158(%rsp)
    2db4:	00 
    2db5:	49 89 ec             	mov    %rbp,%r12
    2db8:	49 f7 d4             	not    %r12
    2dbb:	4d 21 d4             	and    %r10,%r12
    2dbe:	49 31 dc             	xor    %rbx,%r12
    2dc1:	4c 89 a4 24 60 01 00 	mov    %r12,0x160(%rsp)
    2dc8:	00 
    2dc9:	49 f7 d2             	not    %r10
    2dcc:	4d 21 da             	and    %r11,%r10
    2dcf:	49 31 ea             	xor    %rbp,%r10
    2dd2:	4c 89 94 24 68 01 00 	mov    %r10,0x168(%rsp)
    2dd9:	00 
    2dda:	4c 8b 54 24 50       	mov    0x50(%rsp),%r10
    2ddf:	4d 31 ca             	xor    %r9,%r10
    2de2:	49 c1 c2 1b          	rol    $0x1b,%r10
    2de6:	4c 8b 5c 24 58       	mov    0x58(%rsp),%r11
    2deb:	49 31 d3             	xor    %rdx,%r11
    2dee:	49 c1 c3 24          	rol    $0x24,%r11
    2df2:	4c 8b a4 24 88 00 00 	mov    0x88(%rsp),%r12
    2df9:	00 
    2dfa:	49 31 f4             	xor    %rsi,%r12
    2dfd:	49 c1 c4 0a          	rol    $0xa,%r12
    2e01:	48 8b 9c 24 b8 00 00 	mov    0xb8(%rsp),%rbx
    2e08:	00 
    2e09:	48 31 fb             	xor    %rdi,%rbx
    2e0c:	48 c1 c3 0f          	rol    $0xf,%rbx
    2e10:	48 8b ac 24 e8 00 00 	mov    0xe8(%rsp),%rbp
    2e17:	00 
    2e18:	4c 31 c5             	xor    %r8,%rbp
    2e1b:	48 c1 c5 38          	rol    $0x38,%rbp
    2e1f:	4d 89 dd             	mov    %r11,%r13
    2e22:	49 f7 d5             	not    %r13
    2e25:	4d 21 e5             	and    %r12,%r13
    2e28:	4d 31 d5             	xor    %r10,%r13
    2e2b:	4c 89 ac 24 70 01 00 	mov    %r13,0x170(%rsp)
    2e32:	00 
    2e33:	4d 89 e5             	mov    %r12,%r13
    2e36:	49 f7 d5             	not    %r13
    2e39:	49 21 dd             	and    %rbx,%r13
    2e3c:	4d 31 dd             	xor    %r11,%r13
    2e3f:	4c 89 ac 24 78 01 00 	mov    %r13,0x178(%rsp)
    2e46:	00 
    2e47:	49 89 dd             	mov    %rbx,%r13
    2e4a:	49 f7 d5             	not    %r13
    2e4d:	49 21 ed             	and    %rbp,%r13
    2e50:	4d 31 e5             	xor    %r12,%r13
    2e53:	4c 89 ac 24 80 01 00 	mov    %r13,0x180(%rsp)
    2e5a:	00 
    2e5b:	49 89 ec             	mov    %rbp,%r12
    2e5e:	49 f7 d4             	not    %r12
    2e61:	4d 21 d4             	and    %r10,%r12
    2e64:	49 31 dc             	xor    %rbx,%r12
    2e67:	4c 89 a4 24 88 01 00 	mov    %r12,0x188(%rsp)
    2e6e:	00 
    2e6f:	49 f7 d2             	not    %r10
    2e72:	4d 21 da             	and    %r11,%r10
    2e75:	49 31 ea             	xor    %rbp,%r10
    2e78:	4c 89 94 24 90 01 00 	mov    %r10,0x190(%rsp)
    2e7f:	00 
    2e80:	4c 8b 54 24 40       	mov    0x40(%rsp),%r10
    2e85:	49 31 fa             	xor    %rdi,%r10
    2e88:	49 c1 c2 3e          	rol    $0x3e,%r10
    2e8c:	48 8b 7c 24 70       	mov    0x70(%rsp),%rdi
    2e91:	4c 31 c7             	xor    %r8,%rdi
    2e94:	48 c1 c7 37          	rol    $0x37,%rdi
    2e98:	4c 8b 84 24 a0 00 00 	mov    0xa0(%rsp),%r8
    2e9f:	00 
    2ea0:	4d 31 c8             	xor    %r9,%r8
    2ea3:	49 c1 c0 27          	rol    $0x27,%r8
    2ea7:	4c 8b 8c 24 a8 00 00 	mov    0xa8(%rsp),%r9
    2eae:	00 
    2eaf:	49 31 d1             	xor    %rdx,%r9
    2eb2:	49 c1 c1 29          	rol    $0x29,%r9
    2eb6:	48 8b 94 24 d8 00 00 	mov    0xd8(%rsp),%rdx
    2ebd:	00 
    2ebe:	48 31 f2             	xor    %rsi,%rdx
    2ec1:	48 c1 c2 02          	rol    $0x2,%rdx
    2ec5:	48 89 fe             	mov    %rdi,%rsi
    2ec8:	48 f7 d6             	not    %rsi
    2ecb:	4c 21 c6             	and    %r8,%rsi
    2ece:	4c 31 d6             	xor    %r10,%rsi
    2ed1:	48 89 b4 24 98 01 00 	mov    %rsi,0x198(%rsp)
    2ed8:	00 
    2ed9:	4c 89 c6             	mov    %r8,%rsi
    2edc:	48 f7 d6             	not    %rsi
    2edf:	4c 21 ce             	and    %r9,%rsi
    2ee2:	48 31 fe             	xor    %rdi,%rsi
    2ee5:	48 89 b4 24 a0 01 00 	mov    %rsi,0x1a0(%rsp)
    2eec:	00 
    2eed:	4c 89 ce             	mov    %r9,%rsi
    2ef0:	48 f7 d6             	not    %rsi
    2ef3:	48 21 d6             	and    %rdx,%rsi
    2ef6:	4c 31 c6             	xor    %r8,%rsi
    2ef9:	48 89 b4 24 a8 01 00 	mov    %rsi,0x1a8(%rsp)
    2f00:	00 
    2f01:	48 89 d6             	mov    %rdx,%rsi
    2f04:	48 f7 d6             	not    %rsi
    2f07:	4c 21 d6             	and    %r10,%rsi
    2f0a:	4c 31 ce             	xor    %r9,%rsi
    2f0d:	48 89 b4 24 b0 01 00 	mov    %rsi,0x1b0(%rsp)
    2f14:	00 
    2f15:	49 f7 d2             	not    %r10
    2f18:	49 21 fa             	and    %rdi,%r10
    2f1b:	49 31 d2             	xor    %rdx,%r10
    2f1e:	4c 89 94 24 b8 01 00 	mov    %r10,0x1b8(%rsp)
    2f25:	00 
    2f26:	4c 8b 54 c8 08       	mov    0x8(%rax,%rcx,8),%r10
    2f2b:	4c 8b 8c 24 f8 00 00 	mov    0xf8(%rsp),%r9
    2f32:	00 
    2f33:	4c 8b 84 24 00 01 00 	mov    0x100(%rsp),%r8
    2f3a:	00 
    2f3b:	4c 8b 9c 24 08 01 00 	mov    0x108(%rsp),%r11
    2f42:	00 
    2f43:	48 8b 9c 24 10 01 00 	mov    0x110(%rsp),%rbx
    2f4a:	00 
    2f4b:	48 8b ac 24 18 01 00 	mov    0x118(%rsp),%rbp
    2f52:	00 
    2f53:	4c 33 8c 24 20 01 00 	xor    0x120(%rsp),%r9
    2f5a:	00 
    2f5b:	4c 33 84 24 28 01 00 	xor    0x128(%rsp),%r8
    2f62:	00 
    2f63:	4c 33 9c 24 30 01 00 	xor    0x130(%rsp),%r11
    2f6a:	00 
    2f6b:	48 33 9c 24 38 01 00 	xor    0x138(%rsp),%rbx
    2f72:	00 
    2f73:	48 33 ac 24 40 01 00 	xor    0x140(%rsp),%rbp
    2f7a:	00 
    2f7b:	4c 33 8c 24 48 01 00 	xor    0x148(%rsp),%r9
    2f82:	00 
    2f83:	4c 33 84 24 50 01 00 	xor    0x150(%rsp),%r8
    2f8a:	00 
    2f8b:	4c 33 9c 24 58 01 00 	xor    0x158(%rsp),%r11
    2f92:	00 
    2f93:	48 33 9c 24 60 01 00 	xor    0x160(%rsp),%rbx
    2f9a:	00 
    2f9b:	48 33 ac 24 68 01 00 	xor    0x168(%rsp),%rbp
    2fa2:	00 
    2fa3:	4c 33 8c 24 70 01 00 	xor    0x170(%rsp),%r9
    2faa:	00 
    2fab:	4c 33 84 24 78 01 00 	xor    0x178(%rsp),%r8
    2fb2:	00 
    2fb3:	4c 33 9c 24 80 01 00 	xor    0x180(%rsp),%r11
    2fba:	00 
    2fbb:	48 33 9c 24 88 01 00 	xor    0x188(%rsp),%rbx
    2fc2:	00 
    2fc3:	48 33 ac 24 90 01 00 	xor    0x190(%rsp),%rbp
    2fca:	00 
    2fcb:	4c 33 8c 24 98 01 00 	xor    0x198(%rsp),%r9
    2fd2:	00 
    2fd3:	4c 33 84 24 a0 01 00 	xor    0x1a0(%rsp),%r8
    2fda:	00 
    2fdb:	4c 33 9c 24 a8 01 00 	xor    0x1a8(%rsp),%r11
    2fe2:	00 
    2fe3:	48 33 9c 24 b0 01 00 	xor    0x1b0(%rsp),%rbx
    2fea:	00 
    2feb:	48 33 ac 24 b8 01 00 	xor    0x1b8(%rsp),%rbp
    2ff2:	00 
    2ff3:	4c 89 c2             	mov    %r8,%rdx
    2ff6:	48 d1 c2             	rol    %rdx
    2ff9:	48 31 ea             	xor    %rbp,%rdx
    2ffc:	4c 89 de             	mov    %r11,%rsi
    2fff:	48 d1 c6             	rol    %rsi
    3002:	4c 31 ce             	xor    %r9,%rsi
    3005:	48 89 df             	mov    %rbx,%rdi
    3008:	48 d1 c7             	rol    %rdi
    300b:	4c 31 c7             	xor    %r8,%rdi
    300e:	49 89 e8             	mov    %rbp,%r8
    3011:	49 d1 c0             	rol    %r8
    3014:	4d 31 d8             	xor    %r11,%r8
    3017:	49 d1 c1             	rol    %r9
    301a:	49 31 d9             	xor    %rbx,%r9
    301d:	4c 8b 9c 24 f8 00 00 	mov    0xf8(%rsp),%r11
    3024:	00 
    3025:	49 31 d3             	xor    %rdx,%r11
    3028:	48 8b 9c 24 28 01 00 	mov    0x128(%rsp),%rbx
    302f:	00 
    3030:	48 31 f3             	xor    %rsi,%rbx
    3033:	48 c1 c3 2c          	rol    $0x2c,%rbx
    3037:	48 8b ac 24 58 01 00 	mov    0x158(%rsp),%rbp
    303e:	00 
    303f:	48 31 fd             	xor    %rdi,%rbp
    3042:	48 c1 c5 2b          	rol    $0x2b,%rbp
    3046:	4c 8b a4 24 88 01 00 	mov    0x188(%rsp),%r12
    304d:	00 
    304e:	4d 31 c4             	xor    %r8,%r12
    3051:	49 c1 c4 15          	rol    $0x15,%r12
    3055:	4c 8b ac 24 b8 01 00 	mov    0x1b8(%rsp),%r13
    305c:	00 
    305d:	4d 31 cd             	xor    %r9,%r13
    3060:	49 c1 c5 0e          	rol    $0xe,%r13
    3064:	49 89 de             	mov    %rbx,%r14
    3067:	49 f7 d6             	not    %r14
    306a:	49 21 ee             	and    %rbp,%r14
    306d:	4d 31 de             	xor    %r11,%r14
    3070:	4d 31 d6             	xor    %r10,%r14
    3073:	4c 89 74 24 30       	mov    %r14,0x30(%rsp)
    3078:	49 89 ea             	mov    %rbp,%r10
    307b:	49 f7 d2             	not    %r10
    307e:	4d 21 e2             	and    %r12,%r10
    3081:	49 31 da             	xor    %rbx,%r10
    3084:	4c 89 54 24 38       	mov    %r10,0x38(%rsp)
    3089:	4d 89 e2             	mov    %r12,%r10
    308c:	49 f7 d2             	not    %r10
    308f:	4d 21 ea             	and    %r13,%r10
    3092:	49 31 ea             	xor    %rbp,%r10
    3095:	4c 89 54 24 40       	mov    %r10,0x40(%rsp)
    309a:	4d 89 ea             	mov    %r13,%r10
    309d:	49 f7 d2             	not    %r10
    30a0:	4d 21 da             	and    %r11,%r10
    30a3:	4d 31 e2             	xor    %r12,%r10
    30a6:	4c 89 54 24 48       	mov    %r10,0x48(%rsp)
    30ab:	49 f7 d3             	not    %r11
    30ae:	49 21 db             	and    %rbx,%r11
    30b1:	4d 31 eb             	xor    %r13,%r11
    30b4:	4c 89 5c 24 50       	mov    %r11,0x50(%rsp)
    30b9:	4c 8b 94 24 10 01 00 	mov    0x110(%rsp),%r10
    30c0:	00 
    30c1:	4d 31 c2             	xor    %r8,%r10
    30c4:	49 c1 c2 1c          	rol    $0x1c,%r10
    30c8:	4c 8b 9c 24 40 01 00 	mov    0x140(%rsp),%r11
    30cf:	00 
    30d0:	4d 31 cb             	xor    %r9,%r11
    30d3:	49 c1 c3 14          	rol    $0x14,%r11
    30d7:	4c 8b a4 24 48 01 00 	mov    0x148(%rsp),%r12
    30de:	00 
    30df:	49 31 d4             	xor    %rdx,%r12
    30e2:	49 c1 c4 03          	rol    $0x3,%r12
    30e6:	48 8b 9c 24 78 01 00 	mov    0x178(%rsp),%rbx
    30ed:	00 
    30ee:	48 31 f3             	xor    %rsi,%rbx
    30f1:	48 c1 c3 2d          	rol    $0x2d,%rbx
    30f5:	48 8b ac 24 a8 01 00 	mov    0x1a8(%rsp),%rbp
    30fc:	00 
    30fd:	48 31 fd             	xor    %rdi,%rbp
    3100:	48 c1 c5 3d          	rol    $0x3d,%rbp
    3104:	4d 89 dd             	mov    %r11,%r13
    3107:	49 f7 d5             	not    %r13
    310a:	4d 21 e5             	and    %r12,%r13
    310d:	4d 31 d5             	xor    %r10,%r13
    3110:	4c 89 6c 24 58       	mov    %r13,0x58(%rsp)
    3115:	4d 89 e5             	mov    %r12,%r13
    3118:	49 f7 d5             	not    %r13
    311b:	49 21 dd             	and    %rbx,%r13
    311e:	4d 31 dd             	xor    %r11,%r13
    3121:	4c 89 6c 24 60       	mov    %r13,0x60(%rsp)
    3126:	49 89 dd             	mov    %rbx,%r13
    3129:	49 f7 d5             	not    %r13
    312c:	49 21 ed             	and    %rbp,%r13
    312f:	4d 31 e5             	xor    %r12,%r13
    3132:	4c 89 6c 24 68       	mov    %r13,0x68(%rsp)
    3137:	49 89 ec             	mov    %rbp,%r12
    313a:	49 f7 d4             	not    %r12
    313d:	4d 21 d4             	and    %r10,%r12
    3140:	49 31 dc             	xor    %rbx,%r12
    3143:	4c 89 64 24 70       	mov    %r12,0x70(%rsp)
    3148:	49 f7 d2             	not    %r10
    314b:	4d 21 da             	and    %r11,%r10
    314e:	49 31 ea             	xor    %rbp,%r10
    3151:	4c 89 54 24 78       	mov    %r10,0x78(%rsp)
    3156:	4c 8b 94 24 00 01 00 	mov    0x100(%rsp),%r10
    315d:	00 
    315e:	49 31 f2             	xor    %rsi,%r10
    3161:	49 d1 c2             	rol    %r10
    3164:	4c 8b 9c 24 30 01 00 	mov    0x130(%rsp),%r11
    316b:	00 
    316c:	49 31 fb             	xor    %rdi,%r11
    316f:	49 c1 c3 06          	rol    $0x6,%r11
    3173:	4c 8b a4 24 60 01 00 	mov    0x160(%rsp),%r12
    317a:	00 
    317b:	4d 31 c4             	xor    %r8,%r12
    317e:	49 c1 c4 19          	rol    $0x19,%r12
    3182:	48 8b 9c 24 90 01 00 	mov    0x190(%rsp),%rbx
    3189:	00 
    318a:	4c 31 cb             	xor    %r9,%rbx
    318d:	48 c1 c3 08          	rol    $0x8,%rbx
    3191:	48 8b ac 24 98 01 00 	mov    0x198(%rsp),%rbp
    3198:	00 
    3199:	48 31 d5             	xor    %rdx,%rbp
    319c:	48 c1 c5 12          	rol    $0x12,%rbp
    31a0:	4d 89 dd             	mov    %r11,%r13
    31a3:	49 f7 d5             	not    %r13
    31a6:	4d 21 e5             	and    %r12,%r13
    31a9:	4d 31 d5             	xor    %r10,%r13
    31ac:	4c 89 ac 24 80 00 00 	mov    %r13,0x80(%rsp)
    31b3:	00 
    31b4:	4d 89 e5             	mov    %r12,%r13
    31b7:	49 f7 d5             	not    %r13
    31ba:	49 21 dd             	and    %rbx,%r13
    31bd:	4d 31 dd             	xor    %r11,%r13
    31c0:	4c 89 ac 24 88 00 00 	mov    %r13,0x88(%rsp)
    31c7:	00 
    31c8:	49 89 dd             	mov    %rbx,%r13
    31cb:	49 f7 d5             	not    %r13
    31ce:	49 21 ed             	and    %rbp,%r13
    31d1:	4d 31 e5             	xor    %r12,%r13
    31d4:	4c 89 ac 24 90 00 00 	mov    %r13,0x90(%rsp)
    31db:	00 
    31dc:	49 89 ec             	mov    %rbp,%r12
    31df:	49 f7 d4             	not    %r12
    31e2:	4d 21 d4             	and    %r10,%r12
    31e5:	49 31 dc             	xor    %rbx,%r12
    31e8:	4c 89 a4 24 98 00 00 	mov    %r12,0x98(%rsp)
    31ef:	00 
    31f0:	49 f7 d2             	not    %r10
    31f3:	4d 21 da             	and    %r11,%r10
    31f6:	49 31 ea             	xor    %rbp,%r10
    31f9:	4c 89 94 24 a0 00 00 	mov    %r10,0xa0(%rsp)
    3200:	00 
    3201:	4c 8b 94 24 18 01 00 	mov    0x118(%rsp),%r10
    3208:	00 
    3209:	4d 31 ca             	xor    %r9,%r10
    320c:	49 c1 c2 1b          	rol    $0x1b,%r10
    3210:	4c 8b 9c 24 20 01 00 	mov    0x120(%rsp),%r11
    3217:	00 
    3218:	49 31 d3             	xor    %rdx,%r11
    321b:	49 c1 c3 24          	rol    $0x24,%r11
    321f:	4c 8b a4 24 50 01 00 	mov    0x150(%rsp),%r12
    3226:	00 
    3227:	49 31 f4             	xor    %rsi,%r12
    322a:	49 c1 c4 0a          	rol    $0xa,%r12
    322e:	48 8b 9c 24 80 01 00 	mov    0x180(%rsp),%rbx
    3235:	00 
    3236:	48 31 fb             	xor    %rdi,%rbx
    3239:	48 c1 c3 0f          	rol    $0xf,%rbx
    323d:	48 8b ac 24 b0 01 00 	mov    0x1b0(%rsp),%rbp
    3244:	00 
    3245:	4c 31 c5             	xor    %r8,%rbp
    3248:	48 c1 c5 38          	rol    $0x38,%rbp
    324c:	4d 89 dd             	mov    %r11,%r13
    324f:	49 f7 d5             	not    %r13
    3252:	4d 21 e5             	and    %r12,%r13
    3255:	4d 31 d5             	xor    %r10,%r13
    3258:	4c 89 ac 24 a8 00 00 	mov    %r13,0xa8(%rsp)
    325f:	00 
    3260:	4d 89 e5             	mov    %r12,%r13
    3263:	49 f7 d5             	not    %r13
    3266:	49 21 dd             	and    %rbx,%r13
    3269:	4d 31 dd             	xor    %r11,%r13
    326c:	4c 89 ac 24 b0 00 00 	mov    %r13,0xb0(%rsp)
    3273:	00 
    3274:	49 89 dd             	mov    %rbx,%r13
    3277:	49 f7 d5             	not    %r13
    327a:	49 21 ed             	and    %rbp,%r13
    327d:	4d 31 e5             	xor    %r12,%r13
    3280:	4c 89 ac 24 b8 00 00 	mov    %r13,0xb8(%rsp)
    3287:	00 
    3288:	49 89 ec             	mov    %rbp,%r12
    328b:	49 f7 d4             	not    %r12
    328e:	4d 21 d4             	and    %r10,%r12
    3291:	49 31 dc             	xor    %rbx,%r12
    3294:	4c 89 a4 24 c0 00 00 	mov    %r12,0xc0(%rsp)
    329b:	00 
    329c:	49 f7 d2             	not    %r10
    329f:	4d 21 da             	and    %r11,%r10
    32a2:	49 31 ea             	xor    %rbp,%r10
    32a5:	4c 89 94 24 c8 00 00 	mov    %r10,0xc8(%rsp)
    32ac:	00 
    32ad:	4c 8b 94 24 08 01 00 	mov    0x108(%rsp),%r10
    32b4:	00 
    32b5:	49 31 fa             	xor    %rdi,%r10
    32b8:	49 c1 c2 3e          	rol    $0x3e,%r10
    32bc:	48 8b bc 24 38 01 00 	mov    0x138(%rsp),%rdi
    32c3:	00 
    32c4:	4c 31 c7             	xor    %r8,%rdi
    32c7:	48 c1 c7 37          	rol    $0x37,%rdi
    32cb:	4c 8b 84 24 68 01 00 	mov    0x168(%rsp),%r8
    32d2:	00 
    32d3:	4d 31 c8             	xor    %r9,%r8
    32d6:	49 c1 c0 27          	rol    $0x27,%r8
    32da:	4c 8b 8c 24 70 01 00 	mov    0x170(%rsp),%r9
    32e1:	00 
    32e2:	49 31 d1             	xor    %rdx,%r9
    32e5:	49 c1 c1 29          	rol    $0x29,%r9
    32e9:	48 8b 94 24 a0 01 00 	mov    0x1a0(%rsp),%rdx
    32f0:	00 
    32f1:	48 31 f2             	xor    %rsi,%rdx
    32f4:	48 c1 c2 02          	rol    $0x2,%rdx
    32f8:	48 89 fe             	mov    %rdi,%rsi
    32fb:	48 f7 d6             	not    %rsi
    32fe:	4c 21 c6             	and    %r8,%rsi
    3301:	4c 31 d6             	xor    %r10,%rsi
    3304:	48 89 b4 24 d0 00 00 	mov    %rsi,0xd0(%rsp)
    330b:	00 
    330c:	4c 89 c6             	mov    %r8,%rsi
    330f:	48 f7 d6             	not    %rsi
    3312:	4c 21 ce             	and    %r9,%rsi
    3315:	48 31 fe             	xor    %rdi,%rsi
    3318:	48 89 b4 24 d8 00 00 	mov    %rsi,0xd8(%rsp)
    331f:	00 
    3320:	4c 89 ce             	mov    %r9,%rsi
    3323:	48 f7 d6             	not    %rsi
    3326:	48 21 d6             	and    %rdx,%rsi
    3329:	4c 31 c6             	xor    %r8,%rsi
    332c:	48 89 b4 24 e0 00 00 	mov    %rsi,0xe0(%rsp)
    3333:	00 
    3334:	48 89 d6             	mov    %rdx,%rsi
    3337:	48 f7 d6             	not    %rsi
    333a:	4c 21 d6             	and    %r10,%rsi
    333d:	4c 31 ce             	xor    %r9,%rsi
    3340:	48 89 b4 24 e8 00 00 	mov    %rsi,0xe8(%rsp)
    3347:	00 
    3348:	49 f7 d2             	not    %r10
    334b:	49 21 fa             	and    %rdi,%r10
    334e:	49 31 d2             	xor    %rdx,%r10
    3351:	4c 89 94 24 f0 00 00 	mov    %r10,0xf0(%rsp)
    3358:	00 
    3359:	48 83 c1 02          	add    $0x2,%rcx

000000000000335d <L_keccak1600_ref$6>:
    335d:	48 83 f9 17          	cmp    $0x17,%rcx
    3361:	0f 82 ab f7 ff ff    	jb     2b12 <L_keccak1600_ref$7>
    3367:	48 8b 44 24 08       	mov    0x8(%rsp),%rax
    336c:	48 8b 4c 24 28       	mov    0x28(%rsp),%rcx
    3371:	48 89 ca             	mov    %rcx,%rdx
    3374:	48 c1 ea 03          	shr    $0x3,%rdx
    3378:	48 c7 c6 00 00 00 00 	mov    $0x0,%rsi
    337f:	eb 0c                	jmp    338d <L_keccak1600_ref$4>

0000000000003381 <L_keccak1600_ref$5>:
    3381:	48 8b 7c f4 30       	mov    0x30(%rsp,%rsi,8),%rdi
    3386:	48 89 3c f0          	mov    %rdi,(%rax,%rsi,8)
    338a:	48 ff c6             	inc    %rsi

000000000000338d <L_keccak1600_ref$4>:
    338d:	48 39 d6             	cmp    %rdx,%rsi
    3390:	72 ef                	jb     3381 <L_keccak1600_ref$5>
    3392:	48 c1 e6 03          	shl    $0x3,%rsi
    3396:	eb 0a                	jmp    33a2 <L_keccak1600_ref$2>

0000000000003398 <L_keccak1600_ref$3>:
    3398:	8a 54 34 30          	mov    0x30(%rsp,%rsi,1),%dl
    339c:	88 14 30             	mov    %dl,(%rax,%rsi,1)
    339f:	48 ff c6             	inc    %rsi

00000000000033a2 <L_keccak1600_ref$2>:
    33a2:	48 39 ce             	cmp    %rcx,%rsi
    33a5:	72 f1                	jb     3398 <L_keccak1600_ref$3>
    33a7:	c3                   	ret    

Disassembly of section .fini:

00000000000033a8 <_fini>:
    33a8:	f3 0f 1e fa          	endbr64 
    33ac:	48 83 ec 08          	sub    $0x8,%rsp
    33b0:	48 83 c4 08          	add    $0x8,%rsp
    33b4:	c3                   	ret    
