
test_x86_64_libjade:     file format elf64-x86-64


Disassembly of section .init:

0000000000001000 <_init>:
    1000:	f3 0f 1e fa          	endbr64 
    1004:	48 83 ec 08          	sub    $0x8,%rsp
    1008:	48 8b 05 d9 7f 00 00 	mov    0x7fd9(%rip),%rax        # 8fe8 <__gmon_start__@Base>
    100f:	48 85 c0             	test   %rax,%rax
    1012:	74 02                	je     1016 <_init+0x16>
    1014:	ff d0                	call   *%rax
    1016:	48 83 c4 08          	add    $0x8,%rsp
    101a:	c3                   	ret    

Disassembly of section .plt:

0000000000001020 <putchar@plt-0x10>:
    1020:	ff 35 82 7f 00 00    	push   0x7f82(%rip)        # 8fa8 <_GLOBAL_OFFSET_TABLE_+0x8>
    1026:	ff 25 84 7f 00 00    	jmp    *0x7f84(%rip)        # 8fb0 <_GLOBAL_OFFSET_TABLE_+0x10>
    102c:	0f 1f 40 00          	nopl   0x0(%rax)

0000000000001030 <putchar@plt>:
    1030:	ff 25 82 7f 00 00    	jmp    *0x7f82(%rip)        # 8fb8 <putchar@GLIBC_2.2.5>
    1036:	68 00 00 00 00       	push   $0x0
    103b:	e9 e0 ff ff ff       	jmp    1020 <_init+0x20>

0000000000001040 <__stack_chk_fail@plt>:
    1040:	ff 25 7a 7f 00 00    	jmp    *0x7f7a(%rip)        # 8fc0 <__stack_chk_fail@GLIBC_2.4>
    1046:	68 01 00 00 00       	push   $0x1
    104b:	e9 d0 ff ff ff       	jmp    1020 <_init+0x20>

0000000000001050 <__isoc99_sscanf@plt>:
    1050:	ff 25 72 7f 00 00    	jmp    *0x7f72(%rip)        # 8fc8 <__isoc99_sscanf@GLIBC_2.7>
    1056:	68 02 00 00 00       	push   $0x2
    105b:	e9 c0 ff ff ff       	jmp    1020 <_init+0x20>

0000000000001060 <__printf_chk@plt>:
    1060:	ff 25 6a 7f 00 00    	jmp    *0x7f6a(%rip)        # 8fd0 <__printf_chk@GLIBC_2.3.4>
    1066:	68 03 00 00 00       	push   $0x3
    106b:	e9 b0 ff ff ff       	jmp    1020 <_init+0x20>

Disassembly of section .plt.got:

0000000000001070 <__cxa_finalize@plt>:
    1070:	ff 25 82 7f 00 00    	jmp    *0x7f82(%rip)        # 8ff8 <__cxa_finalize@GLIBC_2.2.5>
    1076:	66 90                	xchg   %ax,%ax

Disassembly of section .text:

0000000000001080 <main>:
    1080:	f3 0f 1e fa          	endbr64 
    1084:	48 83 ec 08          	sub    $0x8,%rsp
    1088:	31 c0                	xor    %eax,%eax
    108a:	e8 a1 01 00 00       	call   1230 <sha3_tests>
    108f:	31 c0                	xor    %eax,%eax
    1091:	48 83 c4 08          	add    $0x8,%rsp
    1095:	c3                   	ret    
    1096:	66 2e 0f 1f 84 00 00 	cs nopw 0x0(%rax,%rax,1)
    109d:	00 00 00 

00000000000010a0 <_start>:
    10a0:	f3 0f 1e fa          	endbr64 
    10a4:	31 ed                	xor    %ebp,%ebp
    10a6:	49 89 d1             	mov    %rdx,%r9
    10a9:	5e                   	pop    %rsi
    10aa:	48 89 e2             	mov    %rsp,%rdx
    10ad:	48 83 e4 f0          	and    $0xfffffffffffffff0,%rsp
    10b1:	50                   	push   %rax
    10b2:	54                   	push   %rsp
    10b3:	45 31 c0             	xor    %r8d,%r8d
    10b6:	31 c9                	xor    %ecx,%ecx
    10b8:	48 8d 3d c1 ff ff ff 	lea    -0x3f(%rip),%rdi        # 1080 <main>
    10bf:	ff 15 13 7f 00 00    	call   *0x7f13(%rip)        # 8fd8 <__libc_start_main@GLIBC_2.34>
    10c5:	f4                   	hlt    
    10c6:	66 2e 0f 1f 84 00 00 	cs nopw 0x0(%rax,%rax,1)
    10cd:	00 00 00 

00000000000010d0 <deregister_tm_clones>:
    10d0:	48 8d 3d 89 83 00 00 	lea    0x8389(%rip),%rdi        # 9460 <__TMC_END__>
    10d7:	48 8d 05 82 83 00 00 	lea    0x8382(%rip),%rax        # 9460 <__TMC_END__>
    10de:	48 39 f8             	cmp    %rdi,%rax
    10e1:	74 15                	je     10f8 <deregister_tm_clones+0x28>
    10e3:	48 8b 05 f6 7e 00 00 	mov    0x7ef6(%rip),%rax        # 8fe0 <_ITM_deregisterTMCloneTable@Base>
    10ea:	48 85 c0             	test   %rax,%rax
    10ed:	74 09                	je     10f8 <deregister_tm_clones+0x28>
    10ef:	ff e0                	jmp    *%rax
    10f1:	0f 1f 80 00 00 00 00 	nopl   0x0(%rax)
    10f8:	c3                   	ret    
    10f9:	0f 1f 80 00 00 00 00 	nopl   0x0(%rax)

0000000000001100 <register_tm_clones>:
    1100:	48 8d 3d 59 83 00 00 	lea    0x8359(%rip),%rdi        # 9460 <__TMC_END__>
    1107:	48 8d 35 52 83 00 00 	lea    0x8352(%rip),%rsi        # 9460 <__TMC_END__>
    110e:	48 29 fe             	sub    %rdi,%rsi
    1111:	48 89 f0             	mov    %rsi,%rax
    1114:	48 c1 ee 3f          	shr    $0x3f,%rsi
    1118:	48 c1 f8 03          	sar    $0x3,%rax
    111c:	48 01 c6             	add    %rax,%rsi
    111f:	48 d1 fe             	sar    %rsi
    1122:	74 14                	je     1138 <register_tm_clones+0x38>
    1124:	48 8b 05 c5 7e 00 00 	mov    0x7ec5(%rip),%rax        # 8ff0 <_ITM_registerTMCloneTable@Base>
    112b:	48 85 c0             	test   %rax,%rax
    112e:	74 08                	je     1138 <register_tm_clones+0x38>
    1130:	ff e0                	jmp    *%rax
    1132:	66 0f 1f 44 00 00    	nopw   0x0(%rax,%rax,1)
    1138:	c3                   	ret    
    1139:	0f 1f 80 00 00 00 00 	nopl   0x0(%rax)

0000000000001140 <__do_global_dtors_aux>:
    1140:	f3 0f 1e fa          	endbr64 
    1144:	80 3d 15 83 00 00 00 	cmpb   $0x0,0x8315(%rip)        # 9460 <__TMC_END__>
    114b:	75 2b                	jne    1178 <__do_global_dtors_aux+0x38>
    114d:	55                   	push   %rbp
    114e:	48 83 3d a2 7e 00 00 	cmpq   $0x0,0x7ea2(%rip)        # 8ff8 <__cxa_finalize@GLIBC_2.2.5>
    1155:	00 
    1156:	48 89 e5             	mov    %rsp,%rbp
    1159:	74 0c                	je     1167 <__do_global_dtors_aux+0x27>
    115b:	48 8b 3d a6 7e 00 00 	mov    0x7ea6(%rip),%rdi        # 9008 <__dso_handle>
    1162:	e8 09 ff ff ff       	call   1070 <__cxa_finalize@plt>
    1167:	e8 64 ff ff ff       	call   10d0 <deregister_tm_clones>
    116c:	c6 05 ed 82 00 00 01 	movb   $0x1,0x82ed(%rip)        # 9460 <__TMC_END__>
    1173:	5d                   	pop    %rbp
    1174:	c3                   	ret    
    1175:	0f 1f 00             	nopl   (%rax)
    1178:	c3                   	ret    
    1179:	0f 1f 80 00 00 00 00 	nopl   0x0(%rax)

0000000000001180 <frame_dummy>:
    1180:	f3 0f 1e fa          	endbr64 
    1184:	e9 77 ff ff ff       	jmp    1100 <register_tm_clones>
    1189:	0f 1f 80 00 00 00 00 	nopl   0x0(%rax)

0000000000001190 <compare_bytes>:
    1190:	f3 0f 1e fa          	endbr64 
    1194:	48 85 d2             	test   %rdx,%rdx
    1197:	74 27                	je     11c0 <compare_bytes+0x30>
    1199:	31 c0                	xor    %eax,%eax
    119b:	eb 0c                	jmp    11a9 <compare_bytes+0x19>
    119d:	0f 1f 00             	nopl   (%rax)
    11a0:	48 83 c0 01          	add    $0x1,%rax
    11a4:	48 39 c2             	cmp    %rax,%rdx
    11a7:	74 17                	je     11c0 <compare_bytes+0x30>
    11a9:	0f b6 0c 06          	movzbl (%rsi,%rax,1),%ecx
    11ad:	38 0c 07             	cmp    %cl,(%rdi,%rax,1)
    11b0:	74 ee                	je     11a0 <compare_bytes+0x10>
    11b2:	b8 01 00 00 00       	mov    $0x1,%eax
    11b7:	c3                   	ret    
    11b8:	0f 1f 84 00 00 00 00 	nopl   0x0(%rax,%rax,1)
    11bf:	00 
    11c0:	31 c0                	xor    %eax,%eax
    11c2:	c3                   	ret    
    11c3:	66 66 2e 0f 1f 84 00 	data16 cs nopw 0x0(%rax,%rax,1)
    11ca:	00 00 00 00 
    11ce:	66 90                	xchg   %ax,%ax

00000000000011d0 <hex_to_bytes>:
    11d0:	f3 0f 1e fa          	endbr64 
    11d4:	48 85 d2             	test   %rdx,%rdx
    11d7:	74 4f                	je     1228 <hex_to_bytes+0x58>
    11d9:	41 55                	push   %r13
    11db:	4c 8d 2c 57          	lea    (%rdi,%rdx,2),%r13
    11df:	41 54                	push   %r12
    11e1:	4c 8d 25 1c 5e 00 00 	lea    0x5e1c(%rip),%r12        # 7004 <_IO_stdin_used+0x4>
    11e8:	55                   	push   %rbp
    11e9:	48 89 f5             	mov    %rsi,%rbp
    11ec:	53                   	push   %rbx
    11ed:	48 89 fb             	mov    %rdi,%rbx
    11f0:	48 83 ec 08          	sub    $0x8,%rsp
    11f4:	0f 1f 40 00          	nopl   0x0(%rax)
    11f8:	48 89 ea             	mov    %rbp,%rdx
    11fb:	48 89 df             	mov    %rbx,%rdi
    11fe:	4c 89 e6             	mov    %r12,%rsi
    1201:	31 c0                	xor    %eax,%eax
    1203:	e8 48 fe ff ff       	call   1050 <__isoc99_sscanf@plt>
    1208:	48 83 c3 02          	add    $0x2,%rbx
    120c:	48 83 c5 01          	add    $0x1,%rbp
    1210:	4c 39 eb             	cmp    %r13,%rbx
    1213:	75 e3                	jne    11f8 <hex_to_bytes+0x28>
    1215:	48 83 c4 08          	add    $0x8,%rsp
    1219:	31 c0                	xor    %eax,%eax
    121b:	5b                   	pop    %rbx
    121c:	5d                   	pop    %rbp
    121d:	41 5c                	pop    %r12
    121f:	41 5d                	pop    %r13
    1221:	c3                   	ret    
    1222:	66 0f 1f 44 00 00    	nopw   0x0(%rax,%rax,1)
    1228:	31 c0                	xor    %eax,%eax
    122a:	c3                   	ret    
    122b:	0f 1f 44 00 00       	nopl   0x0(%rax,%rax,1)

0000000000001230 <sha3_tests>:
    1230:	f3 0f 1e fa          	endbr64 
    1234:	55                   	push   %rbp
    1235:	48 89 e5             	mov    %rsp,%rbp
    1238:	41 57                	push   %r15
    123a:	4c 8d 3d fc 5d 00 00 	lea    0x5dfc(%rip),%r15        # 703d <_IO_stdin_used+0x3d>
    1241:	41 56                	push   %r14
    1243:	4c 8d 75 a0          	lea    -0x60(%rbp),%r14
    1247:	41 55                	push   %r13
    1249:	4c 8d 2d b4 5d 00 00 	lea    0x5db4(%rip),%r13        # 7004 <_IO_stdin_used+0x4>
    1250:	41 54                	push   %r12
    1252:	53                   	push   %rbx
    1253:	48 8d 5d c0          	lea    -0x40(%rbp),%rbx
    1257:	48 81 ec a8 00 00 00 	sub    $0xa8,%rsp
    125e:	64 48 8b 04 25 28 00 	mov    %fs:0x28,%rax
    1265:	00 00 
    1267:	48 89 45 c8          	mov    %rax,-0x38(%rbp)
    126b:	48 8d 05 ae 7d 00 00 	lea    0x7dae(%rip),%rax        # 9020 <test_vectors>
    1272:	48 c7 85 78 ff ff ff 	movq   $0x0,-0x88(%rbp)
    1279:	00 00 00 00 
    127d:	48 89 85 60 ff ff ff 	mov    %rax,-0xa0(%rbp)
    1284:	48 8d 45 80          	lea    -0x80(%rbp),%rax
    1288:	48 89 85 70 ff ff ff 	mov    %rax,-0x90(%rbp)
    128f:	90                   	nop
    1290:	48 83 85 78 ff ff ff 	addq   $0x1,-0x88(%rbp)
    1297:	01 
    1298:	48 8b 95 78 ff ff ff 	mov    -0x88(%rbp),%rdx
    129f:	bf 01 00 00 00       	mov    $0x1,%edi
    12a4:	31 c0                	xor    %eax,%eax
    12a6:	48 8d 35 5d 5d 00 00 	lea    0x5d5d(%rip),%rsi        # 700a <_IO_stdin_used+0xa>
    12ad:	48 89 a5 58 ff ff ff 	mov    %rsp,-0xa8(%rbp)
    12b4:	e8 a7 fd ff ff       	call   1060 <__printf_chk@plt>
    12b9:	48 8b 85 60 ff ff ff 	mov    -0xa0(%rbp),%rax
    12c0:	48 89 e6             	mov    %rsp,%rsi
    12c3:	48 8b 38             	mov    (%rax),%rdi
    12c6:	48 8b 48 08          	mov    0x8(%rax),%rcx
    12ca:	48 8b 40 10          	mov    0x10(%rax),%rax
    12ce:	48 89 bd 68 ff ff ff 	mov    %rdi,-0x98(%rbp)
    12d5:	48 89 85 50 ff ff ff 	mov    %rax,-0xb0(%rbp)
    12dc:	48 8d 47 0f          	lea    0xf(%rdi),%rax
    12e0:	48 89 c2             	mov    %rax,%rdx
    12e3:	48 25 00 f0 ff ff    	and    $0xfffffffffffff000,%rax
    12e9:	48 29 c6             	sub    %rax,%rsi
    12ec:	48 83 e2 f0          	and    $0xfffffffffffffff0,%rdx
    12f0:	48 39 f4             	cmp    %rsi,%rsp
    12f3:	74 15                	je     130a <sha3_tests+0xda>
    12f5:	48 81 ec 00 10 00 00 	sub    $0x1000,%rsp
    12fc:	48 83 8c 24 f8 0f 00 	orq    $0x0,0xff8(%rsp)
    1303:	00 00 
    1305:	48 39 f4             	cmp    %rsi,%rsp
    1308:	75 eb                	jne    12f5 <sha3_tests+0xc5>
    130a:	81 e2 ff 0f 00 00    	and    $0xfff,%edx
    1310:	48 29 d4             	sub    %rdx,%rsp
    1313:	48 85 d2             	test   %rdx,%rdx
    1316:	74 06                	je     131e <sha3_tests+0xee>
    1318:	48 83 4c 14 f8 00    	orq    $0x0,-0x8(%rsp,%rdx,1)
    131e:	48 8b 85 68 ff ff ff 	mov    -0x98(%rbp),%rax
    1325:	48 89 a5 38 ff ff ff 	mov    %rsp,-0xc8(%rbp)
    132c:	48 85 c0             	test   %rax,%rax
    132f:	74 4a                	je     137b <sha3_tests+0x14b>
    1331:	48 89 e2             	mov    %rsp,%rdx
    1334:	48 8d 04 41          	lea    (%rcx,%rax,2),%rax
    1338:	4c 89 b5 48 ff ff ff 	mov    %r14,-0xb8(%rbp)
    133f:	48 89 9d 40 ff ff ff 	mov    %rbx,-0xc0(%rbp)
    1346:	49 89 d6             	mov    %rdx,%r14
    1349:	48 89 cb             	mov    %rcx,%rbx
    134c:	49 89 c4             	mov    %rax,%r12
    134f:	90                   	nop
    1350:	4c 89 f2             	mov    %r14,%rdx
    1353:	48 89 df             	mov    %rbx,%rdi
    1356:	4c 89 ee             	mov    %r13,%rsi
    1359:	31 c0                	xor    %eax,%eax
    135b:	e8 f0 fc ff ff       	call   1050 <__isoc99_sscanf@plt>
    1360:	48 83 c3 02          	add    $0x2,%rbx
    1364:	49 83 c6 01          	add    $0x1,%r14
    1368:	4c 39 e3             	cmp    %r12,%rbx
    136b:	75 e3                	jne    1350 <sha3_tests+0x120>
    136d:	4c 8b b5 48 ff ff ff 	mov    -0xb8(%rbp),%r14
    1374:	48 8b 9d 40 ff ff ff 	mov    -0xc0(%rbp),%rbx
    137b:	48 8b 8d 50 ff ff ff 	mov    -0xb0(%rbp),%rcx
    1382:	4c 89 b5 48 ff ff ff 	mov    %r14,-0xb8(%rbp)
    1389:	4d 89 f4             	mov    %r14,%r12
    138c:	4c 89 b5 50 ff ff ff 	mov    %r14,-0xb0(%rbp)
    1393:	49 89 ce             	mov    %rcx,%r14
    1396:	66 2e 0f 1f 84 00 00 	cs nopw 0x0(%rax,%rax,1)
    139d:	00 00 00 
    13a0:	4c 89 e2             	mov    %r12,%rdx
    13a3:	4c 89 f7             	mov    %r14,%rdi
    13a6:	4c 89 ee             	mov    %r13,%rsi
    13a9:	31 c0                	xor    %eax,%eax
    13ab:	e8 a0 fc ff ff       	call   1050 <__isoc99_sscanf@plt>
    13b0:	49 83 c4 01          	add    $0x1,%r12
    13b4:	49 83 c6 02          	add    $0x2,%r14
    13b8:	49 39 dc             	cmp    %rbx,%r12
    13bb:	75 e3                	jne    13a0 <sha3_tests+0x170>
    13bd:	48 8b 95 68 ff ff ff 	mov    -0x98(%rbp),%rdx
    13c4:	48 8b b5 38 ff ff ff 	mov    -0xc8(%rbp),%rsi
    13cb:	48 8b bd 70 ff ff ff 	mov    -0x90(%rbp),%rdi
    13d2:	4c 8b a5 50 ff ff ff 	mov    -0xb0(%rbp),%r12
    13d9:	4c 8b b5 48 ff ff ff 	mov    -0xb8(%rbp),%r14
    13e0:	e8 3b 01 00 00       	call   1520 <_jade_hash_sha3_256_amd64>
    13e5:	85 c0                	test   %eax,%eax
    13e7:	75 7f                	jne    1468 <sha3_tests+0x238>
    13e9:	48 8b 95 70 ff ff ff 	mov    -0x90(%rbp),%rdx
    13f0:	31 c0                	xor    %eax,%eax
    13f2:	66 0f 1f 44 00 00    	nopw   0x0(%rax,%rax,1)
    13f8:	41 0f b6 0c 06       	movzbl (%r14,%rax,1),%ecx
    13fd:	38 0c 02             	cmp    %cl,(%rdx,%rax,1)
    1400:	75 66                	jne    1468 <sha3_tests+0x238>
    1402:	48 83 c0 01          	add    $0x1,%rax
    1406:	48 83 f8 20          	cmp    $0x20,%rax
    140a:	75 ec                	jne    13f8 <sha3_tests+0x1c8>
    140c:	48 8b 95 78 ff ff ff 	mov    -0x88(%rbp),%rdx
    1413:	48 8d 35 39 5c 00 00 	lea    0x5c39(%rip),%rsi        # 7053 <_IO_stdin_used+0x53>
    141a:	bf 01 00 00 00       	mov    $0x1,%edi
    141f:	31 c0                	xor    %eax,%eax
    1421:	e8 3a fc ff ff       	call   1060 <__printf_chk@plt>
    1426:	48 83 85 60 ff ff ff 	addq   $0x18,-0xa0(%rbp)
    142d:	18 
    142e:	48 83 bd 78 ff ff ff 	cmpq   $0x15,-0x88(%rbp)
    1435:	15 
    1436:	48 8b a5 58 ff ff ff 	mov    -0xa8(%rbp),%rsp
    143d:	0f 85 4d fe ff ff    	jne    1290 <sha3_tests+0x60>
    1443:	48 8b 45 c8          	mov    -0x38(%rbp),%rax
    1447:	64 48 2b 04 25 28 00 	sub    %fs:0x28,%rax
    144e:	00 00 
    1450:	0f 85 a6 00 00 00    	jne    14fc <sha3_tests+0x2cc>
    1456:	48 8d 65 d8          	lea    -0x28(%rbp),%rsp
    145a:	5b                   	pop    %rbx
    145b:	41 5c                	pop    %r12
    145d:	41 5d                	pop    %r13
    145f:	41 5e                	pop    %r14
    1461:	41 5f                	pop    %r15
    1463:	5d                   	pop    %rbp
    1464:	c3                   	ret    
    1465:	0f 1f 00             	nopl   (%rax)
    1468:	48 8b 95 78 ff ff ff 	mov    -0x88(%rbp),%rdx
    146f:	48 8d 35 a6 5b 00 00 	lea    0x5ba6(%rip),%rsi        # 701c <_IO_stdin_used+0x1c>
    1476:	bf 01 00 00 00       	mov    $0x1,%edi
    147b:	31 c0                	xor    %eax,%eax
    147d:	e8 de fb ff ff       	call   1060 <__printf_chk@plt>
    1482:	48 8d 35 a4 5b 00 00 	lea    0x5ba4(%rip),%rsi        # 702d <_IO_stdin_used+0x2d>
    1489:	bf 01 00 00 00       	mov    $0x1,%edi
    148e:	31 c0                	xor    %eax,%eax
    1490:	e8 cb fb ff ff       	call   1060 <__printf_chk@plt>
    1495:	0f 1f 00             	nopl   (%rax)
    1498:	41 0f b6 14 24       	movzbl (%r12),%edx
    149d:	4c 89 fe             	mov    %r15,%rsi
    14a0:	bf 01 00 00 00       	mov    $0x1,%edi
    14a5:	31 c0                	xor    %eax,%eax
    14a7:	49 83 c4 01          	add    $0x1,%r12
    14ab:	e8 b0 fb ff ff       	call   1060 <__printf_chk@plt>
    14b0:	49 39 dc             	cmp    %rbx,%r12
    14b3:	75 e3                	jne    1498 <sha3_tests+0x268>
    14b5:	48 8d 35 86 5b 00 00 	lea    0x5b86(%rip),%rsi        # 7042 <_IO_stdin_used+0x42>
    14bc:	bf 01 00 00 00       	mov    $0x1,%edi
    14c1:	31 c0                	xor    %eax,%eax
    14c3:	e8 98 fb ff ff       	call   1060 <__printf_chk@plt>
    14c8:	4c 8b a5 70 ff ff ff 	mov    -0x90(%rbp),%r12
    14cf:	90                   	nop
    14d0:	41 0f b6 14 24       	movzbl (%r12),%edx
    14d5:	4c 89 fe             	mov    %r15,%rsi
    14d8:	bf 01 00 00 00       	mov    $0x1,%edi
    14dd:	31 c0                	xor    %eax,%eax
    14df:	49 83 c4 01          	add    $0x1,%r12
    14e3:	e8 78 fb ff ff       	call   1060 <__printf_chk@plt>
    14e8:	4d 39 e6             	cmp    %r12,%r14
    14eb:	75 e3                	jne    14d0 <sha3_tests+0x2a0>
    14ed:	bf 0a 00 00 00       	mov    $0xa,%edi
    14f2:	e8 39 fb ff ff       	call   1030 <putchar@plt>
    14f7:	e9 2a ff ff ff       	jmp    1426 <sha3_tests+0x1f6>
    14fc:	e8 3f fb ff ff       	call   1040 <__stack_chk_fail@plt>
    1501:	66 2e 0f 1f 84 00 00 	cs nopw 0x0(%rax,%rax,1)
    1508:	00 00 00 
    150b:	66 2e 0f 1f 84 00 00 	cs nopw 0x0(%rax,%rax,1)
    1512:	00 00 00 
    1515:	66 2e 0f 1f 84 00 00 	cs nopw 0x0(%rax,%rax,1)
    151c:	00 00 00 
    151f:	90                   	nop

0000000000001520 <_jade_hash_sha3_256_amd64>:
    1520:	48 89 e0             	mov    %rsp,%rax
    1523:	48 8d 64 24 d0       	lea    -0x30(%rsp),%rsp
    1528:	48 83 e4 f8          	and    $0xfffffffffffffff8,%rsp
    152c:	48 89 1c 24          	mov    %rbx,(%rsp)
    1530:	48 89 6c 24 08       	mov    %rbp,0x8(%rsp)
    1535:	4c 89 64 24 10       	mov    %r12,0x10(%rsp)
    153a:	4c 89 6c 24 18       	mov    %r13,0x18(%rsp)
    153f:	4c 89 74 24 20       	mov    %r14,0x20(%rsp)
    1544:	48 89 44 24 28       	mov    %rax,0x28(%rsp)
    1549:	48 c7 c1 20 00 00 00 	mov    $0x20,%rcx
    1550:	41 b0 06             	mov    $0x6,%r8b
    1553:	48 c7 c0 88 00 00 00 	mov    $0x88,%rax
    155a:	48 8d a4 24 40 fe ff 	lea    -0x1c0(%rsp),%rsp
    1561:	ff 
    1562:	e8 29 00 00 00       	call   1590 <L_keccak1600_ref$1>

0000000000001567 <Ljade_hash_sha3_256_amd64$1>:
    1567:	48 8d a4 24 c0 01 00 	lea    0x1c0(%rsp),%rsp
    156e:	00 
    156f:	48 31 c0             	xor    %rax,%rax
    1572:	48 8b 1c 24          	mov    (%rsp),%rbx
    1576:	48 8b 6c 24 08       	mov    0x8(%rsp),%rbp
    157b:	4c 8b 64 24 10       	mov    0x10(%rsp),%r12
    1580:	4c 8b 6c 24 18       	mov    0x18(%rsp),%r13
    1585:	4c 8b 74 24 20       	mov    0x20(%rsp),%r14
    158a:	48 8b 64 24 28       	mov    0x28(%rsp),%rsp
    158f:	c3                   	ret    

0000000000001590 <L_keccak1600_ref$1>:
    1590:	48 89 7c 24 08       	mov    %rdi,0x8(%rsp)
    1595:	48 89 4c 24 10       	mov    %rcx,0x10(%rsp)
    159a:	44 88 84 24 c0 01 00 	mov    %r8b,0x1c0(%rsp)
    15a1:	00 
    15a2:	48 31 c9             	xor    %rcx,%rcx
    15a5:	48 89 4c 24 30       	mov    %rcx,0x30(%rsp)
    15aa:	48 89 4c 24 38       	mov    %rcx,0x38(%rsp)
    15af:	48 89 4c 24 40       	mov    %rcx,0x40(%rsp)
    15b4:	48 89 4c 24 48       	mov    %rcx,0x48(%rsp)
    15b9:	48 89 4c 24 50       	mov    %rcx,0x50(%rsp)
    15be:	48 89 4c 24 58       	mov    %rcx,0x58(%rsp)
    15c3:	48 89 4c 24 60       	mov    %rcx,0x60(%rsp)
    15c8:	48 89 4c 24 68       	mov    %rcx,0x68(%rsp)
    15cd:	48 89 4c 24 70       	mov    %rcx,0x70(%rsp)
    15d2:	48 89 4c 24 78       	mov    %rcx,0x78(%rsp)
    15d7:	48 89 8c 24 80 00 00 	mov    %rcx,0x80(%rsp)
    15de:	00 
    15df:	48 89 8c 24 88 00 00 	mov    %rcx,0x88(%rsp)
    15e6:	00 
    15e7:	48 89 8c 24 90 00 00 	mov    %rcx,0x90(%rsp)
    15ee:	00 
    15ef:	48 89 8c 24 98 00 00 	mov    %rcx,0x98(%rsp)
    15f6:	00 
    15f7:	48 89 8c 24 a0 00 00 	mov    %rcx,0xa0(%rsp)
    15fe:	00 
    15ff:	48 89 8c 24 a8 00 00 	mov    %rcx,0xa8(%rsp)
    1606:	00 
    1607:	48 89 8c 24 b0 00 00 	mov    %rcx,0xb0(%rsp)
    160e:	00 
    160f:	48 89 8c 24 b8 00 00 	mov    %rcx,0xb8(%rsp)
    1616:	00 
    1617:	48 89 8c 24 c0 00 00 	mov    %rcx,0xc0(%rsp)
    161e:	00 
    161f:	48 89 8c 24 c8 00 00 	mov    %rcx,0xc8(%rsp)
    1626:	00 
    1627:	48 89 8c 24 d0 00 00 	mov    %rcx,0xd0(%rsp)
    162e:	00 
    162f:	48 89 8c 24 d8 00 00 	mov    %rcx,0xd8(%rsp)
    1636:	00 
    1637:	48 89 8c 24 e0 00 00 	mov    %rcx,0xe0(%rsp)
    163e:	00 
    163f:	48 89 8c 24 e8 00 00 	mov    %rcx,0xe8(%rsp)
    1646:	00 
    1647:	48 89 8c 24 f0 00 00 	mov    %rcx,0xf0(%rsp)
    164e:	00 
    164f:	e9 ad 08 00 00       	jmp    1f01 <L_keccak1600_ref$18>

0000000000001654 <L_keccak1600_ref$19>:
    1654:	48 89 c1             	mov    %rax,%rcx
    1657:	48 c1 e9 03          	shr    $0x3,%rcx
    165b:	48 c7 c7 00 00 00 00 	mov    $0x0,%rdi
    1662:	eb 0c                	jmp    1670 <L_keccak1600_ref$22>

0000000000001664 <L_keccak1600_ref$23>:
    1664:	4c 8b 04 fe          	mov    (%rsi,%rdi,8),%r8
    1668:	4c 31 44 fc 30       	xor    %r8,0x30(%rsp,%rdi,8)
    166d:	48 ff c7             	inc    %rdi

0000000000001670 <L_keccak1600_ref$22>:
    1670:	48 39 cf             	cmp    %rcx,%rdi
    1673:	72 ef                	jb     1664 <L_keccak1600_ref$23>
    1675:	48 01 c6             	add    %rax,%rsi
    1678:	48 29 c2             	sub    %rax,%rdx
    167b:	48 89 74 24 18       	mov    %rsi,0x18(%rsp)
    1680:	48 89 54 24 20       	mov    %rdx,0x20(%rsp)
    1685:	48 89 44 24 28       	mov    %rax,0x28(%rsp)
    168a:	48 8d 05 8f 7b 00 00 	lea    0x7b8f(%rip),%rax        # 9220 <G$KECCAK1600_RC>
    1691:	48 c7 c1 00 00 00 00 	mov    $0x0,%rcx
    1698:	e9 4b 08 00 00       	jmp    1ee8 <L_keccak1600_ref$20>

000000000000169d <L_keccak1600_ref$21>:
    169d:	4c 8b 14 c8          	mov    (%rax,%rcx,8),%r10
    16a1:	4c 8b 4c 24 30       	mov    0x30(%rsp),%r9
    16a6:	4c 8b 44 24 38       	mov    0x38(%rsp),%r8
    16ab:	4c 8b 5c 24 40       	mov    0x40(%rsp),%r11
    16b0:	48 8b 5c 24 48       	mov    0x48(%rsp),%rbx
    16b5:	48 8b 6c 24 50       	mov    0x50(%rsp),%rbp
    16ba:	4c 33 4c 24 58       	xor    0x58(%rsp),%r9
    16bf:	4c 33 44 24 60       	xor    0x60(%rsp),%r8
    16c4:	4c 33 5c 24 68       	xor    0x68(%rsp),%r11
    16c9:	48 33 5c 24 70       	xor    0x70(%rsp),%rbx
    16ce:	48 33 6c 24 78       	xor    0x78(%rsp),%rbp
    16d3:	4c 33 8c 24 80 00 00 	xor    0x80(%rsp),%r9
    16da:	00 
    16db:	4c 33 84 24 88 00 00 	xor    0x88(%rsp),%r8
    16e2:	00 
    16e3:	4c 33 9c 24 90 00 00 	xor    0x90(%rsp),%r11
    16ea:	00 
    16eb:	48 33 9c 24 98 00 00 	xor    0x98(%rsp),%rbx
    16f2:	00 
    16f3:	48 33 ac 24 a0 00 00 	xor    0xa0(%rsp),%rbp
    16fa:	00 
    16fb:	4c 33 8c 24 a8 00 00 	xor    0xa8(%rsp),%r9
    1702:	00 
    1703:	4c 33 84 24 b0 00 00 	xor    0xb0(%rsp),%r8
    170a:	00 
    170b:	4c 33 9c 24 b8 00 00 	xor    0xb8(%rsp),%r11
    1712:	00 
    1713:	48 33 9c 24 c0 00 00 	xor    0xc0(%rsp),%rbx
    171a:	00 
    171b:	48 33 ac 24 c8 00 00 	xor    0xc8(%rsp),%rbp
    1722:	00 
    1723:	4c 33 8c 24 d0 00 00 	xor    0xd0(%rsp),%r9
    172a:	00 
    172b:	4c 33 84 24 d8 00 00 	xor    0xd8(%rsp),%r8
    1732:	00 
    1733:	4c 33 9c 24 e0 00 00 	xor    0xe0(%rsp),%r11
    173a:	00 
    173b:	48 33 9c 24 e8 00 00 	xor    0xe8(%rsp),%rbx
    1742:	00 
    1743:	48 33 ac 24 f0 00 00 	xor    0xf0(%rsp),%rbp
    174a:	00 
    174b:	4c 89 c2             	mov    %r8,%rdx
    174e:	48 d1 c2             	rol    %rdx
    1751:	48 31 ea             	xor    %rbp,%rdx
    1754:	4c 89 de             	mov    %r11,%rsi
    1757:	48 d1 c6             	rol    %rsi
    175a:	4c 31 ce             	xor    %r9,%rsi
    175d:	48 89 df             	mov    %rbx,%rdi
    1760:	48 d1 c7             	rol    %rdi
    1763:	4c 31 c7             	xor    %r8,%rdi
    1766:	49 89 e8             	mov    %rbp,%r8
    1769:	49 d1 c0             	rol    %r8
    176c:	4d 31 d8             	xor    %r11,%r8
    176f:	49 d1 c1             	rol    %r9
    1772:	49 31 d9             	xor    %rbx,%r9
    1775:	4c 8b 5c 24 30       	mov    0x30(%rsp),%r11
    177a:	49 31 d3             	xor    %rdx,%r11
    177d:	48 8b 5c 24 60       	mov    0x60(%rsp),%rbx
    1782:	48 31 f3             	xor    %rsi,%rbx
    1785:	48 c1 c3 2c          	rol    $0x2c,%rbx
    1789:	48 8b ac 24 90 00 00 	mov    0x90(%rsp),%rbp
    1790:	00 
    1791:	48 31 fd             	xor    %rdi,%rbp
    1794:	48 c1 c5 2b          	rol    $0x2b,%rbp
    1798:	4c 8b a4 24 c0 00 00 	mov    0xc0(%rsp),%r12
    179f:	00 
    17a0:	4d 31 c4             	xor    %r8,%r12
    17a3:	49 c1 c4 15          	rol    $0x15,%r12
    17a7:	4c 8b ac 24 f0 00 00 	mov    0xf0(%rsp),%r13
    17ae:	00 
    17af:	4d 31 cd             	xor    %r9,%r13
    17b2:	49 c1 c5 0e          	rol    $0xe,%r13
    17b6:	49 89 de             	mov    %rbx,%r14
    17b9:	49 f7 d6             	not    %r14
    17bc:	49 21 ee             	and    %rbp,%r14
    17bf:	4d 31 de             	xor    %r11,%r14
    17c2:	4d 31 d6             	xor    %r10,%r14
    17c5:	4c 89 b4 24 f8 00 00 	mov    %r14,0xf8(%rsp)
    17cc:	00 
    17cd:	49 89 ea             	mov    %rbp,%r10
    17d0:	49 f7 d2             	not    %r10
    17d3:	4d 21 e2             	and    %r12,%r10
    17d6:	49 31 da             	xor    %rbx,%r10
    17d9:	4c 89 94 24 00 01 00 	mov    %r10,0x100(%rsp)
    17e0:	00 
    17e1:	4d 89 e2             	mov    %r12,%r10
    17e4:	49 f7 d2             	not    %r10
    17e7:	4d 21 ea             	and    %r13,%r10
    17ea:	49 31 ea             	xor    %rbp,%r10
    17ed:	4c 89 94 24 08 01 00 	mov    %r10,0x108(%rsp)
    17f4:	00 
    17f5:	4d 89 ea             	mov    %r13,%r10
    17f8:	49 f7 d2             	not    %r10
    17fb:	4d 21 da             	and    %r11,%r10
    17fe:	4d 31 e2             	xor    %r12,%r10
    1801:	4c 89 94 24 10 01 00 	mov    %r10,0x110(%rsp)
    1808:	00 
    1809:	49 f7 d3             	not    %r11
    180c:	49 21 db             	and    %rbx,%r11
    180f:	4d 31 eb             	xor    %r13,%r11
    1812:	4c 89 9c 24 18 01 00 	mov    %r11,0x118(%rsp)
    1819:	00 
    181a:	4c 8b 54 24 48       	mov    0x48(%rsp),%r10
    181f:	4d 31 c2             	xor    %r8,%r10
    1822:	49 c1 c2 1c          	rol    $0x1c,%r10
    1826:	4c 8b 5c 24 78       	mov    0x78(%rsp),%r11
    182b:	4d 31 cb             	xor    %r9,%r11
    182e:	49 c1 c3 14          	rol    $0x14,%r11
    1832:	4c 8b a4 24 80 00 00 	mov    0x80(%rsp),%r12
    1839:	00 
    183a:	49 31 d4             	xor    %rdx,%r12
    183d:	49 c1 c4 03          	rol    $0x3,%r12
    1841:	48 8b 9c 24 b0 00 00 	mov    0xb0(%rsp),%rbx
    1848:	00 
    1849:	48 31 f3             	xor    %rsi,%rbx
    184c:	48 c1 c3 2d          	rol    $0x2d,%rbx
    1850:	48 8b ac 24 e0 00 00 	mov    0xe0(%rsp),%rbp
    1857:	00 
    1858:	48 31 fd             	xor    %rdi,%rbp
    185b:	48 c1 c5 3d          	rol    $0x3d,%rbp
    185f:	4d 89 dd             	mov    %r11,%r13
    1862:	49 f7 d5             	not    %r13
    1865:	4d 21 e5             	and    %r12,%r13
    1868:	4d 31 d5             	xor    %r10,%r13
    186b:	4c 89 ac 24 20 01 00 	mov    %r13,0x120(%rsp)
    1872:	00 
    1873:	4d 89 e5             	mov    %r12,%r13
    1876:	49 f7 d5             	not    %r13
    1879:	49 21 dd             	and    %rbx,%r13
    187c:	4d 31 dd             	xor    %r11,%r13
    187f:	4c 89 ac 24 28 01 00 	mov    %r13,0x128(%rsp)
    1886:	00 
    1887:	49 89 dd             	mov    %rbx,%r13
    188a:	49 f7 d5             	not    %r13
    188d:	49 21 ed             	and    %rbp,%r13
    1890:	4d 31 e5             	xor    %r12,%r13
    1893:	4c 89 ac 24 30 01 00 	mov    %r13,0x130(%rsp)
    189a:	00 
    189b:	49 89 ec             	mov    %rbp,%r12
    189e:	49 f7 d4             	not    %r12
    18a1:	4d 21 d4             	and    %r10,%r12
    18a4:	49 31 dc             	xor    %rbx,%r12
    18a7:	4c 89 a4 24 38 01 00 	mov    %r12,0x138(%rsp)
    18ae:	00 
    18af:	49 f7 d2             	not    %r10
    18b2:	4d 21 da             	and    %r11,%r10
    18b5:	49 31 ea             	xor    %rbp,%r10
    18b8:	4c 89 94 24 40 01 00 	mov    %r10,0x140(%rsp)
    18bf:	00 
    18c0:	4c 8b 54 24 38       	mov    0x38(%rsp),%r10
    18c5:	49 31 f2             	xor    %rsi,%r10
    18c8:	49 d1 c2             	rol    %r10
    18cb:	4c 8b 5c 24 68       	mov    0x68(%rsp),%r11
    18d0:	49 31 fb             	xor    %rdi,%r11
    18d3:	49 c1 c3 06          	rol    $0x6,%r11
    18d7:	4c 8b a4 24 98 00 00 	mov    0x98(%rsp),%r12
    18de:	00 
    18df:	4d 31 c4             	xor    %r8,%r12
    18e2:	49 c1 c4 19          	rol    $0x19,%r12
    18e6:	48 8b 9c 24 c8 00 00 	mov    0xc8(%rsp),%rbx
    18ed:	00 
    18ee:	4c 31 cb             	xor    %r9,%rbx
    18f1:	48 c1 c3 08          	rol    $0x8,%rbx
    18f5:	48 8b ac 24 d0 00 00 	mov    0xd0(%rsp),%rbp
    18fc:	00 
    18fd:	48 31 d5             	xor    %rdx,%rbp
    1900:	48 c1 c5 12          	rol    $0x12,%rbp
    1904:	4d 89 dd             	mov    %r11,%r13
    1907:	49 f7 d5             	not    %r13
    190a:	4d 21 e5             	and    %r12,%r13
    190d:	4d 31 d5             	xor    %r10,%r13
    1910:	4c 89 ac 24 48 01 00 	mov    %r13,0x148(%rsp)
    1917:	00 
    1918:	4d 89 e5             	mov    %r12,%r13
    191b:	49 f7 d5             	not    %r13
    191e:	49 21 dd             	and    %rbx,%r13
    1921:	4d 31 dd             	xor    %r11,%r13
    1924:	4c 89 ac 24 50 01 00 	mov    %r13,0x150(%rsp)
    192b:	00 
    192c:	49 89 dd             	mov    %rbx,%r13
    192f:	49 f7 d5             	not    %r13
    1932:	49 21 ed             	and    %rbp,%r13
    1935:	4d 31 e5             	xor    %r12,%r13
    1938:	4c 89 ac 24 58 01 00 	mov    %r13,0x158(%rsp)
    193f:	00 
    1940:	49 89 ec             	mov    %rbp,%r12
    1943:	49 f7 d4             	not    %r12
    1946:	4d 21 d4             	and    %r10,%r12
    1949:	49 31 dc             	xor    %rbx,%r12
    194c:	4c 89 a4 24 60 01 00 	mov    %r12,0x160(%rsp)
    1953:	00 
    1954:	49 f7 d2             	not    %r10
    1957:	4d 21 da             	and    %r11,%r10
    195a:	49 31 ea             	xor    %rbp,%r10
    195d:	4c 89 94 24 68 01 00 	mov    %r10,0x168(%rsp)
    1964:	00 
    1965:	4c 8b 54 24 50       	mov    0x50(%rsp),%r10
    196a:	4d 31 ca             	xor    %r9,%r10
    196d:	49 c1 c2 1b          	rol    $0x1b,%r10
    1971:	4c 8b 5c 24 58       	mov    0x58(%rsp),%r11
    1976:	49 31 d3             	xor    %rdx,%r11
    1979:	49 c1 c3 24          	rol    $0x24,%r11
    197d:	4c 8b a4 24 88 00 00 	mov    0x88(%rsp),%r12
    1984:	00 
    1985:	49 31 f4             	xor    %rsi,%r12
    1988:	49 c1 c4 0a          	rol    $0xa,%r12
    198c:	48 8b 9c 24 b8 00 00 	mov    0xb8(%rsp),%rbx
    1993:	00 
    1994:	48 31 fb             	xor    %rdi,%rbx
    1997:	48 c1 c3 0f          	rol    $0xf,%rbx
    199b:	48 8b ac 24 e8 00 00 	mov    0xe8(%rsp),%rbp
    19a2:	00 
    19a3:	4c 31 c5             	xor    %r8,%rbp
    19a6:	48 c1 c5 38          	rol    $0x38,%rbp
    19aa:	4d 89 dd             	mov    %r11,%r13
    19ad:	49 f7 d5             	not    %r13
    19b0:	4d 21 e5             	and    %r12,%r13
    19b3:	4d 31 d5             	xor    %r10,%r13
    19b6:	4c 89 ac 24 70 01 00 	mov    %r13,0x170(%rsp)
    19bd:	00 
    19be:	4d 89 e5             	mov    %r12,%r13
    19c1:	49 f7 d5             	not    %r13
    19c4:	49 21 dd             	and    %rbx,%r13
    19c7:	4d 31 dd             	xor    %r11,%r13
    19ca:	4c 89 ac 24 78 01 00 	mov    %r13,0x178(%rsp)
    19d1:	00 
    19d2:	49 89 dd             	mov    %rbx,%r13
    19d5:	49 f7 d5             	not    %r13
    19d8:	49 21 ed             	and    %rbp,%r13
    19db:	4d 31 e5             	xor    %r12,%r13
    19de:	4c 89 ac 24 80 01 00 	mov    %r13,0x180(%rsp)
    19e5:	00 
    19e6:	49 89 ec             	mov    %rbp,%r12
    19e9:	49 f7 d4             	not    %r12
    19ec:	4d 21 d4             	and    %r10,%r12
    19ef:	49 31 dc             	xor    %rbx,%r12
    19f2:	4c 89 a4 24 88 01 00 	mov    %r12,0x188(%rsp)
    19f9:	00 
    19fa:	49 f7 d2             	not    %r10
    19fd:	4d 21 da             	and    %r11,%r10
    1a00:	49 31 ea             	xor    %rbp,%r10
    1a03:	4c 89 94 24 90 01 00 	mov    %r10,0x190(%rsp)
    1a0a:	00 
    1a0b:	4c 8b 54 24 40       	mov    0x40(%rsp),%r10
    1a10:	49 31 fa             	xor    %rdi,%r10
    1a13:	49 c1 c2 3e          	rol    $0x3e,%r10
    1a17:	48 8b 7c 24 70       	mov    0x70(%rsp),%rdi
    1a1c:	4c 31 c7             	xor    %r8,%rdi
    1a1f:	48 c1 c7 37          	rol    $0x37,%rdi
    1a23:	4c 8b 84 24 a0 00 00 	mov    0xa0(%rsp),%r8
    1a2a:	00 
    1a2b:	4d 31 c8             	xor    %r9,%r8
    1a2e:	49 c1 c0 27          	rol    $0x27,%r8
    1a32:	4c 8b 8c 24 a8 00 00 	mov    0xa8(%rsp),%r9
    1a39:	00 
    1a3a:	49 31 d1             	xor    %rdx,%r9
    1a3d:	49 c1 c1 29          	rol    $0x29,%r9
    1a41:	48 8b 94 24 d8 00 00 	mov    0xd8(%rsp),%rdx
    1a48:	00 
    1a49:	48 31 f2             	xor    %rsi,%rdx
    1a4c:	48 c1 c2 02          	rol    $0x2,%rdx
    1a50:	48 89 fe             	mov    %rdi,%rsi
    1a53:	48 f7 d6             	not    %rsi
    1a56:	4c 21 c6             	and    %r8,%rsi
    1a59:	4c 31 d6             	xor    %r10,%rsi
    1a5c:	48 89 b4 24 98 01 00 	mov    %rsi,0x198(%rsp)
    1a63:	00 
    1a64:	4c 89 c6             	mov    %r8,%rsi
    1a67:	48 f7 d6             	not    %rsi
    1a6a:	4c 21 ce             	and    %r9,%rsi
    1a6d:	48 31 fe             	xor    %rdi,%rsi
    1a70:	48 89 b4 24 a0 01 00 	mov    %rsi,0x1a0(%rsp)
    1a77:	00 
    1a78:	4c 89 ce             	mov    %r9,%rsi
    1a7b:	48 f7 d6             	not    %rsi
    1a7e:	48 21 d6             	and    %rdx,%rsi
    1a81:	4c 31 c6             	xor    %r8,%rsi
    1a84:	48 89 b4 24 a8 01 00 	mov    %rsi,0x1a8(%rsp)
    1a8b:	00 
    1a8c:	48 89 d6             	mov    %rdx,%rsi
    1a8f:	48 f7 d6             	not    %rsi
    1a92:	4c 21 d6             	and    %r10,%rsi
    1a95:	4c 31 ce             	xor    %r9,%rsi
    1a98:	48 89 b4 24 b0 01 00 	mov    %rsi,0x1b0(%rsp)
    1a9f:	00 
    1aa0:	49 f7 d2             	not    %r10
    1aa3:	49 21 fa             	and    %rdi,%r10
    1aa6:	49 31 d2             	xor    %rdx,%r10
    1aa9:	4c 89 94 24 b8 01 00 	mov    %r10,0x1b8(%rsp)
    1ab0:	00 
    1ab1:	4c 8b 54 c8 08       	mov    0x8(%rax,%rcx,8),%r10
    1ab6:	4c 8b 8c 24 f8 00 00 	mov    0xf8(%rsp),%r9
    1abd:	00 
    1abe:	4c 8b 84 24 00 01 00 	mov    0x100(%rsp),%r8
    1ac5:	00 
    1ac6:	4c 8b 9c 24 08 01 00 	mov    0x108(%rsp),%r11
    1acd:	00 
    1ace:	48 8b 9c 24 10 01 00 	mov    0x110(%rsp),%rbx
    1ad5:	00 
    1ad6:	48 8b ac 24 18 01 00 	mov    0x118(%rsp),%rbp
    1add:	00 
    1ade:	4c 33 8c 24 20 01 00 	xor    0x120(%rsp),%r9
    1ae5:	00 
    1ae6:	4c 33 84 24 28 01 00 	xor    0x128(%rsp),%r8
    1aed:	00 
    1aee:	4c 33 9c 24 30 01 00 	xor    0x130(%rsp),%r11
    1af5:	00 
    1af6:	48 33 9c 24 38 01 00 	xor    0x138(%rsp),%rbx
    1afd:	00 
    1afe:	48 33 ac 24 40 01 00 	xor    0x140(%rsp),%rbp
    1b05:	00 
    1b06:	4c 33 8c 24 48 01 00 	xor    0x148(%rsp),%r9
    1b0d:	00 
    1b0e:	4c 33 84 24 50 01 00 	xor    0x150(%rsp),%r8
    1b15:	00 
    1b16:	4c 33 9c 24 58 01 00 	xor    0x158(%rsp),%r11
    1b1d:	00 
    1b1e:	48 33 9c 24 60 01 00 	xor    0x160(%rsp),%rbx
    1b25:	00 
    1b26:	48 33 ac 24 68 01 00 	xor    0x168(%rsp),%rbp
    1b2d:	00 
    1b2e:	4c 33 8c 24 70 01 00 	xor    0x170(%rsp),%r9
    1b35:	00 
    1b36:	4c 33 84 24 78 01 00 	xor    0x178(%rsp),%r8
    1b3d:	00 
    1b3e:	4c 33 9c 24 80 01 00 	xor    0x180(%rsp),%r11
    1b45:	00 
    1b46:	48 33 9c 24 88 01 00 	xor    0x188(%rsp),%rbx
    1b4d:	00 
    1b4e:	48 33 ac 24 90 01 00 	xor    0x190(%rsp),%rbp
    1b55:	00 
    1b56:	4c 33 8c 24 98 01 00 	xor    0x198(%rsp),%r9
    1b5d:	00 
    1b5e:	4c 33 84 24 a0 01 00 	xor    0x1a0(%rsp),%r8
    1b65:	00 
    1b66:	4c 33 9c 24 a8 01 00 	xor    0x1a8(%rsp),%r11
    1b6d:	00 
    1b6e:	48 33 9c 24 b0 01 00 	xor    0x1b0(%rsp),%rbx
    1b75:	00 
    1b76:	48 33 ac 24 b8 01 00 	xor    0x1b8(%rsp),%rbp
    1b7d:	00 
    1b7e:	4c 89 c2             	mov    %r8,%rdx
    1b81:	48 d1 c2             	rol    %rdx
    1b84:	48 31 ea             	xor    %rbp,%rdx
    1b87:	4c 89 de             	mov    %r11,%rsi
    1b8a:	48 d1 c6             	rol    %rsi
    1b8d:	4c 31 ce             	xor    %r9,%rsi
    1b90:	48 89 df             	mov    %rbx,%rdi
    1b93:	48 d1 c7             	rol    %rdi
    1b96:	4c 31 c7             	xor    %r8,%rdi
    1b99:	49 89 e8             	mov    %rbp,%r8
    1b9c:	49 d1 c0             	rol    %r8
    1b9f:	4d 31 d8             	xor    %r11,%r8
    1ba2:	49 d1 c1             	rol    %r9
    1ba5:	49 31 d9             	xor    %rbx,%r9
    1ba8:	4c 8b 9c 24 f8 00 00 	mov    0xf8(%rsp),%r11
    1baf:	00 
    1bb0:	49 31 d3             	xor    %rdx,%r11
    1bb3:	48 8b 9c 24 28 01 00 	mov    0x128(%rsp),%rbx
    1bba:	00 
    1bbb:	48 31 f3             	xor    %rsi,%rbx
    1bbe:	48 c1 c3 2c          	rol    $0x2c,%rbx
    1bc2:	48 8b ac 24 58 01 00 	mov    0x158(%rsp),%rbp
    1bc9:	00 
    1bca:	48 31 fd             	xor    %rdi,%rbp
    1bcd:	48 c1 c5 2b          	rol    $0x2b,%rbp
    1bd1:	4c 8b a4 24 88 01 00 	mov    0x188(%rsp),%r12
    1bd8:	00 
    1bd9:	4d 31 c4             	xor    %r8,%r12
    1bdc:	49 c1 c4 15          	rol    $0x15,%r12
    1be0:	4c 8b ac 24 b8 01 00 	mov    0x1b8(%rsp),%r13
    1be7:	00 
    1be8:	4d 31 cd             	xor    %r9,%r13
    1beb:	49 c1 c5 0e          	rol    $0xe,%r13
    1bef:	49 89 de             	mov    %rbx,%r14
    1bf2:	49 f7 d6             	not    %r14
    1bf5:	49 21 ee             	and    %rbp,%r14
    1bf8:	4d 31 de             	xor    %r11,%r14
    1bfb:	4d 31 d6             	xor    %r10,%r14
    1bfe:	4c 89 74 24 30       	mov    %r14,0x30(%rsp)
    1c03:	49 89 ea             	mov    %rbp,%r10
    1c06:	49 f7 d2             	not    %r10
    1c09:	4d 21 e2             	and    %r12,%r10
    1c0c:	49 31 da             	xor    %rbx,%r10
    1c0f:	4c 89 54 24 38       	mov    %r10,0x38(%rsp)
    1c14:	4d 89 e2             	mov    %r12,%r10
    1c17:	49 f7 d2             	not    %r10
    1c1a:	4d 21 ea             	and    %r13,%r10
    1c1d:	49 31 ea             	xor    %rbp,%r10
    1c20:	4c 89 54 24 40       	mov    %r10,0x40(%rsp)
    1c25:	4d 89 ea             	mov    %r13,%r10
    1c28:	49 f7 d2             	not    %r10
    1c2b:	4d 21 da             	and    %r11,%r10
    1c2e:	4d 31 e2             	xor    %r12,%r10
    1c31:	4c 89 54 24 48       	mov    %r10,0x48(%rsp)
    1c36:	49 f7 d3             	not    %r11
    1c39:	49 21 db             	and    %rbx,%r11
    1c3c:	4d 31 eb             	xor    %r13,%r11
    1c3f:	4c 89 5c 24 50       	mov    %r11,0x50(%rsp)
    1c44:	4c 8b 94 24 10 01 00 	mov    0x110(%rsp),%r10
    1c4b:	00 
    1c4c:	4d 31 c2             	xor    %r8,%r10
    1c4f:	49 c1 c2 1c          	rol    $0x1c,%r10
    1c53:	4c 8b 9c 24 40 01 00 	mov    0x140(%rsp),%r11
    1c5a:	00 
    1c5b:	4d 31 cb             	xor    %r9,%r11
    1c5e:	49 c1 c3 14          	rol    $0x14,%r11
    1c62:	4c 8b a4 24 48 01 00 	mov    0x148(%rsp),%r12
    1c69:	00 
    1c6a:	49 31 d4             	xor    %rdx,%r12
    1c6d:	49 c1 c4 03          	rol    $0x3,%r12
    1c71:	48 8b 9c 24 78 01 00 	mov    0x178(%rsp),%rbx
    1c78:	00 
    1c79:	48 31 f3             	xor    %rsi,%rbx
    1c7c:	48 c1 c3 2d          	rol    $0x2d,%rbx
    1c80:	48 8b ac 24 a8 01 00 	mov    0x1a8(%rsp),%rbp
    1c87:	00 
    1c88:	48 31 fd             	xor    %rdi,%rbp
    1c8b:	48 c1 c5 3d          	rol    $0x3d,%rbp
    1c8f:	4d 89 dd             	mov    %r11,%r13
    1c92:	49 f7 d5             	not    %r13
    1c95:	4d 21 e5             	and    %r12,%r13
    1c98:	4d 31 d5             	xor    %r10,%r13
    1c9b:	4c 89 6c 24 58       	mov    %r13,0x58(%rsp)
    1ca0:	4d 89 e5             	mov    %r12,%r13
    1ca3:	49 f7 d5             	not    %r13
    1ca6:	49 21 dd             	and    %rbx,%r13
    1ca9:	4d 31 dd             	xor    %r11,%r13
    1cac:	4c 89 6c 24 60       	mov    %r13,0x60(%rsp)
    1cb1:	49 89 dd             	mov    %rbx,%r13
    1cb4:	49 f7 d5             	not    %r13
    1cb7:	49 21 ed             	and    %rbp,%r13
    1cba:	4d 31 e5             	xor    %r12,%r13
    1cbd:	4c 89 6c 24 68       	mov    %r13,0x68(%rsp)
    1cc2:	49 89 ec             	mov    %rbp,%r12
    1cc5:	49 f7 d4             	not    %r12
    1cc8:	4d 21 d4             	and    %r10,%r12
    1ccb:	49 31 dc             	xor    %rbx,%r12
    1cce:	4c 89 64 24 70       	mov    %r12,0x70(%rsp)
    1cd3:	49 f7 d2             	not    %r10
    1cd6:	4d 21 da             	and    %r11,%r10
    1cd9:	49 31 ea             	xor    %rbp,%r10
    1cdc:	4c 89 54 24 78       	mov    %r10,0x78(%rsp)
    1ce1:	4c 8b 94 24 00 01 00 	mov    0x100(%rsp),%r10
    1ce8:	00 
    1ce9:	49 31 f2             	xor    %rsi,%r10
    1cec:	49 d1 c2             	rol    %r10
    1cef:	4c 8b 9c 24 30 01 00 	mov    0x130(%rsp),%r11
    1cf6:	00 
    1cf7:	49 31 fb             	xor    %rdi,%r11
    1cfa:	49 c1 c3 06          	rol    $0x6,%r11
    1cfe:	4c 8b a4 24 60 01 00 	mov    0x160(%rsp),%r12
    1d05:	00 
    1d06:	4d 31 c4             	xor    %r8,%r12
    1d09:	49 c1 c4 19          	rol    $0x19,%r12
    1d0d:	48 8b 9c 24 90 01 00 	mov    0x190(%rsp),%rbx
    1d14:	00 
    1d15:	4c 31 cb             	xor    %r9,%rbx
    1d18:	48 c1 c3 08          	rol    $0x8,%rbx
    1d1c:	48 8b ac 24 98 01 00 	mov    0x198(%rsp),%rbp
    1d23:	00 
    1d24:	48 31 d5             	xor    %rdx,%rbp
    1d27:	48 c1 c5 12          	rol    $0x12,%rbp
    1d2b:	4d 89 dd             	mov    %r11,%r13
    1d2e:	49 f7 d5             	not    %r13
    1d31:	4d 21 e5             	and    %r12,%r13
    1d34:	4d 31 d5             	xor    %r10,%r13
    1d37:	4c 89 ac 24 80 00 00 	mov    %r13,0x80(%rsp)
    1d3e:	00 
    1d3f:	4d 89 e5             	mov    %r12,%r13
    1d42:	49 f7 d5             	not    %r13
    1d45:	49 21 dd             	and    %rbx,%r13
    1d48:	4d 31 dd             	xor    %r11,%r13
    1d4b:	4c 89 ac 24 88 00 00 	mov    %r13,0x88(%rsp)
    1d52:	00 
    1d53:	49 89 dd             	mov    %rbx,%r13
    1d56:	49 f7 d5             	not    %r13
    1d59:	49 21 ed             	and    %rbp,%r13
    1d5c:	4d 31 e5             	xor    %r12,%r13
    1d5f:	4c 89 ac 24 90 00 00 	mov    %r13,0x90(%rsp)
    1d66:	00 
    1d67:	49 89 ec             	mov    %rbp,%r12
    1d6a:	49 f7 d4             	not    %r12
    1d6d:	4d 21 d4             	and    %r10,%r12
    1d70:	49 31 dc             	xor    %rbx,%r12
    1d73:	4c 89 a4 24 98 00 00 	mov    %r12,0x98(%rsp)
    1d7a:	00 
    1d7b:	49 f7 d2             	not    %r10
    1d7e:	4d 21 da             	and    %r11,%r10
    1d81:	49 31 ea             	xor    %rbp,%r10
    1d84:	4c 89 94 24 a0 00 00 	mov    %r10,0xa0(%rsp)
    1d8b:	00 
    1d8c:	4c 8b 94 24 18 01 00 	mov    0x118(%rsp),%r10
    1d93:	00 
    1d94:	4d 31 ca             	xor    %r9,%r10
    1d97:	49 c1 c2 1b          	rol    $0x1b,%r10
    1d9b:	4c 8b 9c 24 20 01 00 	mov    0x120(%rsp),%r11
    1da2:	00 
    1da3:	49 31 d3             	xor    %rdx,%r11
    1da6:	49 c1 c3 24          	rol    $0x24,%r11
    1daa:	4c 8b a4 24 50 01 00 	mov    0x150(%rsp),%r12
    1db1:	00 
    1db2:	49 31 f4             	xor    %rsi,%r12
    1db5:	49 c1 c4 0a          	rol    $0xa,%r12
    1db9:	48 8b 9c 24 80 01 00 	mov    0x180(%rsp),%rbx
    1dc0:	00 
    1dc1:	48 31 fb             	xor    %rdi,%rbx
    1dc4:	48 c1 c3 0f          	rol    $0xf,%rbx
    1dc8:	48 8b ac 24 b0 01 00 	mov    0x1b0(%rsp),%rbp
    1dcf:	00 
    1dd0:	4c 31 c5             	xor    %r8,%rbp
    1dd3:	48 c1 c5 38          	rol    $0x38,%rbp
    1dd7:	4d 89 dd             	mov    %r11,%r13
    1dda:	49 f7 d5             	not    %r13
    1ddd:	4d 21 e5             	and    %r12,%r13
    1de0:	4d 31 d5             	xor    %r10,%r13
    1de3:	4c 89 ac 24 a8 00 00 	mov    %r13,0xa8(%rsp)
    1dea:	00 
    1deb:	4d 89 e5             	mov    %r12,%r13
    1dee:	49 f7 d5             	not    %r13
    1df1:	49 21 dd             	and    %rbx,%r13
    1df4:	4d 31 dd             	xor    %r11,%r13
    1df7:	4c 89 ac 24 b0 00 00 	mov    %r13,0xb0(%rsp)
    1dfe:	00 
    1dff:	49 89 dd             	mov    %rbx,%r13
    1e02:	49 f7 d5             	not    %r13
    1e05:	49 21 ed             	and    %rbp,%r13
    1e08:	4d 31 e5             	xor    %r12,%r13
    1e0b:	4c 89 ac 24 b8 00 00 	mov    %r13,0xb8(%rsp)
    1e12:	00 
    1e13:	49 89 ec             	mov    %rbp,%r12
    1e16:	49 f7 d4             	not    %r12
    1e19:	4d 21 d4             	and    %r10,%r12
    1e1c:	49 31 dc             	xor    %rbx,%r12
    1e1f:	4c 89 a4 24 c0 00 00 	mov    %r12,0xc0(%rsp)
    1e26:	00 
    1e27:	49 f7 d2             	not    %r10
    1e2a:	4d 21 da             	and    %r11,%r10
    1e2d:	49 31 ea             	xor    %rbp,%r10
    1e30:	4c 89 94 24 c8 00 00 	mov    %r10,0xc8(%rsp)
    1e37:	00 
    1e38:	4c 8b 94 24 08 01 00 	mov    0x108(%rsp),%r10
    1e3f:	00 
    1e40:	49 31 fa             	xor    %rdi,%r10
    1e43:	49 c1 c2 3e          	rol    $0x3e,%r10
    1e47:	48 8b bc 24 38 01 00 	mov    0x138(%rsp),%rdi
    1e4e:	00 
    1e4f:	4c 31 c7             	xor    %r8,%rdi
    1e52:	48 c1 c7 37          	rol    $0x37,%rdi
    1e56:	4c 8b 84 24 68 01 00 	mov    0x168(%rsp),%r8
    1e5d:	00 
    1e5e:	4d 31 c8             	xor    %r9,%r8
    1e61:	49 c1 c0 27          	rol    $0x27,%r8
    1e65:	4c 8b 8c 24 70 01 00 	mov    0x170(%rsp),%r9
    1e6c:	00 
    1e6d:	49 31 d1             	xor    %rdx,%r9
    1e70:	49 c1 c1 29          	rol    $0x29,%r9
    1e74:	48 8b 94 24 a0 01 00 	mov    0x1a0(%rsp),%rdx
    1e7b:	00 
    1e7c:	48 31 f2             	xor    %rsi,%rdx
    1e7f:	48 c1 c2 02          	rol    $0x2,%rdx
    1e83:	48 89 fe             	mov    %rdi,%rsi
    1e86:	48 f7 d6             	not    %rsi
    1e89:	4c 21 c6             	and    %r8,%rsi
    1e8c:	4c 31 d6             	xor    %r10,%rsi
    1e8f:	48 89 b4 24 d0 00 00 	mov    %rsi,0xd0(%rsp)
    1e96:	00 
    1e97:	4c 89 c6             	mov    %r8,%rsi
    1e9a:	48 f7 d6             	not    %rsi
    1e9d:	4c 21 ce             	and    %r9,%rsi
    1ea0:	48 31 fe             	xor    %rdi,%rsi
    1ea3:	48 89 b4 24 d8 00 00 	mov    %rsi,0xd8(%rsp)
    1eaa:	00 
    1eab:	4c 89 ce             	mov    %r9,%rsi
    1eae:	48 f7 d6             	not    %rsi
    1eb1:	48 21 d6             	and    %rdx,%rsi
    1eb4:	4c 31 c6             	xor    %r8,%rsi
    1eb7:	48 89 b4 24 e0 00 00 	mov    %rsi,0xe0(%rsp)
    1ebe:	00 
    1ebf:	48 89 d6             	mov    %rdx,%rsi
    1ec2:	48 f7 d6             	not    %rsi
    1ec5:	4c 21 d6             	and    %r10,%rsi
    1ec8:	4c 31 ce             	xor    %r9,%rsi
    1ecb:	48 89 b4 24 e8 00 00 	mov    %rsi,0xe8(%rsp)
    1ed2:	00 
    1ed3:	49 f7 d2             	not    %r10
    1ed6:	49 21 fa             	and    %rdi,%r10
    1ed9:	49 31 d2             	xor    %rdx,%r10
    1edc:	4c 89 94 24 f0 00 00 	mov    %r10,0xf0(%rsp)
    1ee3:	00 
    1ee4:	48 83 c1 02          	add    $0x2,%rcx

0000000000001ee8 <L_keccak1600_ref$20>:
    1ee8:	48 83 f9 17          	cmp    $0x17,%rcx
    1eec:	0f 82 ab f7 ff ff    	jb     169d <L_keccak1600_ref$21>
    1ef2:	48 8b 74 24 18       	mov    0x18(%rsp),%rsi
    1ef7:	48 8b 54 24 20       	mov    0x20(%rsp),%rdx
    1efc:	48 8b 44 24 28       	mov    0x28(%rsp),%rax

0000000000001f01 <L_keccak1600_ref$18>:
    1f01:	48 39 c2             	cmp    %rax,%rdx
    1f04:	0f 83 4a f7 ff ff    	jae    1654 <L_keccak1600_ref$19>
    1f0a:	8a 8c 24 c0 01 00 00 	mov    0x1c0(%rsp),%cl
    1f11:	48 89 d7             	mov    %rdx,%rdi
    1f14:	48 c1 ef 03          	shr    $0x3,%rdi
    1f18:	49 c7 c0 00 00 00 00 	mov    $0x0,%r8
    1f1f:	eb 0c                	jmp    1f2d <L_keccak1600_ref$16>

0000000000001f21 <L_keccak1600_ref$17>:
    1f21:	4e 8b 0c c6          	mov    (%rsi,%r8,8),%r9
    1f25:	4e 31 4c c4 30       	xor    %r9,0x30(%rsp,%r8,8)
    1f2a:	49 ff c0             	inc    %r8

0000000000001f2d <L_keccak1600_ref$16>:
    1f2d:	49 39 f8             	cmp    %rdi,%r8
    1f30:	72 ef                	jb     1f21 <L_keccak1600_ref$17>
    1f32:	49 c1 e0 03          	shl    $0x3,%r8
    1f36:	eb 0c                	jmp    1f44 <L_keccak1600_ref$14>

0000000000001f38 <L_keccak1600_ref$15>:
    1f38:	42 8a 3c 06          	mov    (%rsi,%r8,1),%dil
    1f3c:	42 30 7c 04 30       	xor    %dil,0x30(%rsp,%r8,1)
    1f41:	49 ff c0             	inc    %r8

0000000000001f44 <L_keccak1600_ref$14>:
    1f44:	49 39 d0             	cmp    %rdx,%r8
    1f47:	72 ef                	jb     1f38 <L_keccak1600_ref$15>
    1f49:	42 30 4c 04 30       	xor    %cl,0x30(%rsp,%r8,1)
    1f4e:	48 89 c1             	mov    %rax,%rcx
    1f51:	48 83 c1 ff          	add    $0xffffffffffffffff,%rcx
    1f55:	80 74 0c 30 80       	xorb   $0x80,0x30(%rsp,%rcx,1)
    1f5a:	48 8b 54 24 10       	mov    0x10(%rsp),%rdx
    1f5f:	e9 ad 08 00 00       	jmp    2811 <L_keccak1600_ref$8>

0000000000001f64 <L_keccak1600_ref$9>:
    1f64:	48 89 54 24 10       	mov    %rdx,0x10(%rsp)
    1f69:	48 89 44 24 28       	mov    %rax,0x28(%rsp)
    1f6e:	48 8d 05 ab 72 00 00 	lea    0x72ab(%rip),%rax        # 9220 <G$KECCAK1600_RC>
    1f75:	48 c7 c1 00 00 00 00 	mov    $0x0,%rcx
    1f7c:	e9 4b 08 00 00       	jmp    27cc <L_keccak1600_ref$12>

0000000000001f81 <L_keccak1600_ref$13>:
    1f81:	4c 8b 14 c8          	mov    (%rax,%rcx,8),%r10
    1f85:	4c 8b 4c 24 30       	mov    0x30(%rsp),%r9
    1f8a:	4c 8b 44 24 38       	mov    0x38(%rsp),%r8
    1f8f:	4c 8b 5c 24 40       	mov    0x40(%rsp),%r11
    1f94:	48 8b 5c 24 48       	mov    0x48(%rsp),%rbx
    1f99:	48 8b 6c 24 50       	mov    0x50(%rsp),%rbp
    1f9e:	4c 33 4c 24 58       	xor    0x58(%rsp),%r9
    1fa3:	4c 33 44 24 60       	xor    0x60(%rsp),%r8
    1fa8:	4c 33 5c 24 68       	xor    0x68(%rsp),%r11
    1fad:	48 33 5c 24 70       	xor    0x70(%rsp),%rbx
    1fb2:	48 33 6c 24 78       	xor    0x78(%rsp),%rbp
    1fb7:	4c 33 8c 24 80 00 00 	xor    0x80(%rsp),%r9
    1fbe:	00 
    1fbf:	4c 33 84 24 88 00 00 	xor    0x88(%rsp),%r8
    1fc6:	00 
    1fc7:	4c 33 9c 24 90 00 00 	xor    0x90(%rsp),%r11
    1fce:	00 
    1fcf:	48 33 9c 24 98 00 00 	xor    0x98(%rsp),%rbx
    1fd6:	00 
    1fd7:	48 33 ac 24 a0 00 00 	xor    0xa0(%rsp),%rbp
    1fde:	00 
    1fdf:	4c 33 8c 24 a8 00 00 	xor    0xa8(%rsp),%r9
    1fe6:	00 
    1fe7:	4c 33 84 24 b0 00 00 	xor    0xb0(%rsp),%r8
    1fee:	00 
    1fef:	4c 33 9c 24 b8 00 00 	xor    0xb8(%rsp),%r11
    1ff6:	00 
    1ff7:	48 33 9c 24 c0 00 00 	xor    0xc0(%rsp),%rbx
    1ffe:	00 
    1fff:	48 33 ac 24 c8 00 00 	xor    0xc8(%rsp),%rbp
    2006:	00 
    2007:	4c 33 8c 24 d0 00 00 	xor    0xd0(%rsp),%r9
    200e:	00 
    200f:	4c 33 84 24 d8 00 00 	xor    0xd8(%rsp),%r8
    2016:	00 
    2017:	4c 33 9c 24 e0 00 00 	xor    0xe0(%rsp),%r11
    201e:	00 
    201f:	48 33 9c 24 e8 00 00 	xor    0xe8(%rsp),%rbx
    2026:	00 
    2027:	48 33 ac 24 f0 00 00 	xor    0xf0(%rsp),%rbp
    202e:	00 
    202f:	4c 89 c2             	mov    %r8,%rdx
    2032:	48 d1 c2             	rol    %rdx
    2035:	48 31 ea             	xor    %rbp,%rdx
    2038:	4c 89 de             	mov    %r11,%rsi
    203b:	48 d1 c6             	rol    %rsi
    203e:	4c 31 ce             	xor    %r9,%rsi
    2041:	48 89 df             	mov    %rbx,%rdi
    2044:	48 d1 c7             	rol    %rdi
    2047:	4c 31 c7             	xor    %r8,%rdi
    204a:	49 89 e8             	mov    %rbp,%r8
    204d:	49 d1 c0             	rol    %r8
    2050:	4d 31 d8             	xor    %r11,%r8
    2053:	49 d1 c1             	rol    %r9
    2056:	49 31 d9             	xor    %rbx,%r9
    2059:	4c 8b 5c 24 30       	mov    0x30(%rsp),%r11
    205e:	49 31 d3             	xor    %rdx,%r11
    2061:	48 8b 5c 24 60       	mov    0x60(%rsp),%rbx
    2066:	48 31 f3             	xor    %rsi,%rbx
    2069:	48 c1 c3 2c          	rol    $0x2c,%rbx
    206d:	48 8b ac 24 90 00 00 	mov    0x90(%rsp),%rbp
    2074:	00 
    2075:	48 31 fd             	xor    %rdi,%rbp
    2078:	48 c1 c5 2b          	rol    $0x2b,%rbp
    207c:	4c 8b a4 24 c0 00 00 	mov    0xc0(%rsp),%r12
    2083:	00 
    2084:	4d 31 c4             	xor    %r8,%r12
    2087:	49 c1 c4 15          	rol    $0x15,%r12
    208b:	4c 8b ac 24 f0 00 00 	mov    0xf0(%rsp),%r13
    2092:	00 
    2093:	4d 31 cd             	xor    %r9,%r13
    2096:	49 c1 c5 0e          	rol    $0xe,%r13
    209a:	49 89 de             	mov    %rbx,%r14
    209d:	49 f7 d6             	not    %r14
    20a0:	49 21 ee             	and    %rbp,%r14
    20a3:	4d 31 de             	xor    %r11,%r14
    20a6:	4d 31 d6             	xor    %r10,%r14
    20a9:	4c 89 b4 24 f8 00 00 	mov    %r14,0xf8(%rsp)
    20b0:	00 
    20b1:	49 89 ea             	mov    %rbp,%r10
    20b4:	49 f7 d2             	not    %r10
    20b7:	4d 21 e2             	and    %r12,%r10
    20ba:	49 31 da             	xor    %rbx,%r10
    20bd:	4c 89 94 24 00 01 00 	mov    %r10,0x100(%rsp)
    20c4:	00 
    20c5:	4d 89 e2             	mov    %r12,%r10
    20c8:	49 f7 d2             	not    %r10
    20cb:	4d 21 ea             	and    %r13,%r10
    20ce:	49 31 ea             	xor    %rbp,%r10
    20d1:	4c 89 94 24 08 01 00 	mov    %r10,0x108(%rsp)
    20d8:	00 
    20d9:	4d 89 ea             	mov    %r13,%r10
    20dc:	49 f7 d2             	not    %r10
    20df:	4d 21 da             	and    %r11,%r10
    20e2:	4d 31 e2             	xor    %r12,%r10
    20e5:	4c 89 94 24 10 01 00 	mov    %r10,0x110(%rsp)
    20ec:	00 
    20ed:	49 f7 d3             	not    %r11
    20f0:	49 21 db             	and    %rbx,%r11
    20f3:	4d 31 eb             	xor    %r13,%r11
    20f6:	4c 89 9c 24 18 01 00 	mov    %r11,0x118(%rsp)
    20fd:	00 
    20fe:	4c 8b 54 24 48       	mov    0x48(%rsp),%r10
    2103:	4d 31 c2             	xor    %r8,%r10
    2106:	49 c1 c2 1c          	rol    $0x1c,%r10
    210a:	4c 8b 5c 24 78       	mov    0x78(%rsp),%r11
    210f:	4d 31 cb             	xor    %r9,%r11
    2112:	49 c1 c3 14          	rol    $0x14,%r11
    2116:	4c 8b a4 24 80 00 00 	mov    0x80(%rsp),%r12
    211d:	00 
    211e:	49 31 d4             	xor    %rdx,%r12
    2121:	49 c1 c4 03          	rol    $0x3,%r12
    2125:	48 8b 9c 24 b0 00 00 	mov    0xb0(%rsp),%rbx
    212c:	00 
    212d:	48 31 f3             	xor    %rsi,%rbx
    2130:	48 c1 c3 2d          	rol    $0x2d,%rbx
    2134:	48 8b ac 24 e0 00 00 	mov    0xe0(%rsp),%rbp
    213b:	00 
    213c:	48 31 fd             	xor    %rdi,%rbp
    213f:	48 c1 c5 3d          	rol    $0x3d,%rbp
    2143:	4d 89 dd             	mov    %r11,%r13
    2146:	49 f7 d5             	not    %r13
    2149:	4d 21 e5             	and    %r12,%r13
    214c:	4d 31 d5             	xor    %r10,%r13
    214f:	4c 89 ac 24 20 01 00 	mov    %r13,0x120(%rsp)
    2156:	00 
    2157:	4d 89 e5             	mov    %r12,%r13
    215a:	49 f7 d5             	not    %r13
    215d:	49 21 dd             	and    %rbx,%r13
    2160:	4d 31 dd             	xor    %r11,%r13
    2163:	4c 89 ac 24 28 01 00 	mov    %r13,0x128(%rsp)
    216a:	00 
    216b:	49 89 dd             	mov    %rbx,%r13
    216e:	49 f7 d5             	not    %r13
    2171:	49 21 ed             	and    %rbp,%r13
    2174:	4d 31 e5             	xor    %r12,%r13
    2177:	4c 89 ac 24 30 01 00 	mov    %r13,0x130(%rsp)
    217e:	00 
    217f:	49 89 ec             	mov    %rbp,%r12
    2182:	49 f7 d4             	not    %r12
    2185:	4d 21 d4             	and    %r10,%r12
    2188:	49 31 dc             	xor    %rbx,%r12
    218b:	4c 89 a4 24 38 01 00 	mov    %r12,0x138(%rsp)
    2192:	00 
    2193:	49 f7 d2             	not    %r10
    2196:	4d 21 da             	and    %r11,%r10
    2199:	49 31 ea             	xor    %rbp,%r10
    219c:	4c 89 94 24 40 01 00 	mov    %r10,0x140(%rsp)
    21a3:	00 
    21a4:	4c 8b 54 24 38       	mov    0x38(%rsp),%r10
    21a9:	49 31 f2             	xor    %rsi,%r10
    21ac:	49 d1 c2             	rol    %r10
    21af:	4c 8b 5c 24 68       	mov    0x68(%rsp),%r11
    21b4:	49 31 fb             	xor    %rdi,%r11
    21b7:	49 c1 c3 06          	rol    $0x6,%r11
    21bb:	4c 8b a4 24 98 00 00 	mov    0x98(%rsp),%r12
    21c2:	00 
    21c3:	4d 31 c4             	xor    %r8,%r12
    21c6:	49 c1 c4 19          	rol    $0x19,%r12
    21ca:	48 8b 9c 24 c8 00 00 	mov    0xc8(%rsp),%rbx
    21d1:	00 
    21d2:	4c 31 cb             	xor    %r9,%rbx
    21d5:	48 c1 c3 08          	rol    $0x8,%rbx
    21d9:	48 8b ac 24 d0 00 00 	mov    0xd0(%rsp),%rbp
    21e0:	00 
    21e1:	48 31 d5             	xor    %rdx,%rbp
    21e4:	48 c1 c5 12          	rol    $0x12,%rbp
    21e8:	4d 89 dd             	mov    %r11,%r13
    21eb:	49 f7 d5             	not    %r13
    21ee:	4d 21 e5             	and    %r12,%r13
    21f1:	4d 31 d5             	xor    %r10,%r13
    21f4:	4c 89 ac 24 48 01 00 	mov    %r13,0x148(%rsp)
    21fb:	00 
    21fc:	4d 89 e5             	mov    %r12,%r13
    21ff:	49 f7 d5             	not    %r13
    2202:	49 21 dd             	and    %rbx,%r13
    2205:	4d 31 dd             	xor    %r11,%r13
    2208:	4c 89 ac 24 50 01 00 	mov    %r13,0x150(%rsp)
    220f:	00 
    2210:	49 89 dd             	mov    %rbx,%r13
    2213:	49 f7 d5             	not    %r13
    2216:	49 21 ed             	and    %rbp,%r13
    2219:	4d 31 e5             	xor    %r12,%r13
    221c:	4c 89 ac 24 58 01 00 	mov    %r13,0x158(%rsp)
    2223:	00 
    2224:	49 89 ec             	mov    %rbp,%r12
    2227:	49 f7 d4             	not    %r12
    222a:	4d 21 d4             	and    %r10,%r12
    222d:	49 31 dc             	xor    %rbx,%r12
    2230:	4c 89 a4 24 60 01 00 	mov    %r12,0x160(%rsp)
    2237:	00 
    2238:	49 f7 d2             	not    %r10
    223b:	4d 21 da             	and    %r11,%r10
    223e:	49 31 ea             	xor    %rbp,%r10
    2241:	4c 89 94 24 68 01 00 	mov    %r10,0x168(%rsp)
    2248:	00 
    2249:	4c 8b 54 24 50       	mov    0x50(%rsp),%r10
    224e:	4d 31 ca             	xor    %r9,%r10
    2251:	49 c1 c2 1b          	rol    $0x1b,%r10
    2255:	4c 8b 5c 24 58       	mov    0x58(%rsp),%r11
    225a:	49 31 d3             	xor    %rdx,%r11
    225d:	49 c1 c3 24          	rol    $0x24,%r11
    2261:	4c 8b a4 24 88 00 00 	mov    0x88(%rsp),%r12
    2268:	00 
    2269:	49 31 f4             	xor    %rsi,%r12
    226c:	49 c1 c4 0a          	rol    $0xa,%r12
    2270:	48 8b 9c 24 b8 00 00 	mov    0xb8(%rsp),%rbx
    2277:	00 
    2278:	48 31 fb             	xor    %rdi,%rbx
    227b:	48 c1 c3 0f          	rol    $0xf,%rbx
    227f:	48 8b ac 24 e8 00 00 	mov    0xe8(%rsp),%rbp
    2286:	00 
    2287:	4c 31 c5             	xor    %r8,%rbp
    228a:	48 c1 c5 38          	rol    $0x38,%rbp
    228e:	4d 89 dd             	mov    %r11,%r13
    2291:	49 f7 d5             	not    %r13
    2294:	4d 21 e5             	and    %r12,%r13
    2297:	4d 31 d5             	xor    %r10,%r13
    229a:	4c 89 ac 24 70 01 00 	mov    %r13,0x170(%rsp)
    22a1:	00 
    22a2:	4d 89 e5             	mov    %r12,%r13
    22a5:	49 f7 d5             	not    %r13
    22a8:	49 21 dd             	and    %rbx,%r13
    22ab:	4d 31 dd             	xor    %r11,%r13
    22ae:	4c 89 ac 24 78 01 00 	mov    %r13,0x178(%rsp)
    22b5:	00 
    22b6:	49 89 dd             	mov    %rbx,%r13
    22b9:	49 f7 d5             	not    %r13
    22bc:	49 21 ed             	and    %rbp,%r13
    22bf:	4d 31 e5             	xor    %r12,%r13
    22c2:	4c 89 ac 24 80 01 00 	mov    %r13,0x180(%rsp)
    22c9:	00 
    22ca:	49 89 ec             	mov    %rbp,%r12
    22cd:	49 f7 d4             	not    %r12
    22d0:	4d 21 d4             	and    %r10,%r12
    22d3:	49 31 dc             	xor    %rbx,%r12
    22d6:	4c 89 a4 24 88 01 00 	mov    %r12,0x188(%rsp)
    22dd:	00 
    22de:	49 f7 d2             	not    %r10
    22e1:	4d 21 da             	and    %r11,%r10
    22e4:	49 31 ea             	xor    %rbp,%r10
    22e7:	4c 89 94 24 90 01 00 	mov    %r10,0x190(%rsp)
    22ee:	00 
    22ef:	4c 8b 54 24 40       	mov    0x40(%rsp),%r10
    22f4:	49 31 fa             	xor    %rdi,%r10
    22f7:	49 c1 c2 3e          	rol    $0x3e,%r10
    22fb:	48 8b 7c 24 70       	mov    0x70(%rsp),%rdi
    2300:	4c 31 c7             	xor    %r8,%rdi
    2303:	48 c1 c7 37          	rol    $0x37,%rdi
    2307:	4c 8b 84 24 a0 00 00 	mov    0xa0(%rsp),%r8
    230e:	00 
    230f:	4d 31 c8             	xor    %r9,%r8
    2312:	49 c1 c0 27          	rol    $0x27,%r8
    2316:	4c 8b 8c 24 a8 00 00 	mov    0xa8(%rsp),%r9
    231d:	00 
    231e:	49 31 d1             	xor    %rdx,%r9
    2321:	49 c1 c1 29          	rol    $0x29,%r9
    2325:	48 8b 94 24 d8 00 00 	mov    0xd8(%rsp),%rdx
    232c:	00 
    232d:	48 31 f2             	xor    %rsi,%rdx
    2330:	48 c1 c2 02          	rol    $0x2,%rdx
    2334:	48 89 fe             	mov    %rdi,%rsi
    2337:	48 f7 d6             	not    %rsi
    233a:	4c 21 c6             	and    %r8,%rsi
    233d:	4c 31 d6             	xor    %r10,%rsi
    2340:	48 89 b4 24 98 01 00 	mov    %rsi,0x198(%rsp)
    2347:	00 
    2348:	4c 89 c6             	mov    %r8,%rsi
    234b:	48 f7 d6             	not    %rsi
    234e:	4c 21 ce             	and    %r9,%rsi
    2351:	48 31 fe             	xor    %rdi,%rsi
    2354:	48 89 b4 24 a0 01 00 	mov    %rsi,0x1a0(%rsp)
    235b:	00 
    235c:	4c 89 ce             	mov    %r9,%rsi
    235f:	48 f7 d6             	not    %rsi
    2362:	48 21 d6             	and    %rdx,%rsi
    2365:	4c 31 c6             	xor    %r8,%rsi
    2368:	48 89 b4 24 a8 01 00 	mov    %rsi,0x1a8(%rsp)
    236f:	00 
    2370:	48 89 d6             	mov    %rdx,%rsi
    2373:	48 f7 d6             	not    %rsi
    2376:	4c 21 d6             	and    %r10,%rsi
    2379:	4c 31 ce             	xor    %r9,%rsi
    237c:	48 89 b4 24 b0 01 00 	mov    %rsi,0x1b0(%rsp)
    2383:	00 
    2384:	49 f7 d2             	not    %r10
    2387:	49 21 fa             	and    %rdi,%r10
    238a:	49 31 d2             	xor    %rdx,%r10
    238d:	4c 89 94 24 b8 01 00 	mov    %r10,0x1b8(%rsp)
    2394:	00 
    2395:	4c 8b 54 c8 08       	mov    0x8(%rax,%rcx,8),%r10
    239a:	4c 8b 8c 24 f8 00 00 	mov    0xf8(%rsp),%r9
    23a1:	00 
    23a2:	4c 8b 84 24 00 01 00 	mov    0x100(%rsp),%r8
    23a9:	00 
    23aa:	4c 8b 9c 24 08 01 00 	mov    0x108(%rsp),%r11
    23b1:	00 
    23b2:	48 8b 9c 24 10 01 00 	mov    0x110(%rsp),%rbx
    23b9:	00 
    23ba:	48 8b ac 24 18 01 00 	mov    0x118(%rsp),%rbp
    23c1:	00 
    23c2:	4c 33 8c 24 20 01 00 	xor    0x120(%rsp),%r9
    23c9:	00 
    23ca:	4c 33 84 24 28 01 00 	xor    0x128(%rsp),%r8
    23d1:	00 
    23d2:	4c 33 9c 24 30 01 00 	xor    0x130(%rsp),%r11
    23d9:	00 
    23da:	48 33 9c 24 38 01 00 	xor    0x138(%rsp),%rbx
    23e1:	00 
    23e2:	48 33 ac 24 40 01 00 	xor    0x140(%rsp),%rbp
    23e9:	00 
    23ea:	4c 33 8c 24 48 01 00 	xor    0x148(%rsp),%r9
    23f1:	00 
    23f2:	4c 33 84 24 50 01 00 	xor    0x150(%rsp),%r8
    23f9:	00 
    23fa:	4c 33 9c 24 58 01 00 	xor    0x158(%rsp),%r11
    2401:	00 
    2402:	48 33 9c 24 60 01 00 	xor    0x160(%rsp),%rbx
    2409:	00 
    240a:	48 33 ac 24 68 01 00 	xor    0x168(%rsp),%rbp
    2411:	00 
    2412:	4c 33 8c 24 70 01 00 	xor    0x170(%rsp),%r9
    2419:	00 
    241a:	4c 33 84 24 78 01 00 	xor    0x178(%rsp),%r8
    2421:	00 
    2422:	4c 33 9c 24 80 01 00 	xor    0x180(%rsp),%r11
    2429:	00 
    242a:	48 33 9c 24 88 01 00 	xor    0x188(%rsp),%rbx
    2431:	00 
    2432:	48 33 ac 24 90 01 00 	xor    0x190(%rsp),%rbp
    2439:	00 
    243a:	4c 33 8c 24 98 01 00 	xor    0x198(%rsp),%r9
    2441:	00 
    2442:	4c 33 84 24 a0 01 00 	xor    0x1a0(%rsp),%r8
    2449:	00 
    244a:	4c 33 9c 24 a8 01 00 	xor    0x1a8(%rsp),%r11
    2451:	00 
    2452:	48 33 9c 24 b0 01 00 	xor    0x1b0(%rsp),%rbx
    2459:	00 
    245a:	48 33 ac 24 b8 01 00 	xor    0x1b8(%rsp),%rbp
    2461:	00 
    2462:	4c 89 c2             	mov    %r8,%rdx
    2465:	48 d1 c2             	rol    %rdx
    2468:	48 31 ea             	xor    %rbp,%rdx
    246b:	4c 89 de             	mov    %r11,%rsi
    246e:	48 d1 c6             	rol    %rsi
    2471:	4c 31 ce             	xor    %r9,%rsi
    2474:	48 89 df             	mov    %rbx,%rdi
    2477:	48 d1 c7             	rol    %rdi
    247a:	4c 31 c7             	xor    %r8,%rdi
    247d:	49 89 e8             	mov    %rbp,%r8
    2480:	49 d1 c0             	rol    %r8
    2483:	4d 31 d8             	xor    %r11,%r8
    2486:	49 d1 c1             	rol    %r9
    2489:	49 31 d9             	xor    %rbx,%r9
    248c:	4c 8b 9c 24 f8 00 00 	mov    0xf8(%rsp),%r11
    2493:	00 
    2494:	49 31 d3             	xor    %rdx,%r11
    2497:	48 8b 9c 24 28 01 00 	mov    0x128(%rsp),%rbx
    249e:	00 
    249f:	48 31 f3             	xor    %rsi,%rbx
    24a2:	48 c1 c3 2c          	rol    $0x2c,%rbx
    24a6:	48 8b ac 24 58 01 00 	mov    0x158(%rsp),%rbp
    24ad:	00 
    24ae:	48 31 fd             	xor    %rdi,%rbp
    24b1:	48 c1 c5 2b          	rol    $0x2b,%rbp
    24b5:	4c 8b a4 24 88 01 00 	mov    0x188(%rsp),%r12
    24bc:	00 
    24bd:	4d 31 c4             	xor    %r8,%r12
    24c0:	49 c1 c4 15          	rol    $0x15,%r12
    24c4:	4c 8b ac 24 b8 01 00 	mov    0x1b8(%rsp),%r13
    24cb:	00 
    24cc:	4d 31 cd             	xor    %r9,%r13
    24cf:	49 c1 c5 0e          	rol    $0xe,%r13
    24d3:	49 89 de             	mov    %rbx,%r14
    24d6:	49 f7 d6             	not    %r14
    24d9:	49 21 ee             	and    %rbp,%r14
    24dc:	4d 31 de             	xor    %r11,%r14
    24df:	4d 31 d6             	xor    %r10,%r14
    24e2:	4c 89 74 24 30       	mov    %r14,0x30(%rsp)
    24e7:	49 89 ea             	mov    %rbp,%r10
    24ea:	49 f7 d2             	not    %r10
    24ed:	4d 21 e2             	and    %r12,%r10
    24f0:	49 31 da             	xor    %rbx,%r10
    24f3:	4c 89 54 24 38       	mov    %r10,0x38(%rsp)
    24f8:	4d 89 e2             	mov    %r12,%r10
    24fb:	49 f7 d2             	not    %r10
    24fe:	4d 21 ea             	and    %r13,%r10
    2501:	49 31 ea             	xor    %rbp,%r10
    2504:	4c 89 54 24 40       	mov    %r10,0x40(%rsp)
    2509:	4d 89 ea             	mov    %r13,%r10
    250c:	49 f7 d2             	not    %r10
    250f:	4d 21 da             	and    %r11,%r10
    2512:	4d 31 e2             	xor    %r12,%r10
    2515:	4c 89 54 24 48       	mov    %r10,0x48(%rsp)
    251a:	49 f7 d3             	not    %r11
    251d:	49 21 db             	and    %rbx,%r11
    2520:	4d 31 eb             	xor    %r13,%r11
    2523:	4c 89 5c 24 50       	mov    %r11,0x50(%rsp)
    2528:	4c 8b 94 24 10 01 00 	mov    0x110(%rsp),%r10
    252f:	00 
    2530:	4d 31 c2             	xor    %r8,%r10
    2533:	49 c1 c2 1c          	rol    $0x1c,%r10
    2537:	4c 8b 9c 24 40 01 00 	mov    0x140(%rsp),%r11
    253e:	00 
    253f:	4d 31 cb             	xor    %r9,%r11
    2542:	49 c1 c3 14          	rol    $0x14,%r11
    2546:	4c 8b a4 24 48 01 00 	mov    0x148(%rsp),%r12
    254d:	00 
    254e:	49 31 d4             	xor    %rdx,%r12
    2551:	49 c1 c4 03          	rol    $0x3,%r12
    2555:	48 8b 9c 24 78 01 00 	mov    0x178(%rsp),%rbx
    255c:	00 
    255d:	48 31 f3             	xor    %rsi,%rbx
    2560:	48 c1 c3 2d          	rol    $0x2d,%rbx
    2564:	48 8b ac 24 a8 01 00 	mov    0x1a8(%rsp),%rbp
    256b:	00 
    256c:	48 31 fd             	xor    %rdi,%rbp
    256f:	48 c1 c5 3d          	rol    $0x3d,%rbp
    2573:	4d 89 dd             	mov    %r11,%r13
    2576:	49 f7 d5             	not    %r13
    2579:	4d 21 e5             	and    %r12,%r13
    257c:	4d 31 d5             	xor    %r10,%r13
    257f:	4c 89 6c 24 58       	mov    %r13,0x58(%rsp)
    2584:	4d 89 e5             	mov    %r12,%r13
    2587:	49 f7 d5             	not    %r13
    258a:	49 21 dd             	and    %rbx,%r13
    258d:	4d 31 dd             	xor    %r11,%r13
    2590:	4c 89 6c 24 60       	mov    %r13,0x60(%rsp)
    2595:	49 89 dd             	mov    %rbx,%r13
    2598:	49 f7 d5             	not    %r13
    259b:	49 21 ed             	and    %rbp,%r13
    259e:	4d 31 e5             	xor    %r12,%r13
    25a1:	4c 89 6c 24 68       	mov    %r13,0x68(%rsp)
    25a6:	49 89 ec             	mov    %rbp,%r12
    25a9:	49 f7 d4             	not    %r12
    25ac:	4d 21 d4             	and    %r10,%r12
    25af:	49 31 dc             	xor    %rbx,%r12
    25b2:	4c 89 64 24 70       	mov    %r12,0x70(%rsp)
    25b7:	49 f7 d2             	not    %r10
    25ba:	4d 21 da             	and    %r11,%r10
    25bd:	49 31 ea             	xor    %rbp,%r10
    25c0:	4c 89 54 24 78       	mov    %r10,0x78(%rsp)
    25c5:	4c 8b 94 24 00 01 00 	mov    0x100(%rsp),%r10
    25cc:	00 
    25cd:	49 31 f2             	xor    %rsi,%r10
    25d0:	49 d1 c2             	rol    %r10
    25d3:	4c 8b 9c 24 30 01 00 	mov    0x130(%rsp),%r11
    25da:	00 
    25db:	49 31 fb             	xor    %rdi,%r11
    25de:	49 c1 c3 06          	rol    $0x6,%r11
    25e2:	4c 8b a4 24 60 01 00 	mov    0x160(%rsp),%r12
    25e9:	00 
    25ea:	4d 31 c4             	xor    %r8,%r12
    25ed:	49 c1 c4 19          	rol    $0x19,%r12
    25f1:	48 8b 9c 24 90 01 00 	mov    0x190(%rsp),%rbx
    25f8:	00 
    25f9:	4c 31 cb             	xor    %r9,%rbx
    25fc:	48 c1 c3 08          	rol    $0x8,%rbx
    2600:	48 8b ac 24 98 01 00 	mov    0x198(%rsp),%rbp
    2607:	00 
    2608:	48 31 d5             	xor    %rdx,%rbp
    260b:	48 c1 c5 12          	rol    $0x12,%rbp
    260f:	4d 89 dd             	mov    %r11,%r13
    2612:	49 f7 d5             	not    %r13
    2615:	4d 21 e5             	and    %r12,%r13
    2618:	4d 31 d5             	xor    %r10,%r13
    261b:	4c 89 ac 24 80 00 00 	mov    %r13,0x80(%rsp)
    2622:	00 
    2623:	4d 89 e5             	mov    %r12,%r13
    2626:	49 f7 d5             	not    %r13
    2629:	49 21 dd             	and    %rbx,%r13
    262c:	4d 31 dd             	xor    %r11,%r13
    262f:	4c 89 ac 24 88 00 00 	mov    %r13,0x88(%rsp)
    2636:	00 
    2637:	49 89 dd             	mov    %rbx,%r13
    263a:	49 f7 d5             	not    %r13
    263d:	49 21 ed             	and    %rbp,%r13
    2640:	4d 31 e5             	xor    %r12,%r13
    2643:	4c 89 ac 24 90 00 00 	mov    %r13,0x90(%rsp)
    264a:	00 
    264b:	49 89 ec             	mov    %rbp,%r12
    264e:	49 f7 d4             	not    %r12
    2651:	4d 21 d4             	and    %r10,%r12
    2654:	49 31 dc             	xor    %rbx,%r12
    2657:	4c 89 a4 24 98 00 00 	mov    %r12,0x98(%rsp)
    265e:	00 
    265f:	49 f7 d2             	not    %r10
    2662:	4d 21 da             	and    %r11,%r10
    2665:	49 31 ea             	xor    %rbp,%r10
    2668:	4c 89 94 24 a0 00 00 	mov    %r10,0xa0(%rsp)
    266f:	00 
    2670:	4c 8b 94 24 18 01 00 	mov    0x118(%rsp),%r10
    2677:	00 
    2678:	4d 31 ca             	xor    %r9,%r10
    267b:	49 c1 c2 1b          	rol    $0x1b,%r10
    267f:	4c 8b 9c 24 20 01 00 	mov    0x120(%rsp),%r11
    2686:	00 
    2687:	49 31 d3             	xor    %rdx,%r11
    268a:	49 c1 c3 24          	rol    $0x24,%r11
    268e:	4c 8b a4 24 50 01 00 	mov    0x150(%rsp),%r12
    2695:	00 
    2696:	49 31 f4             	xor    %rsi,%r12
    2699:	49 c1 c4 0a          	rol    $0xa,%r12
    269d:	48 8b 9c 24 80 01 00 	mov    0x180(%rsp),%rbx
    26a4:	00 
    26a5:	48 31 fb             	xor    %rdi,%rbx
    26a8:	48 c1 c3 0f          	rol    $0xf,%rbx
    26ac:	48 8b ac 24 b0 01 00 	mov    0x1b0(%rsp),%rbp
    26b3:	00 
    26b4:	4c 31 c5             	xor    %r8,%rbp
    26b7:	48 c1 c5 38          	rol    $0x38,%rbp
    26bb:	4d 89 dd             	mov    %r11,%r13
    26be:	49 f7 d5             	not    %r13
    26c1:	4d 21 e5             	and    %r12,%r13
    26c4:	4d 31 d5             	xor    %r10,%r13
    26c7:	4c 89 ac 24 a8 00 00 	mov    %r13,0xa8(%rsp)
    26ce:	00 
    26cf:	4d 89 e5             	mov    %r12,%r13
    26d2:	49 f7 d5             	not    %r13
    26d5:	49 21 dd             	and    %rbx,%r13
    26d8:	4d 31 dd             	xor    %r11,%r13
    26db:	4c 89 ac 24 b0 00 00 	mov    %r13,0xb0(%rsp)
    26e2:	00 
    26e3:	49 89 dd             	mov    %rbx,%r13
    26e6:	49 f7 d5             	not    %r13
    26e9:	49 21 ed             	and    %rbp,%r13
    26ec:	4d 31 e5             	xor    %r12,%r13
    26ef:	4c 89 ac 24 b8 00 00 	mov    %r13,0xb8(%rsp)
    26f6:	00 
    26f7:	49 89 ec             	mov    %rbp,%r12
    26fa:	49 f7 d4             	not    %r12
    26fd:	4d 21 d4             	and    %r10,%r12
    2700:	49 31 dc             	xor    %rbx,%r12
    2703:	4c 89 a4 24 c0 00 00 	mov    %r12,0xc0(%rsp)
    270a:	00 
    270b:	49 f7 d2             	not    %r10
    270e:	4d 21 da             	and    %r11,%r10
    2711:	49 31 ea             	xor    %rbp,%r10
    2714:	4c 89 94 24 c8 00 00 	mov    %r10,0xc8(%rsp)
    271b:	00 
    271c:	4c 8b 94 24 08 01 00 	mov    0x108(%rsp),%r10
    2723:	00 
    2724:	49 31 fa             	xor    %rdi,%r10
    2727:	49 c1 c2 3e          	rol    $0x3e,%r10
    272b:	48 8b bc 24 38 01 00 	mov    0x138(%rsp),%rdi
    2732:	00 
    2733:	4c 31 c7             	xor    %r8,%rdi
    2736:	48 c1 c7 37          	rol    $0x37,%rdi
    273a:	4c 8b 84 24 68 01 00 	mov    0x168(%rsp),%r8
    2741:	00 
    2742:	4d 31 c8             	xor    %r9,%r8
    2745:	49 c1 c0 27          	rol    $0x27,%r8
    2749:	4c 8b 8c 24 70 01 00 	mov    0x170(%rsp),%r9
    2750:	00 
    2751:	49 31 d1             	xor    %rdx,%r9
    2754:	49 c1 c1 29          	rol    $0x29,%r9
    2758:	48 8b 94 24 a0 01 00 	mov    0x1a0(%rsp),%rdx
    275f:	00 
    2760:	48 31 f2             	xor    %rsi,%rdx
    2763:	48 c1 c2 02          	rol    $0x2,%rdx
    2767:	48 89 fe             	mov    %rdi,%rsi
    276a:	48 f7 d6             	not    %rsi
    276d:	4c 21 c6             	and    %r8,%rsi
    2770:	4c 31 d6             	xor    %r10,%rsi
    2773:	48 89 b4 24 d0 00 00 	mov    %rsi,0xd0(%rsp)
    277a:	00 
    277b:	4c 89 c6             	mov    %r8,%rsi
    277e:	48 f7 d6             	not    %rsi
    2781:	4c 21 ce             	and    %r9,%rsi
    2784:	48 31 fe             	xor    %rdi,%rsi
    2787:	48 89 b4 24 d8 00 00 	mov    %rsi,0xd8(%rsp)
    278e:	00 
    278f:	4c 89 ce             	mov    %r9,%rsi
    2792:	48 f7 d6             	not    %rsi
    2795:	48 21 d6             	and    %rdx,%rsi
    2798:	4c 31 c6             	xor    %r8,%rsi
    279b:	48 89 b4 24 e0 00 00 	mov    %rsi,0xe0(%rsp)
    27a2:	00 
    27a3:	48 89 d6             	mov    %rdx,%rsi
    27a6:	48 f7 d6             	not    %rsi
    27a9:	4c 21 d6             	and    %r10,%rsi
    27ac:	4c 31 ce             	xor    %r9,%rsi
    27af:	48 89 b4 24 e8 00 00 	mov    %rsi,0xe8(%rsp)
    27b6:	00 
    27b7:	49 f7 d2             	not    %r10
    27ba:	49 21 fa             	and    %rdi,%r10
    27bd:	49 31 d2             	xor    %rdx,%r10
    27c0:	4c 89 94 24 f0 00 00 	mov    %r10,0xf0(%rsp)
    27c7:	00 
    27c8:	48 83 c1 02          	add    $0x2,%rcx

00000000000027cc <L_keccak1600_ref$12>:
    27cc:	48 83 f9 17          	cmp    $0x17,%rcx
    27d0:	0f 82 ab f7 ff ff    	jb     1f81 <L_keccak1600_ref$13>
    27d6:	48 8b 4c 24 08       	mov    0x8(%rsp),%rcx
    27db:	48 8b 54 24 10       	mov    0x10(%rsp),%rdx
    27e0:	48 8b 44 24 28       	mov    0x28(%rsp),%rax
    27e5:	48 89 c6             	mov    %rax,%rsi
    27e8:	48 c1 ee 03          	shr    $0x3,%rsi
    27ec:	48 c7 c7 00 00 00 00 	mov    $0x0,%rdi
    27f3:	eb 0c                	jmp    2801 <L_keccak1600_ref$10>

00000000000027f5 <L_keccak1600_ref$11>:
    27f5:	4c 8b 44 fc 30       	mov    0x30(%rsp,%rdi,8),%r8
    27fa:	4c 89 04 f9          	mov    %r8,(%rcx,%rdi,8)
    27fe:	48 ff c7             	inc    %rdi

0000000000002801 <L_keccak1600_ref$10>:
    2801:	48 39 f7             	cmp    %rsi,%rdi
    2804:	72 ef                	jb     27f5 <L_keccak1600_ref$11>
    2806:	48 01 c1             	add    %rax,%rcx
    2809:	48 29 c2             	sub    %rax,%rdx
    280c:	48 89 4c 24 08       	mov    %rcx,0x8(%rsp)

0000000000002811 <L_keccak1600_ref$8>:
    2811:	48 39 c2             	cmp    %rax,%rdx
    2814:	0f 87 4a f7 ff ff    	ja     1f64 <L_keccak1600_ref$9>
    281a:	48 89 54 24 28       	mov    %rdx,0x28(%rsp)
    281f:	48 8d 05 fa 69 00 00 	lea    0x69fa(%rip),%rax        # 9220 <G$KECCAK1600_RC>
    2826:	48 c7 c1 00 00 00 00 	mov    $0x0,%rcx
    282d:	e9 4b 08 00 00       	jmp    307d <L_keccak1600_ref$6>

0000000000002832 <L_keccak1600_ref$7>:
    2832:	4c 8b 14 c8          	mov    (%rax,%rcx,8),%r10
    2836:	4c 8b 4c 24 30       	mov    0x30(%rsp),%r9
    283b:	4c 8b 44 24 38       	mov    0x38(%rsp),%r8
    2840:	4c 8b 5c 24 40       	mov    0x40(%rsp),%r11
    2845:	48 8b 5c 24 48       	mov    0x48(%rsp),%rbx
    284a:	48 8b 6c 24 50       	mov    0x50(%rsp),%rbp
    284f:	4c 33 4c 24 58       	xor    0x58(%rsp),%r9
    2854:	4c 33 44 24 60       	xor    0x60(%rsp),%r8
    2859:	4c 33 5c 24 68       	xor    0x68(%rsp),%r11
    285e:	48 33 5c 24 70       	xor    0x70(%rsp),%rbx
    2863:	48 33 6c 24 78       	xor    0x78(%rsp),%rbp
    2868:	4c 33 8c 24 80 00 00 	xor    0x80(%rsp),%r9
    286f:	00 
    2870:	4c 33 84 24 88 00 00 	xor    0x88(%rsp),%r8
    2877:	00 
    2878:	4c 33 9c 24 90 00 00 	xor    0x90(%rsp),%r11
    287f:	00 
    2880:	48 33 9c 24 98 00 00 	xor    0x98(%rsp),%rbx
    2887:	00 
    2888:	48 33 ac 24 a0 00 00 	xor    0xa0(%rsp),%rbp
    288f:	00 
    2890:	4c 33 8c 24 a8 00 00 	xor    0xa8(%rsp),%r9
    2897:	00 
    2898:	4c 33 84 24 b0 00 00 	xor    0xb0(%rsp),%r8
    289f:	00 
    28a0:	4c 33 9c 24 b8 00 00 	xor    0xb8(%rsp),%r11
    28a7:	00 
    28a8:	48 33 9c 24 c0 00 00 	xor    0xc0(%rsp),%rbx
    28af:	00 
    28b0:	48 33 ac 24 c8 00 00 	xor    0xc8(%rsp),%rbp
    28b7:	00 
    28b8:	4c 33 8c 24 d0 00 00 	xor    0xd0(%rsp),%r9
    28bf:	00 
    28c0:	4c 33 84 24 d8 00 00 	xor    0xd8(%rsp),%r8
    28c7:	00 
    28c8:	4c 33 9c 24 e0 00 00 	xor    0xe0(%rsp),%r11
    28cf:	00 
    28d0:	48 33 9c 24 e8 00 00 	xor    0xe8(%rsp),%rbx
    28d7:	00 
    28d8:	48 33 ac 24 f0 00 00 	xor    0xf0(%rsp),%rbp
    28df:	00 
    28e0:	4c 89 c2             	mov    %r8,%rdx
    28e3:	48 d1 c2             	rol    %rdx
    28e6:	48 31 ea             	xor    %rbp,%rdx
    28e9:	4c 89 de             	mov    %r11,%rsi
    28ec:	48 d1 c6             	rol    %rsi
    28ef:	4c 31 ce             	xor    %r9,%rsi
    28f2:	48 89 df             	mov    %rbx,%rdi
    28f5:	48 d1 c7             	rol    %rdi
    28f8:	4c 31 c7             	xor    %r8,%rdi
    28fb:	49 89 e8             	mov    %rbp,%r8
    28fe:	49 d1 c0             	rol    %r8
    2901:	4d 31 d8             	xor    %r11,%r8
    2904:	49 d1 c1             	rol    %r9
    2907:	49 31 d9             	xor    %rbx,%r9
    290a:	4c 8b 5c 24 30       	mov    0x30(%rsp),%r11
    290f:	49 31 d3             	xor    %rdx,%r11
    2912:	48 8b 5c 24 60       	mov    0x60(%rsp),%rbx
    2917:	48 31 f3             	xor    %rsi,%rbx
    291a:	48 c1 c3 2c          	rol    $0x2c,%rbx
    291e:	48 8b ac 24 90 00 00 	mov    0x90(%rsp),%rbp
    2925:	00 
    2926:	48 31 fd             	xor    %rdi,%rbp
    2929:	48 c1 c5 2b          	rol    $0x2b,%rbp
    292d:	4c 8b a4 24 c0 00 00 	mov    0xc0(%rsp),%r12
    2934:	00 
    2935:	4d 31 c4             	xor    %r8,%r12
    2938:	49 c1 c4 15          	rol    $0x15,%r12
    293c:	4c 8b ac 24 f0 00 00 	mov    0xf0(%rsp),%r13
    2943:	00 
    2944:	4d 31 cd             	xor    %r9,%r13
    2947:	49 c1 c5 0e          	rol    $0xe,%r13
    294b:	49 89 de             	mov    %rbx,%r14
    294e:	49 f7 d6             	not    %r14
    2951:	49 21 ee             	and    %rbp,%r14
    2954:	4d 31 de             	xor    %r11,%r14
    2957:	4d 31 d6             	xor    %r10,%r14
    295a:	4c 89 b4 24 f8 00 00 	mov    %r14,0xf8(%rsp)
    2961:	00 
    2962:	49 89 ea             	mov    %rbp,%r10
    2965:	49 f7 d2             	not    %r10
    2968:	4d 21 e2             	and    %r12,%r10
    296b:	49 31 da             	xor    %rbx,%r10
    296e:	4c 89 94 24 00 01 00 	mov    %r10,0x100(%rsp)
    2975:	00 
    2976:	4d 89 e2             	mov    %r12,%r10
    2979:	49 f7 d2             	not    %r10
    297c:	4d 21 ea             	and    %r13,%r10
    297f:	49 31 ea             	xor    %rbp,%r10
    2982:	4c 89 94 24 08 01 00 	mov    %r10,0x108(%rsp)
    2989:	00 
    298a:	4d 89 ea             	mov    %r13,%r10
    298d:	49 f7 d2             	not    %r10
    2990:	4d 21 da             	and    %r11,%r10
    2993:	4d 31 e2             	xor    %r12,%r10
    2996:	4c 89 94 24 10 01 00 	mov    %r10,0x110(%rsp)
    299d:	00 
    299e:	49 f7 d3             	not    %r11
    29a1:	49 21 db             	and    %rbx,%r11
    29a4:	4d 31 eb             	xor    %r13,%r11
    29a7:	4c 89 9c 24 18 01 00 	mov    %r11,0x118(%rsp)
    29ae:	00 
    29af:	4c 8b 54 24 48       	mov    0x48(%rsp),%r10
    29b4:	4d 31 c2             	xor    %r8,%r10
    29b7:	49 c1 c2 1c          	rol    $0x1c,%r10
    29bb:	4c 8b 5c 24 78       	mov    0x78(%rsp),%r11
    29c0:	4d 31 cb             	xor    %r9,%r11
    29c3:	49 c1 c3 14          	rol    $0x14,%r11
    29c7:	4c 8b a4 24 80 00 00 	mov    0x80(%rsp),%r12
    29ce:	00 
    29cf:	49 31 d4             	xor    %rdx,%r12
    29d2:	49 c1 c4 03          	rol    $0x3,%r12
    29d6:	48 8b 9c 24 b0 00 00 	mov    0xb0(%rsp),%rbx
    29dd:	00 
    29de:	48 31 f3             	xor    %rsi,%rbx
    29e1:	48 c1 c3 2d          	rol    $0x2d,%rbx
    29e5:	48 8b ac 24 e0 00 00 	mov    0xe0(%rsp),%rbp
    29ec:	00 
    29ed:	48 31 fd             	xor    %rdi,%rbp
    29f0:	48 c1 c5 3d          	rol    $0x3d,%rbp
    29f4:	4d 89 dd             	mov    %r11,%r13
    29f7:	49 f7 d5             	not    %r13
    29fa:	4d 21 e5             	and    %r12,%r13
    29fd:	4d 31 d5             	xor    %r10,%r13
    2a00:	4c 89 ac 24 20 01 00 	mov    %r13,0x120(%rsp)
    2a07:	00 
    2a08:	4d 89 e5             	mov    %r12,%r13
    2a0b:	49 f7 d5             	not    %r13
    2a0e:	49 21 dd             	and    %rbx,%r13
    2a11:	4d 31 dd             	xor    %r11,%r13
    2a14:	4c 89 ac 24 28 01 00 	mov    %r13,0x128(%rsp)
    2a1b:	00 
    2a1c:	49 89 dd             	mov    %rbx,%r13
    2a1f:	49 f7 d5             	not    %r13
    2a22:	49 21 ed             	and    %rbp,%r13
    2a25:	4d 31 e5             	xor    %r12,%r13
    2a28:	4c 89 ac 24 30 01 00 	mov    %r13,0x130(%rsp)
    2a2f:	00 
    2a30:	49 89 ec             	mov    %rbp,%r12
    2a33:	49 f7 d4             	not    %r12
    2a36:	4d 21 d4             	and    %r10,%r12
    2a39:	49 31 dc             	xor    %rbx,%r12
    2a3c:	4c 89 a4 24 38 01 00 	mov    %r12,0x138(%rsp)
    2a43:	00 
    2a44:	49 f7 d2             	not    %r10
    2a47:	4d 21 da             	and    %r11,%r10
    2a4a:	49 31 ea             	xor    %rbp,%r10
    2a4d:	4c 89 94 24 40 01 00 	mov    %r10,0x140(%rsp)
    2a54:	00 
    2a55:	4c 8b 54 24 38       	mov    0x38(%rsp),%r10
    2a5a:	49 31 f2             	xor    %rsi,%r10
    2a5d:	49 d1 c2             	rol    %r10
    2a60:	4c 8b 5c 24 68       	mov    0x68(%rsp),%r11
    2a65:	49 31 fb             	xor    %rdi,%r11
    2a68:	49 c1 c3 06          	rol    $0x6,%r11
    2a6c:	4c 8b a4 24 98 00 00 	mov    0x98(%rsp),%r12
    2a73:	00 
    2a74:	4d 31 c4             	xor    %r8,%r12
    2a77:	49 c1 c4 19          	rol    $0x19,%r12
    2a7b:	48 8b 9c 24 c8 00 00 	mov    0xc8(%rsp),%rbx
    2a82:	00 
    2a83:	4c 31 cb             	xor    %r9,%rbx
    2a86:	48 c1 c3 08          	rol    $0x8,%rbx
    2a8a:	48 8b ac 24 d0 00 00 	mov    0xd0(%rsp),%rbp
    2a91:	00 
    2a92:	48 31 d5             	xor    %rdx,%rbp
    2a95:	48 c1 c5 12          	rol    $0x12,%rbp
    2a99:	4d 89 dd             	mov    %r11,%r13
    2a9c:	49 f7 d5             	not    %r13
    2a9f:	4d 21 e5             	and    %r12,%r13
    2aa2:	4d 31 d5             	xor    %r10,%r13
    2aa5:	4c 89 ac 24 48 01 00 	mov    %r13,0x148(%rsp)
    2aac:	00 
    2aad:	4d 89 e5             	mov    %r12,%r13
    2ab0:	49 f7 d5             	not    %r13
    2ab3:	49 21 dd             	and    %rbx,%r13
    2ab6:	4d 31 dd             	xor    %r11,%r13
    2ab9:	4c 89 ac 24 50 01 00 	mov    %r13,0x150(%rsp)
    2ac0:	00 
    2ac1:	49 89 dd             	mov    %rbx,%r13
    2ac4:	49 f7 d5             	not    %r13
    2ac7:	49 21 ed             	and    %rbp,%r13
    2aca:	4d 31 e5             	xor    %r12,%r13
    2acd:	4c 89 ac 24 58 01 00 	mov    %r13,0x158(%rsp)
    2ad4:	00 
    2ad5:	49 89 ec             	mov    %rbp,%r12
    2ad8:	49 f7 d4             	not    %r12
    2adb:	4d 21 d4             	and    %r10,%r12
    2ade:	49 31 dc             	xor    %rbx,%r12
    2ae1:	4c 89 a4 24 60 01 00 	mov    %r12,0x160(%rsp)
    2ae8:	00 
    2ae9:	49 f7 d2             	not    %r10
    2aec:	4d 21 da             	and    %r11,%r10
    2aef:	49 31 ea             	xor    %rbp,%r10
    2af2:	4c 89 94 24 68 01 00 	mov    %r10,0x168(%rsp)
    2af9:	00 
    2afa:	4c 8b 54 24 50       	mov    0x50(%rsp),%r10
    2aff:	4d 31 ca             	xor    %r9,%r10
    2b02:	49 c1 c2 1b          	rol    $0x1b,%r10
    2b06:	4c 8b 5c 24 58       	mov    0x58(%rsp),%r11
    2b0b:	49 31 d3             	xor    %rdx,%r11
    2b0e:	49 c1 c3 24          	rol    $0x24,%r11
    2b12:	4c 8b a4 24 88 00 00 	mov    0x88(%rsp),%r12
    2b19:	00 
    2b1a:	49 31 f4             	xor    %rsi,%r12
    2b1d:	49 c1 c4 0a          	rol    $0xa,%r12
    2b21:	48 8b 9c 24 b8 00 00 	mov    0xb8(%rsp),%rbx
    2b28:	00 
    2b29:	48 31 fb             	xor    %rdi,%rbx
    2b2c:	48 c1 c3 0f          	rol    $0xf,%rbx
    2b30:	48 8b ac 24 e8 00 00 	mov    0xe8(%rsp),%rbp
    2b37:	00 
    2b38:	4c 31 c5             	xor    %r8,%rbp
    2b3b:	48 c1 c5 38          	rol    $0x38,%rbp
    2b3f:	4d 89 dd             	mov    %r11,%r13
    2b42:	49 f7 d5             	not    %r13
    2b45:	4d 21 e5             	and    %r12,%r13
    2b48:	4d 31 d5             	xor    %r10,%r13
    2b4b:	4c 89 ac 24 70 01 00 	mov    %r13,0x170(%rsp)
    2b52:	00 
    2b53:	4d 89 e5             	mov    %r12,%r13
    2b56:	49 f7 d5             	not    %r13
    2b59:	49 21 dd             	and    %rbx,%r13
    2b5c:	4d 31 dd             	xor    %r11,%r13
    2b5f:	4c 89 ac 24 78 01 00 	mov    %r13,0x178(%rsp)
    2b66:	00 
    2b67:	49 89 dd             	mov    %rbx,%r13
    2b6a:	49 f7 d5             	not    %r13
    2b6d:	49 21 ed             	and    %rbp,%r13
    2b70:	4d 31 e5             	xor    %r12,%r13
    2b73:	4c 89 ac 24 80 01 00 	mov    %r13,0x180(%rsp)
    2b7a:	00 
    2b7b:	49 89 ec             	mov    %rbp,%r12
    2b7e:	49 f7 d4             	not    %r12
    2b81:	4d 21 d4             	and    %r10,%r12
    2b84:	49 31 dc             	xor    %rbx,%r12
    2b87:	4c 89 a4 24 88 01 00 	mov    %r12,0x188(%rsp)
    2b8e:	00 
    2b8f:	49 f7 d2             	not    %r10
    2b92:	4d 21 da             	and    %r11,%r10
    2b95:	49 31 ea             	xor    %rbp,%r10
    2b98:	4c 89 94 24 90 01 00 	mov    %r10,0x190(%rsp)
    2b9f:	00 
    2ba0:	4c 8b 54 24 40       	mov    0x40(%rsp),%r10
    2ba5:	49 31 fa             	xor    %rdi,%r10
    2ba8:	49 c1 c2 3e          	rol    $0x3e,%r10
    2bac:	48 8b 7c 24 70       	mov    0x70(%rsp),%rdi
    2bb1:	4c 31 c7             	xor    %r8,%rdi
    2bb4:	48 c1 c7 37          	rol    $0x37,%rdi
    2bb8:	4c 8b 84 24 a0 00 00 	mov    0xa0(%rsp),%r8
    2bbf:	00 
    2bc0:	4d 31 c8             	xor    %r9,%r8
    2bc3:	49 c1 c0 27          	rol    $0x27,%r8
    2bc7:	4c 8b 8c 24 a8 00 00 	mov    0xa8(%rsp),%r9
    2bce:	00 
    2bcf:	49 31 d1             	xor    %rdx,%r9
    2bd2:	49 c1 c1 29          	rol    $0x29,%r9
    2bd6:	48 8b 94 24 d8 00 00 	mov    0xd8(%rsp),%rdx
    2bdd:	00 
    2bde:	48 31 f2             	xor    %rsi,%rdx
    2be1:	48 c1 c2 02          	rol    $0x2,%rdx
    2be5:	48 89 fe             	mov    %rdi,%rsi
    2be8:	48 f7 d6             	not    %rsi
    2beb:	4c 21 c6             	and    %r8,%rsi
    2bee:	4c 31 d6             	xor    %r10,%rsi
    2bf1:	48 89 b4 24 98 01 00 	mov    %rsi,0x198(%rsp)
    2bf8:	00 
    2bf9:	4c 89 c6             	mov    %r8,%rsi
    2bfc:	48 f7 d6             	not    %rsi
    2bff:	4c 21 ce             	and    %r9,%rsi
    2c02:	48 31 fe             	xor    %rdi,%rsi
    2c05:	48 89 b4 24 a0 01 00 	mov    %rsi,0x1a0(%rsp)
    2c0c:	00 
    2c0d:	4c 89 ce             	mov    %r9,%rsi
    2c10:	48 f7 d6             	not    %rsi
    2c13:	48 21 d6             	and    %rdx,%rsi
    2c16:	4c 31 c6             	xor    %r8,%rsi
    2c19:	48 89 b4 24 a8 01 00 	mov    %rsi,0x1a8(%rsp)
    2c20:	00 
    2c21:	48 89 d6             	mov    %rdx,%rsi
    2c24:	48 f7 d6             	not    %rsi
    2c27:	4c 21 d6             	and    %r10,%rsi
    2c2a:	4c 31 ce             	xor    %r9,%rsi
    2c2d:	48 89 b4 24 b0 01 00 	mov    %rsi,0x1b0(%rsp)
    2c34:	00 
    2c35:	49 f7 d2             	not    %r10
    2c38:	49 21 fa             	and    %rdi,%r10
    2c3b:	49 31 d2             	xor    %rdx,%r10
    2c3e:	4c 89 94 24 b8 01 00 	mov    %r10,0x1b8(%rsp)
    2c45:	00 
    2c46:	4c 8b 54 c8 08       	mov    0x8(%rax,%rcx,8),%r10
    2c4b:	4c 8b 8c 24 f8 00 00 	mov    0xf8(%rsp),%r9
    2c52:	00 
    2c53:	4c 8b 84 24 00 01 00 	mov    0x100(%rsp),%r8
    2c5a:	00 
    2c5b:	4c 8b 9c 24 08 01 00 	mov    0x108(%rsp),%r11
    2c62:	00 
    2c63:	48 8b 9c 24 10 01 00 	mov    0x110(%rsp),%rbx
    2c6a:	00 
    2c6b:	48 8b ac 24 18 01 00 	mov    0x118(%rsp),%rbp
    2c72:	00 
    2c73:	4c 33 8c 24 20 01 00 	xor    0x120(%rsp),%r9
    2c7a:	00 
    2c7b:	4c 33 84 24 28 01 00 	xor    0x128(%rsp),%r8
    2c82:	00 
    2c83:	4c 33 9c 24 30 01 00 	xor    0x130(%rsp),%r11
    2c8a:	00 
    2c8b:	48 33 9c 24 38 01 00 	xor    0x138(%rsp),%rbx
    2c92:	00 
    2c93:	48 33 ac 24 40 01 00 	xor    0x140(%rsp),%rbp
    2c9a:	00 
    2c9b:	4c 33 8c 24 48 01 00 	xor    0x148(%rsp),%r9
    2ca2:	00 
    2ca3:	4c 33 84 24 50 01 00 	xor    0x150(%rsp),%r8
    2caa:	00 
    2cab:	4c 33 9c 24 58 01 00 	xor    0x158(%rsp),%r11
    2cb2:	00 
    2cb3:	48 33 9c 24 60 01 00 	xor    0x160(%rsp),%rbx
    2cba:	00 
    2cbb:	48 33 ac 24 68 01 00 	xor    0x168(%rsp),%rbp
    2cc2:	00 
    2cc3:	4c 33 8c 24 70 01 00 	xor    0x170(%rsp),%r9
    2cca:	00 
    2ccb:	4c 33 84 24 78 01 00 	xor    0x178(%rsp),%r8
    2cd2:	00 
    2cd3:	4c 33 9c 24 80 01 00 	xor    0x180(%rsp),%r11
    2cda:	00 
    2cdb:	48 33 9c 24 88 01 00 	xor    0x188(%rsp),%rbx
    2ce2:	00 
    2ce3:	48 33 ac 24 90 01 00 	xor    0x190(%rsp),%rbp
    2cea:	00 
    2ceb:	4c 33 8c 24 98 01 00 	xor    0x198(%rsp),%r9
    2cf2:	00 
    2cf3:	4c 33 84 24 a0 01 00 	xor    0x1a0(%rsp),%r8
    2cfa:	00 
    2cfb:	4c 33 9c 24 a8 01 00 	xor    0x1a8(%rsp),%r11
    2d02:	00 
    2d03:	48 33 9c 24 b0 01 00 	xor    0x1b0(%rsp),%rbx
    2d0a:	00 
    2d0b:	48 33 ac 24 b8 01 00 	xor    0x1b8(%rsp),%rbp
    2d12:	00 
    2d13:	4c 89 c2             	mov    %r8,%rdx
    2d16:	48 d1 c2             	rol    %rdx
    2d19:	48 31 ea             	xor    %rbp,%rdx
    2d1c:	4c 89 de             	mov    %r11,%rsi
    2d1f:	48 d1 c6             	rol    %rsi
    2d22:	4c 31 ce             	xor    %r9,%rsi
    2d25:	48 89 df             	mov    %rbx,%rdi
    2d28:	48 d1 c7             	rol    %rdi
    2d2b:	4c 31 c7             	xor    %r8,%rdi
    2d2e:	49 89 e8             	mov    %rbp,%r8
    2d31:	49 d1 c0             	rol    %r8
    2d34:	4d 31 d8             	xor    %r11,%r8
    2d37:	49 d1 c1             	rol    %r9
    2d3a:	49 31 d9             	xor    %rbx,%r9
    2d3d:	4c 8b 9c 24 f8 00 00 	mov    0xf8(%rsp),%r11
    2d44:	00 
    2d45:	49 31 d3             	xor    %rdx,%r11
    2d48:	48 8b 9c 24 28 01 00 	mov    0x128(%rsp),%rbx
    2d4f:	00 
    2d50:	48 31 f3             	xor    %rsi,%rbx
    2d53:	48 c1 c3 2c          	rol    $0x2c,%rbx
    2d57:	48 8b ac 24 58 01 00 	mov    0x158(%rsp),%rbp
    2d5e:	00 
    2d5f:	48 31 fd             	xor    %rdi,%rbp
    2d62:	48 c1 c5 2b          	rol    $0x2b,%rbp
    2d66:	4c 8b a4 24 88 01 00 	mov    0x188(%rsp),%r12
    2d6d:	00 
    2d6e:	4d 31 c4             	xor    %r8,%r12
    2d71:	49 c1 c4 15          	rol    $0x15,%r12
    2d75:	4c 8b ac 24 b8 01 00 	mov    0x1b8(%rsp),%r13
    2d7c:	00 
    2d7d:	4d 31 cd             	xor    %r9,%r13
    2d80:	49 c1 c5 0e          	rol    $0xe,%r13
    2d84:	49 89 de             	mov    %rbx,%r14
    2d87:	49 f7 d6             	not    %r14
    2d8a:	49 21 ee             	and    %rbp,%r14
    2d8d:	4d 31 de             	xor    %r11,%r14
    2d90:	4d 31 d6             	xor    %r10,%r14
    2d93:	4c 89 74 24 30       	mov    %r14,0x30(%rsp)
    2d98:	49 89 ea             	mov    %rbp,%r10
    2d9b:	49 f7 d2             	not    %r10
    2d9e:	4d 21 e2             	and    %r12,%r10
    2da1:	49 31 da             	xor    %rbx,%r10
    2da4:	4c 89 54 24 38       	mov    %r10,0x38(%rsp)
    2da9:	4d 89 e2             	mov    %r12,%r10
    2dac:	49 f7 d2             	not    %r10
    2daf:	4d 21 ea             	and    %r13,%r10
    2db2:	49 31 ea             	xor    %rbp,%r10
    2db5:	4c 89 54 24 40       	mov    %r10,0x40(%rsp)
    2dba:	4d 89 ea             	mov    %r13,%r10
    2dbd:	49 f7 d2             	not    %r10
    2dc0:	4d 21 da             	and    %r11,%r10
    2dc3:	4d 31 e2             	xor    %r12,%r10
    2dc6:	4c 89 54 24 48       	mov    %r10,0x48(%rsp)
    2dcb:	49 f7 d3             	not    %r11
    2dce:	49 21 db             	and    %rbx,%r11
    2dd1:	4d 31 eb             	xor    %r13,%r11
    2dd4:	4c 89 5c 24 50       	mov    %r11,0x50(%rsp)
    2dd9:	4c 8b 94 24 10 01 00 	mov    0x110(%rsp),%r10
    2de0:	00 
    2de1:	4d 31 c2             	xor    %r8,%r10
    2de4:	49 c1 c2 1c          	rol    $0x1c,%r10
    2de8:	4c 8b 9c 24 40 01 00 	mov    0x140(%rsp),%r11
    2def:	00 
    2df0:	4d 31 cb             	xor    %r9,%r11
    2df3:	49 c1 c3 14          	rol    $0x14,%r11
    2df7:	4c 8b a4 24 48 01 00 	mov    0x148(%rsp),%r12
    2dfe:	00 
    2dff:	49 31 d4             	xor    %rdx,%r12
    2e02:	49 c1 c4 03          	rol    $0x3,%r12
    2e06:	48 8b 9c 24 78 01 00 	mov    0x178(%rsp),%rbx
    2e0d:	00 
    2e0e:	48 31 f3             	xor    %rsi,%rbx
    2e11:	48 c1 c3 2d          	rol    $0x2d,%rbx
    2e15:	48 8b ac 24 a8 01 00 	mov    0x1a8(%rsp),%rbp
    2e1c:	00 
    2e1d:	48 31 fd             	xor    %rdi,%rbp
    2e20:	48 c1 c5 3d          	rol    $0x3d,%rbp
    2e24:	4d 89 dd             	mov    %r11,%r13
    2e27:	49 f7 d5             	not    %r13
    2e2a:	4d 21 e5             	and    %r12,%r13
    2e2d:	4d 31 d5             	xor    %r10,%r13
    2e30:	4c 89 6c 24 58       	mov    %r13,0x58(%rsp)
    2e35:	4d 89 e5             	mov    %r12,%r13
    2e38:	49 f7 d5             	not    %r13
    2e3b:	49 21 dd             	and    %rbx,%r13
    2e3e:	4d 31 dd             	xor    %r11,%r13
    2e41:	4c 89 6c 24 60       	mov    %r13,0x60(%rsp)
    2e46:	49 89 dd             	mov    %rbx,%r13
    2e49:	49 f7 d5             	not    %r13
    2e4c:	49 21 ed             	and    %rbp,%r13
    2e4f:	4d 31 e5             	xor    %r12,%r13
    2e52:	4c 89 6c 24 68       	mov    %r13,0x68(%rsp)
    2e57:	49 89 ec             	mov    %rbp,%r12
    2e5a:	49 f7 d4             	not    %r12
    2e5d:	4d 21 d4             	and    %r10,%r12
    2e60:	49 31 dc             	xor    %rbx,%r12
    2e63:	4c 89 64 24 70       	mov    %r12,0x70(%rsp)
    2e68:	49 f7 d2             	not    %r10
    2e6b:	4d 21 da             	and    %r11,%r10
    2e6e:	49 31 ea             	xor    %rbp,%r10
    2e71:	4c 89 54 24 78       	mov    %r10,0x78(%rsp)
    2e76:	4c 8b 94 24 00 01 00 	mov    0x100(%rsp),%r10
    2e7d:	00 
    2e7e:	49 31 f2             	xor    %rsi,%r10
    2e81:	49 d1 c2             	rol    %r10
    2e84:	4c 8b 9c 24 30 01 00 	mov    0x130(%rsp),%r11
    2e8b:	00 
    2e8c:	49 31 fb             	xor    %rdi,%r11
    2e8f:	49 c1 c3 06          	rol    $0x6,%r11
    2e93:	4c 8b a4 24 60 01 00 	mov    0x160(%rsp),%r12
    2e9a:	00 
    2e9b:	4d 31 c4             	xor    %r8,%r12
    2e9e:	49 c1 c4 19          	rol    $0x19,%r12
    2ea2:	48 8b 9c 24 90 01 00 	mov    0x190(%rsp),%rbx
    2ea9:	00 
    2eaa:	4c 31 cb             	xor    %r9,%rbx
    2ead:	48 c1 c3 08          	rol    $0x8,%rbx
    2eb1:	48 8b ac 24 98 01 00 	mov    0x198(%rsp),%rbp
    2eb8:	00 
    2eb9:	48 31 d5             	xor    %rdx,%rbp
    2ebc:	48 c1 c5 12          	rol    $0x12,%rbp
    2ec0:	4d 89 dd             	mov    %r11,%r13
    2ec3:	49 f7 d5             	not    %r13
    2ec6:	4d 21 e5             	and    %r12,%r13
    2ec9:	4d 31 d5             	xor    %r10,%r13
    2ecc:	4c 89 ac 24 80 00 00 	mov    %r13,0x80(%rsp)
    2ed3:	00 
    2ed4:	4d 89 e5             	mov    %r12,%r13
    2ed7:	49 f7 d5             	not    %r13
    2eda:	49 21 dd             	and    %rbx,%r13
    2edd:	4d 31 dd             	xor    %r11,%r13
    2ee0:	4c 89 ac 24 88 00 00 	mov    %r13,0x88(%rsp)
    2ee7:	00 
    2ee8:	49 89 dd             	mov    %rbx,%r13
    2eeb:	49 f7 d5             	not    %r13
    2eee:	49 21 ed             	and    %rbp,%r13
    2ef1:	4d 31 e5             	xor    %r12,%r13
    2ef4:	4c 89 ac 24 90 00 00 	mov    %r13,0x90(%rsp)
    2efb:	00 
    2efc:	49 89 ec             	mov    %rbp,%r12
    2eff:	49 f7 d4             	not    %r12
    2f02:	4d 21 d4             	and    %r10,%r12
    2f05:	49 31 dc             	xor    %rbx,%r12
    2f08:	4c 89 a4 24 98 00 00 	mov    %r12,0x98(%rsp)
    2f0f:	00 
    2f10:	49 f7 d2             	not    %r10
    2f13:	4d 21 da             	and    %r11,%r10
    2f16:	49 31 ea             	xor    %rbp,%r10
    2f19:	4c 89 94 24 a0 00 00 	mov    %r10,0xa0(%rsp)
    2f20:	00 
    2f21:	4c 8b 94 24 18 01 00 	mov    0x118(%rsp),%r10
    2f28:	00 
    2f29:	4d 31 ca             	xor    %r9,%r10
    2f2c:	49 c1 c2 1b          	rol    $0x1b,%r10
    2f30:	4c 8b 9c 24 20 01 00 	mov    0x120(%rsp),%r11
    2f37:	00 
    2f38:	49 31 d3             	xor    %rdx,%r11
    2f3b:	49 c1 c3 24          	rol    $0x24,%r11
    2f3f:	4c 8b a4 24 50 01 00 	mov    0x150(%rsp),%r12
    2f46:	00 
    2f47:	49 31 f4             	xor    %rsi,%r12
    2f4a:	49 c1 c4 0a          	rol    $0xa,%r12
    2f4e:	48 8b 9c 24 80 01 00 	mov    0x180(%rsp),%rbx
    2f55:	00 
    2f56:	48 31 fb             	xor    %rdi,%rbx
    2f59:	48 c1 c3 0f          	rol    $0xf,%rbx
    2f5d:	48 8b ac 24 b0 01 00 	mov    0x1b0(%rsp),%rbp
    2f64:	00 
    2f65:	4c 31 c5             	xor    %r8,%rbp
    2f68:	48 c1 c5 38          	rol    $0x38,%rbp
    2f6c:	4d 89 dd             	mov    %r11,%r13
    2f6f:	49 f7 d5             	not    %r13
    2f72:	4d 21 e5             	and    %r12,%r13
    2f75:	4d 31 d5             	xor    %r10,%r13
    2f78:	4c 89 ac 24 a8 00 00 	mov    %r13,0xa8(%rsp)
    2f7f:	00 
    2f80:	4d 89 e5             	mov    %r12,%r13
    2f83:	49 f7 d5             	not    %r13
    2f86:	49 21 dd             	and    %rbx,%r13
    2f89:	4d 31 dd             	xor    %r11,%r13
    2f8c:	4c 89 ac 24 b0 00 00 	mov    %r13,0xb0(%rsp)
    2f93:	00 
    2f94:	49 89 dd             	mov    %rbx,%r13
    2f97:	49 f7 d5             	not    %r13
    2f9a:	49 21 ed             	and    %rbp,%r13
    2f9d:	4d 31 e5             	xor    %r12,%r13
    2fa0:	4c 89 ac 24 b8 00 00 	mov    %r13,0xb8(%rsp)
    2fa7:	00 
    2fa8:	49 89 ec             	mov    %rbp,%r12
    2fab:	49 f7 d4             	not    %r12
    2fae:	4d 21 d4             	and    %r10,%r12
    2fb1:	49 31 dc             	xor    %rbx,%r12
    2fb4:	4c 89 a4 24 c0 00 00 	mov    %r12,0xc0(%rsp)
    2fbb:	00 
    2fbc:	49 f7 d2             	not    %r10
    2fbf:	4d 21 da             	and    %r11,%r10
    2fc2:	49 31 ea             	xor    %rbp,%r10
    2fc5:	4c 89 94 24 c8 00 00 	mov    %r10,0xc8(%rsp)
    2fcc:	00 
    2fcd:	4c 8b 94 24 08 01 00 	mov    0x108(%rsp),%r10
    2fd4:	00 
    2fd5:	49 31 fa             	xor    %rdi,%r10
    2fd8:	49 c1 c2 3e          	rol    $0x3e,%r10
    2fdc:	48 8b bc 24 38 01 00 	mov    0x138(%rsp),%rdi
    2fe3:	00 
    2fe4:	4c 31 c7             	xor    %r8,%rdi
    2fe7:	48 c1 c7 37          	rol    $0x37,%rdi
    2feb:	4c 8b 84 24 68 01 00 	mov    0x168(%rsp),%r8
    2ff2:	00 
    2ff3:	4d 31 c8             	xor    %r9,%r8
    2ff6:	49 c1 c0 27          	rol    $0x27,%r8
    2ffa:	4c 8b 8c 24 70 01 00 	mov    0x170(%rsp),%r9
    3001:	00 
    3002:	49 31 d1             	xor    %rdx,%r9
    3005:	49 c1 c1 29          	rol    $0x29,%r9
    3009:	48 8b 94 24 a0 01 00 	mov    0x1a0(%rsp),%rdx
    3010:	00 
    3011:	48 31 f2             	xor    %rsi,%rdx
    3014:	48 c1 c2 02          	rol    $0x2,%rdx
    3018:	48 89 fe             	mov    %rdi,%rsi
    301b:	48 f7 d6             	not    %rsi
    301e:	4c 21 c6             	and    %r8,%rsi
    3021:	4c 31 d6             	xor    %r10,%rsi
    3024:	48 89 b4 24 d0 00 00 	mov    %rsi,0xd0(%rsp)
    302b:	00 
    302c:	4c 89 c6             	mov    %r8,%rsi
    302f:	48 f7 d6             	not    %rsi
    3032:	4c 21 ce             	and    %r9,%rsi
    3035:	48 31 fe             	xor    %rdi,%rsi
    3038:	48 89 b4 24 d8 00 00 	mov    %rsi,0xd8(%rsp)
    303f:	00 
    3040:	4c 89 ce             	mov    %r9,%rsi
    3043:	48 f7 d6             	not    %rsi
    3046:	48 21 d6             	and    %rdx,%rsi
    3049:	4c 31 c6             	xor    %r8,%rsi
    304c:	48 89 b4 24 e0 00 00 	mov    %rsi,0xe0(%rsp)
    3053:	00 
    3054:	48 89 d6             	mov    %rdx,%rsi
    3057:	48 f7 d6             	not    %rsi
    305a:	4c 21 d6             	and    %r10,%rsi
    305d:	4c 31 ce             	xor    %r9,%rsi
    3060:	48 89 b4 24 e8 00 00 	mov    %rsi,0xe8(%rsp)
    3067:	00 
    3068:	49 f7 d2             	not    %r10
    306b:	49 21 fa             	and    %rdi,%r10
    306e:	49 31 d2             	xor    %rdx,%r10
    3071:	4c 89 94 24 f0 00 00 	mov    %r10,0xf0(%rsp)
    3078:	00 
    3079:	48 83 c1 02          	add    $0x2,%rcx

000000000000307d <L_keccak1600_ref$6>:
    307d:	48 83 f9 17          	cmp    $0x17,%rcx
    3081:	0f 82 ab f7 ff ff    	jb     2832 <L_keccak1600_ref$7>
    3087:	48 8b 44 24 08       	mov    0x8(%rsp),%rax
    308c:	48 8b 4c 24 28       	mov    0x28(%rsp),%rcx
    3091:	48 89 ca             	mov    %rcx,%rdx
    3094:	48 c1 ea 03          	shr    $0x3,%rdx
    3098:	48 c7 c6 00 00 00 00 	mov    $0x0,%rsi
    309f:	eb 0c                	jmp    30ad <L_keccak1600_ref$4>

00000000000030a1 <L_keccak1600_ref$5>:
    30a1:	48 8b 7c f4 30       	mov    0x30(%rsp,%rsi,8),%rdi
    30a6:	48 89 3c f0          	mov    %rdi,(%rax,%rsi,8)
    30aa:	48 ff c6             	inc    %rsi

00000000000030ad <L_keccak1600_ref$4>:
    30ad:	48 39 d6             	cmp    %rdx,%rsi
    30b0:	72 ef                	jb     30a1 <L_keccak1600_ref$5>
    30b2:	48 c1 e6 03          	shl    $0x3,%rsi
    30b6:	eb 0a                	jmp    30c2 <L_keccak1600_ref$2>

00000000000030b8 <L_keccak1600_ref$3>:
    30b8:	8a 54 34 30          	mov    0x30(%rsp,%rsi,1),%dl
    30bc:	88 14 30             	mov    %dl,(%rax,%rsi,1)
    30bf:	48 ff c6             	inc    %rsi

00000000000030c2 <L_keccak1600_ref$2>:
    30c2:	48 39 ce             	cmp    %rcx,%rsi
    30c5:	72 f1                	jb     30b8 <L_keccak1600_ref$3>
    30c7:	c3                   	ret    
    30c8:	66 2e 0f 1f 84 00 00 	cs nopw 0x0(%rax,%rax,1)
    30cf:	00 00 00 
    30d2:	66 2e 0f 1f 84 00 00 	cs nopw 0x0(%rax,%rax,1)
    30d9:	00 00 00 
    30dc:	0f 1f 40 00          	nopl   0x0(%rax)

00000000000030e0 <_jade_hash_sha3_384_amd64>:
    30e0:	48 89 e0             	mov    %rsp,%rax
    30e3:	48 8d 64 24 d0       	lea    -0x30(%rsp),%rsp
    30e8:	48 83 e4 f8          	and    $0xfffffffffffffff8,%rsp
    30ec:	48 89 1c 24          	mov    %rbx,(%rsp)
    30f0:	48 89 6c 24 08       	mov    %rbp,0x8(%rsp)
    30f5:	4c 89 64 24 10       	mov    %r12,0x10(%rsp)
    30fa:	4c 89 6c 24 18       	mov    %r13,0x18(%rsp)
    30ff:	4c 89 74 24 20       	mov    %r14,0x20(%rsp)
    3104:	48 89 44 24 28       	mov    %rax,0x28(%rsp)
    3109:	48 c7 c1 30 00 00 00 	mov    $0x30,%rcx
    3110:	41 b0 06             	mov    $0x6,%r8b
    3113:	48 c7 c0 68 00 00 00 	mov    $0x68,%rax
    311a:	48 8d a4 24 40 fe ff 	lea    -0x1c0(%rsp),%rsp
    3121:	ff 
    3122:	e8 29 00 00 00       	call   3150 <L_keccak1600_ref$1>

0000000000003127 <Ljade_hash_sha3_384_amd64$1>:
    3127:	48 8d a4 24 c0 01 00 	lea    0x1c0(%rsp),%rsp
    312e:	00 
    312f:	48 31 c0             	xor    %rax,%rax
    3132:	48 8b 1c 24          	mov    (%rsp),%rbx
    3136:	48 8b 6c 24 08       	mov    0x8(%rsp),%rbp
    313b:	4c 8b 64 24 10       	mov    0x10(%rsp),%r12
    3140:	4c 8b 6c 24 18       	mov    0x18(%rsp),%r13
    3145:	4c 8b 74 24 20       	mov    0x20(%rsp),%r14
    314a:	48 8b 64 24 28       	mov    0x28(%rsp),%rsp
    314f:	c3                   	ret    

0000000000003150 <L_keccak1600_ref$1>:
    3150:	48 89 7c 24 08       	mov    %rdi,0x8(%rsp)
    3155:	48 89 4c 24 10       	mov    %rcx,0x10(%rsp)
    315a:	44 88 84 24 c0 01 00 	mov    %r8b,0x1c0(%rsp)
    3161:	00 
    3162:	48 31 c9             	xor    %rcx,%rcx
    3165:	48 89 4c 24 30       	mov    %rcx,0x30(%rsp)
    316a:	48 89 4c 24 38       	mov    %rcx,0x38(%rsp)
    316f:	48 89 4c 24 40       	mov    %rcx,0x40(%rsp)
    3174:	48 89 4c 24 48       	mov    %rcx,0x48(%rsp)
    3179:	48 89 4c 24 50       	mov    %rcx,0x50(%rsp)
    317e:	48 89 4c 24 58       	mov    %rcx,0x58(%rsp)
    3183:	48 89 4c 24 60       	mov    %rcx,0x60(%rsp)
    3188:	48 89 4c 24 68       	mov    %rcx,0x68(%rsp)
    318d:	48 89 4c 24 70       	mov    %rcx,0x70(%rsp)
    3192:	48 89 4c 24 78       	mov    %rcx,0x78(%rsp)
    3197:	48 89 8c 24 80 00 00 	mov    %rcx,0x80(%rsp)
    319e:	00 
    319f:	48 89 8c 24 88 00 00 	mov    %rcx,0x88(%rsp)
    31a6:	00 
    31a7:	48 89 8c 24 90 00 00 	mov    %rcx,0x90(%rsp)
    31ae:	00 
    31af:	48 89 8c 24 98 00 00 	mov    %rcx,0x98(%rsp)
    31b6:	00 
    31b7:	48 89 8c 24 a0 00 00 	mov    %rcx,0xa0(%rsp)
    31be:	00 
    31bf:	48 89 8c 24 a8 00 00 	mov    %rcx,0xa8(%rsp)
    31c6:	00 
    31c7:	48 89 8c 24 b0 00 00 	mov    %rcx,0xb0(%rsp)
    31ce:	00 
    31cf:	48 89 8c 24 b8 00 00 	mov    %rcx,0xb8(%rsp)
    31d6:	00 
    31d7:	48 89 8c 24 c0 00 00 	mov    %rcx,0xc0(%rsp)
    31de:	00 
    31df:	48 89 8c 24 c8 00 00 	mov    %rcx,0xc8(%rsp)
    31e6:	00 
    31e7:	48 89 8c 24 d0 00 00 	mov    %rcx,0xd0(%rsp)
    31ee:	00 
    31ef:	48 89 8c 24 d8 00 00 	mov    %rcx,0xd8(%rsp)
    31f6:	00 
    31f7:	48 89 8c 24 e0 00 00 	mov    %rcx,0xe0(%rsp)
    31fe:	00 
    31ff:	48 89 8c 24 e8 00 00 	mov    %rcx,0xe8(%rsp)
    3206:	00 
    3207:	48 89 8c 24 f0 00 00 	mov    %rcx,0xf0(%rsp)
    320e:	00 
    320f:	e9 ad 08 00 00       	jmp    3ac1 <L_keccak1600_ref$18>

0000000000003214 <L_keccak1600_ref$19>:
    3214:	48 89 c1             	mov    %rax,%rcx
    3217:	48 c1 e9 03          	shr    $0x3,%rcx
    321b:	48 c7 c7 00 00 00 00 	mov    $0x0,%rdi
    3222:	eb 0c                	jmp    3230 <L_keccak1600_ref$22>

0000000000003224 <L_keccak1600_ref$23>:
    3224:	4c 8b 04 fe          	mov    (%rsi,%rdi,8),%r8
    3228:	4c 31 44 fc 30       	xor    %r8,0x30(%rsp,%rdi,8)
    322d:	48 ff c7             	inc    %rdi

0000000000003230 <L_keccak1600_ref$22>:
    3230:	48 39 cf             	cmp    %rcx,%rdi
    3233:	72 ef                	jb     3224 <L_keccak1600_ref$23>
    3235:	48 01 c6             	add    %rax,%rsi
    3238:	48 29 c2             	sub    %rax,%rdx
    323b:	48 89 74 24 18       	mov    %rsi,0x18(%rsp)
    3240:	48 89 54 24 20       	mov    %rdx,0x20(%rsp)
    3245:	48 89 44 24 28       	mov    %rax,0x28(%rsp)
    324a:	48 8d 05 8f 60 00 00 	lea    0x608f(%rip),%rax        # 92e0 <G$KECCAK1600_RC>
    3251:	48 c7 c1 00 00 00 00 	mov    $0x0,%rcx
    3258:	e9 4b 08 00 00       	jmp    3aa8 <L_keccak1600_ref$20>

000000000000325d <L_keccak1600_ref$21>:
    325d:	4c 8b 14 c8          	mov    (%rax,%rcx,8),%r10
    3261:	4c 8b 4c 24 30       	mov    0x30(%rsp),%r9
    3266:	4c 8b 44 24 38       	mov    0x38(%rsp),%r8
    326b:	4c 8b 5c 24 40       	mov    0x40(%rsp),%r11
    3270:	48 8b 5c 24 48       	mov    0x48(%rsp),%rbx
    3275:	48 8b 6c 24 50       	mov    0x50(%rsp),%rbp
    327a:	4c 33 4c 24 58       	xor    0x58(%rsp),%r9
    327f:	4c 33 44 24 60       	xor    0x60(%rsp),%r8
    3284:	4c 33 5c 24 68       	xor    0x68(%rsp),%r11
    3289:	48 33 5c 24 70       	xor    0x70(%rsp),%rbx
    328e:	48 33 6c 24 78       	xor    0x78(%rsp),%rbp
    3293:	4c 33 8c 24 80 00 00 	xor    0x80(%rsp),%r9
    329a:	00 
    329b:	4c 33 84 24 88 00 00 	xor    0x88(%rsp),%r8
    32a2:	00 
    32a3:	4c 33 9c 24 90 00 00 	xor    0x90(%rsp),%r11
    32aa:	00 
    32ab:	48 33 9c 24 98 00 00 	xor    0x98(%rsp),%rbx
    32b2:	00 
    32b3:	48 33 ac 24 a0 00 00 	xor    0xa0(%rsp),%rbp
    32ba:	00 
    32bb:	4c 33 8c 24 a8 00 00 	xor    0xa8(%rsp),%r9
    32c2:	00 
    32c3:	4c 33 84 24 b0 00 00 	xor    0xb0(%rsp),%r8
    32ca:	00 
    32cb:	4c 33 9c 24 b8 00 00 	xor    0xb8(%rsp),%r11
    32d2:	00 
    32d3:	48 33 9c 24 c0 00 00 	xor    0xc0(%rsp),%rbx
    32da:	00 
    32db:	48 33 ac 24 c8 00 00 	xor    0xc8(%rsp),%rbp
    32e2:	00 
    32e3:	4c 33 8c 24 d0 00 00 	xor    0xd0(%rsp),%r9
    32ea:	00 
    32eb:	4c 33 84 24 d8 00 00 	xor    0xd8(%rsp),%r8
    32f2:	00 
    32f3:	4c 33 9c 24 e0 00 00 	xor    0xe0(%rsp),%r11
    32fa:	00 
    32fb:	48 33 9c 24 e8 00 00 	xor    0xe8(%rsp),%rbx
    3302:	00 
    3303:	48 33 ac 24 f0 00 00 	xor    0xf0(%rsp),%rbp
    330a:	00 
    330b:	4c 89 c2             	mov    %r8,%rdx
    330e:	48 d1 c2             	rol    %rdx
    3311:	48 31 ea             	xor    %rbp,%rdx
    3314:	4c 89 de             	mov    %r11,%rsi
    3317:	48 d1 c6             	rol    %rsi
    331a:	4c 31 ce             	xor    %r9,%rsi
    331d:	48 89 df             	mov    %rbx,%rdi
    3320:	48 d1 c7             	rol    %rdi
    3323:	4c 31 c7             	xor    %r8,%rdi
    3326:	49 89 e8             	mov    %rbp,%r8
    3329:	49 d1 c0             	rol    %r8
    332c:	4d 31 d8             	xor    %r11,%r8
    332f:	49 d1 c1             	rol    %r9
    3332:	49 31 d9             	xor    %rbx,%r9
    3335:	4c 8b 5c 24 30       	mov    0x30(%rsp),%r11
    333a:	49 31 d3             	xor    %rdx,%r11
    333d:	48 8b 5c 24 60       	mov    0x60(%rsp),%rbx
    3342:	48 31 f3             	xor    %rsi,%rbx
    3345:	48 c1 c3 2c          	rol    $0x2c,%rbx
    3349:	48 8b ac 24 90 00 00 	mov    0x90(%rsp),%rbp
    3350:	00 
    3351:	48 31 fd             	xor    %rdi,%rbp
    3354:	48 c1 c5 2b          	rol    $0x2b,%rbp
    3358:	4c 8b a4 24 c0 00 00 	mov    0xc0(%rsp),%r12
    335f:	00 
    3360:	4d 31 c4             	xor    %r8,%r12
    3363:	49 c1 c4 15          	rol    $0x15,%r12
    3367:	4c 8b ac 24 f0 00 00 	mov    0xf0(%rsp),%r13
    336e:	00 
    336f:	4d 31 cd             	xor    %r9,%r13
    3372:	49 c1 c5 0e          	rol    $0xe,%r13
    3376:	49 89 de             	mov    %rbx,%r14
    3379:	49 f7 d6             	not    %r14
    337c:	49 21 ee             	and    %rbp,%r14
    337f:	4d 31 de             	xor    %r11,%r14
    3382:	4d 31 d6             	xor    %r10,%r14
    3385:	4c 89 b4 24 f8 00 00 	mov    %r14,0xf8(%rsp)
    338c:	00 
    338d:	49 89 ea             	mov    %rbp,%r10
    3390:	49 f7 d2             	not    %r10
    3393:	4d 21 e2             	and    %r12,%r10
    3396:	49 31 da             	xor    %rbx,%r10
    3399:	4c 89 94 24 00 01 00 	mov    %r10,0x100(%rsp)
    33a0:	00 
    33a1:	4d 89 e2             	mov    %r12,%r10
    33a4:	49 f7 d2             	not    %r10
    33a7:	4d 21 ea             	and    %r13,%r10
    33aa:	49 31 ea             	xor    %rbp,%r10
    33ad:	4c 89 94 24 08 01 00 	mov    %r10,0x108(%rsp)
    33b4:	00 
    33b5:	4d 89 ea             	mov    %r13,%r10
    33b8:	49 f7 d2             	not    %r10
    33bb:	4d 21 da             	and    %r11,%r10
    33be:	4d 31 e2             	xor    %r12,%r10
    33c1:	4c 89 94 24 10 01 00 	mov    %r10,0x110(%rsp)
    33c8:	00 
    33c9:	49 f7 d3             	not    %r11
    33cc:	49 21 db             	and    %rbx,%r11
    33cf:	4d 31 eb             	xor    %r13,%r11
    33d2:	4c 89 9c 24 18 01 00 	mov    %r11,0x118(%rsp)
    33d9:	00 
    33da:	4c 8b 54 24 48       	mov    0x48(%rsp),%r10
    33df:	4d 31 c2             	xor    %r8,%r10
    33e2:	49 c1 c2 1c          	rol    $0x1c,%r10
    33e6:	4c 8b 5c 24 78       	mov    0x78(%rsp),%r11
    33eb:	4d 31 cb             	xor    %r9,%r11
    33ee:	49 c1 c3 14          	rol    $0x14,%r11
    33f2:	4c 8b a4 24 80 00 00 	mov    0x80(%rsp),%r12
    33f9:	00 
    33fa:	49 31 d4             	xor    %rdx,%r12
    33fd:	49 c1 c4 03          	rol    $0x3,%r12
    3401:	48 8b 9c 24 b0 00 00 	mov    0xb0(%rsp),%rbx
    3408:	00 
    3409:	48 31 f3             	xor    %rsi,%rbx
    340c:	48 c1 c3 2d          	rol    $0x2d,%rbx
    3410:	48 8b ac 24 e0 00 00 	mov    0xe0(%rsp),%rbp
    3417:	00 
    3418:	48 31 fd             	xor    %rdi,%rbp
    341b:	48 c1 c5 3d          	rol    $0x3d,%rbp
    341f:	4d 89 dd             	mov    %r11,%r13
    3422:	49 f7 d5             	not    %r13
    3425:	4d 21 e5             	and    %r12,%r13
    3428:	4d 31 d5             	xor    %r10,%r13
    342b:	4c 89 ac 24 20 01 00 	mov    %r13,0x120(%rsp)
    3432:	00 
    3433:	4d 89 e5             	mov    %r12,%r13
    3436:	49 f7 d5             	not    %r13
    3439:	49 21 dd             	and    %rbx,%r13
    343c:	4d 31 dd             	xor    %r11,%r13
    343f:	4c 89 ac 24 28 01 00 	mov    %r13,0x128(%rsp)
    3446:	00 
    3447:	49 89 dd             	mov    %rbx,%r13
    344a:	49 f7 d5             	not    %r13
    344d:	49 21 ed             	and    %rbp,%r13
    3450:	4d 31 e5             	xor    %r12,%r13
    3453:	4c 89 ac 24 30 01 00 	mov    %r13,0x130(%rsp)
    345a:	00 
    345b:	49 89 ec             	mov    %rbp,%r12
    345e:	49 f7 d4             	not    %r12
    3461:	4d 21 d4             	and    %r10,%r12
    3464:	49 31 dc             	xor    %rbx,%r12
    3467:	4c 89 a4 24 38 01 00 	mov    %r12,0x138(%rsp)
    346e:	00 
    346f:	49 f7 d2             	not    %r10
    3472:	4d 21 da             	and    %r11,%r10
    3475:	49 31 ea             	xor    %rbp,%r10
    3478:	4c 89 94 24 40 01 00 	mov    %r10,0x140(%rsp)
    347f:	00 
    3480:	4c 8b 54 24 38       	mov    0x38(%rsp),%r10
    3485:	49 31 f2             	xor    %rsi,%r10
    3488:	49 d1 c2             	rol    %r10
    348b:	4c 8b 5c 24 68       	mov    0x68(%rsp),%r11
    3490:	49 31 fb             	xor    %rdi,%r11
    3493:	49 c1 c3 06          	rol    $0x6,%r11
    3497:	4c 8b a4 24 98 00 00 	mov    0x98(%rsp),%r12
    349e:	00 
    349f:	4d 31 c4             	xor    %r8,%r12
    34a2:	49 c1 c4 19          	rol    $0x19,%r12
    34a6:	48 8b 9c 24 c8 00 00 	mov    0xc8(%rsp),%rbx
    34ad:	00 
    34ae:	4c 31 cb             	xor    %r9,%rbx
    34b1:	48 c1 c3 08          	rol    $0x8,%rbx
    34b5:	48 8b ac 24 d0 00 00 	mov    0xd0(%rsp),%rbp
    34bc:	00 
    34bd:	48 31 d5             	xor    %rdx,%rbp
    34c0:	48 c1 c5 12          	rol    $0x12,%rbp
    34c4:	4d 89 dd             	mov    %r11,%r13
    34c7:	49 f7 d5             	not    %r13
    34ca:	4d 21 e5             	and    %r12,%r13
    34cd:	4d 31 d5             	xor    %r10,%r13
    34d0:	4c 89 ac 24 48 01 00 	mov    %r13,0x148(%rsp)
    34d7:	00 
    34d8:	4d 89 e5             	mov    %r12,%r13
    34db:	49 f7 d5             	not    %r13
    34de:	49 21 dd             	and    %rbx,%r13
    34e1:	4d 31 dd             	xor    %r11,%r13
    34e4:	4c 89 ac 24 50 01 00 	mov    %r13,0x150(%rsp)
    34eb:	00 
    34ec:	49 89 dd             	mov    %rbx,%r13
    34ef:	49 f7 d5             	not    %r13
    34f2:	49 21 ed             	and    %rbp,%r13
    34f5:	4d 31 e5             	xor    %r12,%r13
    34f8:	4c 89 ac 24 58 01 00 	mov    %r13,0x158(%rsp)
    34ff:	00 
    3500:	49 89 ec             	mov    %rbp,%r12
    3503:	49 f7 d4             	not    %r12
    3506:	4d 21 d4             	and    %r10,%r12
    3509:	49 31 dc             	xor    %rbx,%r12
    350c:	4c 89 a4 24 60 01 00 	mov    %r12,0x160(%rsp)
    3513:	00 
    3514:	49 f7 d2             	not    %r10
    3517:	4d 21 da             	and    %r11,%r10
    351a:	49 31 ea             	xor    %rbp,%r10
    351d:	4c 89 94 24 68 01 00 	mov    %r10,0x168(%rsp)
    3524:	00 
    3525:	4c 8b 54 24 50       	mov    0x50(%rsp),%r10
    352a:	4d 31 ca             	xor    %r9,%r10
    352d:	49 c1 c2 1b          	rol    $0x1b,%r10
    3531:	4c 8b 5c 24 58       	mov    0x58(%rsp),%r11
    3536:	49 31 d3             	xor    %rdx,%r11
    3539:	49 c1 c3 24          	rol    $0x24,%r11
    353d:	4c 8b a4 24 88 00 00 	mov    0x88(%rsp),%r12
    3544:	00 
    3545:	49 31 f4             	xor    %rsi,%r12
    3548:	49 c1 c4 0a          	rol    $0xa,%r12
    354c:	48 8b 9c 24 b8 00 00 	mov    0xb8(%rsp),%rbx
    3553:	00 
    3554:	48 31 fb             	xor    %rdi,%rbx
    3557:	48 c1 c3 0f          	rol    $0xf,%rbx
    355b:	48 8b ac 24 e8 00 00 	mov    0xe8(%rsp),%rbp
    3562:	00 
    3563:	4c 31 c5             	xor    %r8,%rbp
    3566:	48 c1 c5 38          	rol    $0x38,%rbp
    356a:	4d 89 dd             	mov    %r11,%r13
    356d:	49 f7 d5             	not    %r13
    3570:	4d 21 e5             	and    %r12,%r13
    3573:	4d 31 d5             	xor    %r10,%r13
    3576:	4c 89 ac 24 70 01 00 	mov    %r13,0x170(%rsp)
    357d:	00 
    357e:	4d 89 e5             	mov    %r12,%r13
    3581:	49 f7 d5             	not    %r13
    3584:	49 21 dd             	and    %rbx,%r13
    3587:	4d 31 dd             	xor    %r11,%r13
    358a:	4c 89 ac 24 78 01 00 	mov    %r13,0x178(%rsp)
    3591:	00 
    3592:	49 89 dd             	mov    %rbx,%r13
    3595:	49 f7 d5             	not    %r13
    3598:	49 21 ed             	and    %rbp,%r13
    359b:	4d 31 e5             	xor    %r12,%r13
    359e:	4c 89 ac 24 80 01 00 	mov    %r13,0x180(%rsp)
    35a5:	00 
    35a6:	49 89 ec             	mov    %rbp,%r12
    35a9:	49 f7 d4             	not    %r12
    35ac:	4d 21 d4             	and    %r10,%r12
    35af:	49 31 dc             	xor    %rbx,%r12
    35b2:	4c 89 a4 24 88 01 00 	mov    %r12,0x188(%rsp)
    35b9:	00 
    35ba:	49 f7 d2             	not    %r10
    35bd:	4d 21 da             	and    %r11,%r10
    35c0:	49 31 ea             	xor    %rbp,%r10
    35c3:	4c 89 94 24 90 01 00 	mov    %r10,0x190(%rsp)
    35ca:	00 
    35cb:	4c 8b 54 24 40       	mov    0x40(%rsp),%r10
    35d0:	49 31 fa             	xor    %rdi,%r10
    35d3:	49 c1 c2 3e          	rol    $0x3e,%r10
    35d7:	48 8b 7c 24 70       	mov    0x70(%rsp),%rdi
    35dc:	4c 31 c7             	xor    %r8,%rdi
    35df:	48 c1 c7 37          	rol    $0x37,%rdi
    35e3:	4c 8b 84 24 a0 00 00 	mov    0xa0(%rsp),%r8
    35ea:	00 
    35eb:	4d 31 c8             	xor    %r9,%r8
    35ee:	49 c1 c0 27          	rol    $0x27,%r8
    35f2:	4c 8b 8c 24 a8 00 00 	mov    0xa8(%rsp),%r9
    35f9:	00 
    35fa:	49 31 d1             	xor    %rdx,%r9
    35fd:	49 c1 c1 29          	rol    $0x29,%r9
    3601:	48 8b 94 24 d8 00 00 	mov    0xd8(%rsp),%rdx
    3608:	00 
    3609:	48 31 f2             	xor    %rsi,%rdx
    360c:	48 c1 c2 02          	rol    $0x2,%rdx
    3610:	48 89 fe             	mov    %rdi,%rsi
    3613:	48 f7 d6             	not    %rsi
    3616:	4c 21 c6             	and    %r8,%rsi
    3619:	4c 31 d6             	xor    %r10,%rsi
    361c:	48 89 b4 24 98 01 00 	mov    %rsi,0x198(%rsp)
    3623:	00 
    3624:	4c 89 c6             	mov    %r8,%rsi
    3627:	48 f7 d6             	not    %rsi
    362a:	4c 21 ce             	and    %r9,%rsi
    362d:	48 31 fe             	xor    %rdi,%rsi
    3630:	48 89 b4 24 a0 01 00 	mov    %rsi,0x1a0(%rsp)
    3637:	00 
    3638:	4c 89 ce             	mov    %r9,%rsi
    363b:	48 f7 d6             	not    %rsi
    363e:	48 21 d6             	and    %rdx,%rsi
    3641:	4c 31 c6             	xor    %r8,%rsi
    3644:	48 89 b4 24 a8 01 00 	mov    %rsi,0x1a8(%rsp)
    364b:	00 
    364c:	48 89 d6             	mov    %rdx,%rsi
    364f:	48 f7 d6             	not    %rsi
    3652:	4c 21 d6             	and    %r10,%rsi
    3655:	4c 31 ce             	xor    %r9,%rsi
    3658:	48 89 b4 24 b0 01 00 	mov    %rsi,0x1b0(%rsp)
    365f:	00 
    3660:	49 f7 d2             	not    %r10
    3663:	49 21 fa             	and    %rdi,%r10
    3666:	49 31 d2             	xor    %rdx,%r10
    3669:	4c 89 94 24 b8 01 00 	mov    %r10,0x1b8(%rsp)
    3670:	00 
    3671:	4c 8b 54 c8 08       	mov    0x8(%rax,%rcx,8),%r10
    3676:	4c 8b 8c 24 f8 00 00 	mov    0xf8(%rsp),%r9
    367d:	00 
    367e:	4c 8b 84 24 00 01 00 	mov    0x100(%rsp),%r8
    3685:	00 
    3686:	4c 8b 9c 24 08 01 00 	mov    0x108(%rsp),%r11
    368d:	00 
    368e:	48 8b 9c 24 10 01 00 	mov    0x110(%rsp),%rbx
    3695:	00 
    3696:	48 8b ac 24 18 01 00 	mov    0x118(%rsp),%rbp
    369d:	00 
    369e:	4c 33 8c 24 20 01 00 	xor    0x120(%rsp),%r9
    36a5:	00 
    36a6:	4c 33 84 24 28 01 00 	xor    0x128(%rsp),%r8
    36ad:	00 
    36ae:	4c 33 9c 24 30 01 00 	xor    0x130(%rsp),%r11
    36b5:	00 
    36b6:	48 33 9c 24 38 01 00 	xor    0x138(%rsp),%rbx
    36bd:	00 
    36be:	48 33 ac 24 40 01 00 	xor    0x140(%rsp),%rbp
    36c5:	00 
    36c6:	4c 33 8c 24 48 01 00 	xor    0x148(%rsp),%r9
    36cd:	00 
    36ce:	4c 33 84 24 50 01 00 	xor    0x150(%rsp),%r8
    36d5:	00 
    36d6:	4c 33 9c 24 58 01 00 	xor    0x158(%rsp),%r11
    36dd:	00 
    36de:	48 33 9c 24 60 01 00 	xor    0x160(%rsp),%rbx
    36e5:	00 
    36e6:	48 33 ac 24 68 01 00 	xor    0x168(%rsp),%rbp
    36ed:	00 
    36ee:	4c 33 8c 24 70 01 00 	xor    0x170(%rsp),%r9
    36f5:	00 
    36f6:	4c 33 84 24 78 01 00 	xor    0x178(%rsp),%r8
    36fd:	00 
    36fe:	4c 33 9c 24 80 01 00 	xor    0x180(%rsp),%r11
    3705:	00 
    3706:	48 33 9c 24 88 01 00 	xor    0x188(%rsp),%rbx
    370d:	00 
    370e:	48 33 ac 24 90 01 00 	xor    0x190(%rsp),%rbp
    3715:	00 
    3716:	4c 33 8c 24 98 01 00 	xor    0x198(%rsp),%r9
    371d:	00 
    371e:	4c 33 84 24 a0 01 00 	xor    0x1a0(%rsp),%r8
    3725:	00 
    3726:	4c 33 9c 24 a8 01 00 	xor    0x1a8(%rsp),%r11
    372d:	00 
    372e:	48 33 9c 24 b0 01 00 	xor    0x1b0(%rsp),%rbx
    3735:	00 
    3736:	48 33 ac 24 b8 01 00 	xor    0x1b8(%rsp),%rbp
    373d:	00 
    373e:	4c 89 c2             	mov    %r8,%rdx
    3741:	48 d1 c2             	rol    %rdx
    3744:	48 31 ea             	xor    %rbp,%rdx
    3747:	4c 89 de             	mov    %r11,%rsi
    374a:	48 d1 c6             	rol    %rsi
    374d:	4c 31 ce             	xor    %r9,%rsi
    3750:	48 89 df             	mov    %rbx,%rdi
    3753:	48 d1 c7             	rol    %rdi
    3756:	4c 31 c7             	xor    %r8,%rdi
    3759:	49 89 e8             	mov    %rbp,%r8
    375c:	49 d1 c0             	rol    %r8
    375f:	4d 31 d8             	xor    %r11,%r8
    3762:	49 d1 c1             	rol    %r9
    3765:	49 31 d9             	xor    %rbx,%r9
    3768:	4c 8b 9c 24 f8 00 00 	mov    0xf8(%rsp),%r11
    376f:	00 
    3770:	49 31 d3             	xor    %rdx,%r11
    3773:	48 8b 9c 24 28 01 00 	mov    0x128(%rsp),%rbx
    377a:	00 
    377b:	48 31 f3             	xor    %rsi,%rbx
    377e:	48 c1 c3 2c          	rol    $0x2c,%rbx
    3782:	48 8b ac 24 58 01 00 	mov    0x158(%rsp),%rbp
    3789:	00 
    378a:	48 31 fd             	xor    %rdi,%rbp
    378d:	48 c1 c5 2b          	rol    $0x2b,%rbp
    3791:	4c 8b a4 24 88 01 00 	mov    0x188(%rsp),%r12
    3798:	00 
    3799:	4d 31 c4             	xor    %r8,%r12
    379c:	49 c1 c4 15          	rol    $0x15,%r12
    37a0:	4c 8b ac 24 b8 01 00 	mov    0x1b8(%rsp),%r13
    37a7:	00 
    37a8:	4d 31 cd             	xor    %r9,%r13
    37ab:	49 c1 c5 0e          	rol    $0xe,%r13
    37af:	49 89 de             	mov    %rbx,%r14
    37b2:	49 f7 d6             	not    %r14
    37b5:	49 21 ee             	and    %rbp,%r14
    37b8:	4d 31 de             	xor    %r11,%r14
    37bb:	4d 31 d6             	xor    %r10,%r14
    37be:	4c 89 74 24 30       	mov    %r14,0x30(%rsp)
    37c3:	49 89 ea             	mov    %rbp,%r10
    37c6:	49 f7 d2             	not    %r10
    37c9:	4d 21 e2             	and    %r12,%r10
    37cc:	49 31 da             	xor    %rbx,%r10
    37cf:	4c 89 54 24 38       	mov    %r10,0x38(%rsp)
    37d4:	4d 89 e2             	mov    %r12,%r10
    37d7:	49 f7 d2             	not    %r10
    37da:	4d 21 ea             	and    %r13,%r10
    37dd:	49 31 ea             	xor    %rbp,%r10
    37e0:	4c 89 54 24 40       	mov    %r10,0x40(%rsp)
    37e5:	4d 89 ea             	mov    %r13,%r10
    37e8:	49 f7 d2             	not    %r10
    37eb:	4d 21 da             	and    %r11,%r10
    37ee:	4d 31 e2             	xor    %r12,%r10
    37f1:	4c 89 54 24 48       	mov    %r10,0x48(%rsp)
    37f6:	49 f7 d3             	not    %r11
    37f9:	49 21 db             	and    %rbx,%r11
    37fc:	4d 31 eb             	xor    %r13,%r11
    37ff:	4c 89 5c 24 50       	mov    %r11,0x50(%rsp)
    3804:	4c 8b 94 24 10 01 00 	mov    0x110(%rsp),%r10
    380b:	00 
    380c:	4d 31 c2             	xor    %r8,%r10
    380f:	49 c1 c2 1c          	rol    $0x1c,%r10
    3813:	4c 8b 9c 24 40 01 00 	mov    0x140(%rsp),%r11
    381a:	00 
    381b:	4d 31 cb             	xor    %r9,%r11
    381e:	49 c1 c3 14          	rol    $0x14,%r11
    3822:	4c 8b a4 24 48 01 00 	mov    0x148(%rsp),%r12
    3829:	00 
    382a:	49 31 d4             	xor    %rdx,%r12
    382d:	49 c1 c4 03          	rol    $0x3,%r12
    3831:	48 8b 9c 24 78 01 00 	mov    0x178(%rsp),%rbx
    3838:	00 
    3839:	48 31 f3             	xor    %rsi,%rbx
    383c:	48 c1 c3 2d          	rol    $0x2d,%rbx
    3840:	48 8b ac 24 a8 01 00 	mov    0x1a8(%rsp),%rbp
    3847:	00 
    3848:	48 31 fd             	xor    %rdi,%rbp
    384b:	48 c1 c5 3d          	rol    $0x3d,%rbp
    384f:	4d 89 dd             	mov    %r11,%r13
    3852:	49 f7 d5             	not    %r13
    3855:	4d 21 e5             	and    %r12,%r13
    3858:	4d 31 d5             	xor    %r10,%r13
    385b:	4c 89 6c 24 58       	mov    %r13,0x58(%rsp)
    3860:	4d 89 e5             	mov    %r12,%r13
    3863:	49 f7 d5             	not    %r13
    3866:	49 21 dd             	and    %rbx,%r13
    3869:	4d 31 dd             	xor    %r11,%r13
    386c:	4c 89 6c 24 60       	mov    %r13,0x60(%rsp)
    3871:	49 89 dd             	mov    %rbx,%r13
    3874:	49 f7 d5             	not    %r13
    3877:	49 21 ed             	and    %rbp,%r13
    387a:	4d 31 e5             	xor    %r12,%r13
    387d:	4c 89 6c 24 68       	mov    %r13,0x68(%rsp)
    3882:	49 89 ec             	mov    %rbp,%r12
    3885:	49 f7 d4             	not    %r12
    3888:	4d 21 d4             	and    %r10,%r12
    388b:	49 31 dc             	xor    %rbx,%r12
    388e:	4c 89 64 24 70       	mov    %r12,0x70(%rsp)
    3893:	49 f7 d2             	not    %r10
    3896:	4d 21 da             	and    %r11,%r10
    3899:	49 31 ea             	xor    %rbp,%r10
    389c:	4c 89 54 24 78       	mov    %r10,0x78(%rsp)
    38a1:	4c 8b 94 24 00 01 00 	mov    0x100(%rsp),%r10
    38a8:	00 
    38a9:	49 31 f2             	xor    %rsi,%r10
    38ac:	49 d1 c2             	rol    %r10
    38af:	4c 8b 9c 24 30 01 00 	mov    0x130(%rsp),%r11
    38b6:	00 
    38b7:	49 31 fb             	xor    %rdi,%r11
    38ba:	49 c1 c3 06          	rol    $0x6,%r11
    38be:	4c 8b a4 24 60 01 00 	mov    0x160(%rsp),%r12
    38c5:	00 
    38c6:	4d 31 c4             	xor    %r8,%r12
    38c9:	49 c1 c4 19          	rol    $0x19,%r12
    38cd:	48 8b 9c 24 90 01 00 	mov    0x190(%rsp),%rbx
    38d4:	00 
    38d5:	4c 31 cb             	xor    %r9,%rbx
    38d8:	48 c1 c3 08          	rol    $0x8,%rbx
    38dc:	48 8b ac 24 98 01 00 	mov    0x198(%rsp),%rbp
    38e3:	00 
    38e4:	48 31 d5             	xor    %rdx,%rbp
    38e7:	48 c1 c5 12          	rol    $0x12,%rbp
    38eb:	4d 89 dd             	mov    %r11,%r13
    38ee:	49 f7 d5             	not    %r13
    38f1:	4d 21 e5             	and    %r12,%r13
    38f4:	4d 31 d5             	xor    %r10,%r13
    38f7:	4c 89 ac 24 80 00 00 	mov    %r13,0x80(%rsp)
    38fe:	00 
    38ff:	4d 89 e5             	mov    %r12,%r13
    3902:	49 f7 d5             	not    %r13
    3905:	49 21 dd             	and    %rbx,%r13
    3908:	4d 31 dd             	xor    %r11,%r13
    390b:	4c 89 ac 24 88 00 00 	mov    %r13,0x88(%rsp)
    3912:	00 
    3913:	49 89 dd             	mov    %rbx,%r13
    3916:	49 f7 d5             	not    %r13
    3919:	49 21 ed             	and    %rbp,%r13
    391c:	4d 31 e5             	xor    %r12,%r13
    391f:	4c 89 ac 24 90 00 00 	mov    %r13,0x90(%rsp)
    3926:	00 
    3927:	49 89 ec             	mov    %rbp,%r12
    392a:	49 f7 d4             	not    %r12
    392d:	4d 21 d4             	and    %r10,%r12
    3930:	49 31 dc             	xor    %rbx,%r12
    3933:	4c 89 a4 24 98 00 00 	mov    %r12,0x98(%rsp)
    393a:	00 
    393b:	49 f7 d2             	not    %r10
    393e:	4d 21 da             	and    %r11,%r10
    3941:	49 31 ea             	xor    %rbp,%r10
    3944:	4c 89 94 24 a0 00 00 	mov    %r10,0xa0(%rsp)
    394b:	00 
    394c:	4c 8b 94 24 18 01 00 	mov    0x118(%rsp),%r10
    3953:	00 
    3954:	4d 31 ca             	xor    %r9,%r10
    3957:	49 c1 c2 1b          	rol    $0x1b,%r10
    395b:	4c 8b 9c 24 20 01 00 	mov    0x120(%rsp),%r11
    3962:	00 
    3963:	49 31 d3             	xor    %rdx,%r11
    3966:	49 c1 c3 24          	rol    $0x24,%r11
    396a:	4c 8b a4 24 50 01 00 	mov    0x150(%rsp),%r12
    3971:	00 
    3972:	49 31 f4             	xor    %rsi,%r12
    3975:	49 c1 c4 0a          	rol    $0xa,%r12
    3979:	48 8b 9c 24 80 01 00 	mov    0x180(%rsp),%rbx
    3980:	00 
    3981:	48 31 fb             	xor    %rdi,%rbx
    3984:	48 c1 c3 0f          	rol    $0xf,%rbx
    3988:	48 8b ac 24 b0 01 00 	mov    0x1b0(%rsp),%rbp
    398f:	00 
    3990:	4c 31 c5             	xor    %r8,%rbp
    3993:	48 c1 c5 38          	rol    $0x38,%rbp
    3997:	4d 89 dd             	mov    %r11,%r13
    399a:	49 f7 d5             	not    %r13
    399d:	4d 21 e5             	and    %r12,%r13
    39a0:	4d 31 d5             	xor    %r10,%r13
    39a3:	4c 89 ac 24 a8 00 00 	mov    %r13,0xa8(%rsp)
    39aa:	00 
    39ab:	4d 89 e5             	mov    %r12,%r13
    39ae:	49 f7 d5             	not    %r13
    39b1:	49 21 dd             	and    %rbx,%r13
    39b4:	4d 31 dd             	xor    %r11,%r13
    39b7:	4c 89 ac 24 b0 00 00 	mov    %r13,0xb0(%rsp)
    39be:	00 
    39bf:	49 89 dd             	mov    %rbx,%r13
    39c2:	49 f7 d5             	not    %r13
    39c5:	49 21 ed             	and    %rbp,%r13
    39c8:	4d 31 e5             	xor    %r12,%r13
    39cb:	4c 89 ac 24 b8 00 00 	mov    %r13,0xb8(%rsp)
    39d2:	00 
    39d3:	49 89 ec             	mov    %rbp,%r12
    39d6:	49 f7 d4             	not    %r12
    39d9:	4d 21 d4             	and    %r10,%r12
    39dc:	49 31 dc             	xor    %rbx,%r12
    39df:	4c 89 a4 24 c0 00 00 	mov    %r12,0xc0(%rsp)
    39e6:	00 
    39e7:	49 f7 d2             	not    %r10
    39ea:	4d 21 da             	and    %r11,%r10
    39ed:	49 31 ea             	xor    %rbp,%r10
    39f0:	4c 89 94 24 c8 00 00 	mov    %r10,0xc8(%rsp)
    39f7:	00 
    39f8:	4c 8b 94 24 08 01 00 	mov    0x108(%rsp),%r10
    39ff:	00 
    3a00:	49 31 fa             	xor    %rdi,%r10
    3a03:	49 c1 c2 3e          	rol    $0x3e,%r10
    3a07:	48 8b bc 24 38 01 00 	mov    0x138(%rsp),%rdi
    3a0e:	00 
    3a0f:	4c 31 c7             	xor    %r8,%rdi
    3a12:	48 c1 c7 37          	rol    $0x37,%rdi
    3a16:	4c 8b 84 24 68 01 00 	mov    0x168(%rsp),%r8
    3a1d:	00 
    3a1e:	4d 31 c8             	xor    %r9,%r8
    3a21:	49 c1 c0 27          	rol    $0x27,%r8
    3a25:	4c 8b 8c 24 70 01 00 	mov    0x170(%rsp),%r9
    3a2c:	00 
    3a2d:	49 31 d1             	xor    %rdx,%r9
    3a30:	49 c1 c1 29          	rol    $0x29,%r9
    3a34:	48 8b 94 24 a0 01 00 	mov    0x1a0(%rsp),%rdx
    3a3b:	00 
    3a3c:	48 31 f2             	xor    %rsi,%rdx
    3a3f:	48 c1 c2 02          	rol    $0x2,%rdx
    3a43:	48 89 fe             	mov    %rdi,%rsi
    3a46:	48 f7 d6             	not    %rsi
    3a49:	4c 21 c6             	and    %r8,%rsi
    3a4c:	4c 31 d6             	xor    %r10,%rsi
    3a4f:	48 89 b4 24 d0 00 00 	mov    %rsi,0xd0(%rsp)
    3a56:	00 
    3a57:	4c 89 c6             	mov    %r8,%rsi
    3a5a:	48 f7 d6             	not    %rsi
    3a5d:	4c 21 ce             	and    %r9,%rsi
    3a60:	48 31 fe             	xor    %rdi,%rsi
    3a63:	48 89 b4 24 d8 00 00 	mov    %rsi,0xd8(%rsp)
    3a6a:	00 
    3a6b:	4c 89 ce             	mov    %r9,%rsi
    3a6e:	48 f7 d6             	not    %rsi
    3a71:	48 21 d6             	and    %rdx,%rsi
    3a74:	4c 31 c6             	xor    %r8,%rsi
    3a77:	48 89 b4 24 e0 00 00 	mov    %rsi,0xe0(%rsp)
    3a7e:	00 
    3a7f:	48 89 d6             	mov    %rdx,%rsi
    3a82:	48 f7 d6             	not    %rsi
    3a85:	4c 21 d6             	and    %r10,%rsi
    3a88:	4c 31 ce             	xor    %r9,%rsi
    3a8b:	48 89 b4 24 e8 00 00 	mov    %rsi,0xe8(%rsp)
    3a92:	00 
    3a93:	49 f7 d2             	not    %r10
    3a96:	49 21 fa             	and    %rdi,%r10
    3a99:	49 31 d2             	xor    %rdx,%r10
    3a9c:	4c 89 94 24 f0 00 00 	mov    %r10,0xf0(%rsp)
    3aa3:	00 
    3aa4:	48 83 c1 02          	add    $0x2,%rcx

0000000000003aa8 <L_keccak1600_ref$20>:
    3aa8:	48 83 f9 17          	cmp    $0x17,%rcx
    3aac:	0f 82 ab f7 ff ff    	jb     325d <L_keccak1600_ref$21>
    3ab2:	48 8b 74 24 18       	mov    0x18(%rsp),%rsi
    3ab7:	48 8b 54 24 20       	mov    0x20(%rsp),%rdx
    3abc:	48 8b 44 24 28       	mov    0x28(%rsp),%rax

0000000000003ac1 <L_keccak1600_ref$18>:
    3ac1:	48 39 c2             	cmp    %rax,%rdx
    3ac4:	0f 83 4a f7 ff ff    	jae    3214 <L_keccak1600_ref$19>
    3aca:	8a 8c 24 c0 01 00 00 	mov    0x1c0(%rsp),%cl
    3ad1:	48 89 d7             	mov    %rdx,%rdi
    3ad4:	48 c1 ef 03          	shr    $0x3,%rdi
    3ad8:	49 c7 c0 00 00 00 00 	mov    $0x0,%r8
    3adf:	eb 0c                	jmp    3aed <L_keccak1600_ref$16>

0000000000003ae1 <L_keccak1600_ref$17>:
    3ae1:	4e 8b 0c c6          	mov    (%rsi,%r8,8),%r9
    3ae5:	4e 31 4c c4 30       	xor    %r9,0x30(%rsp,%r8,8)
    3aea:	49 ff c0             	inc    %r8

0000000000003aed <L_keccak1600_ref$16>:
    3aed:	49 39 f8             	cmp    %rdi,%r8
    3af0:	72 ef                	jb     3ae1 <L_keccak1600_ref$17>
    3af2:	49 c1 e0 03          	shl    $0x3,%r8
    3af6:	eb 0c                	jmp    3b04 <L_keccak1600_ref$14>

0000000000003af8 <L_keccak1600_ref$15>:
    3af8:	42 8a 3c 06          	mov    (%rsi,%r8,1),%dil
    3afc:	42 30 7c 04 30       	xor    %dil,0x30(%rsp,%r8,1)
    3b01:	49 ff c0             	inc    %r8

0000000000003b04 <L_keccak1600_ref$14>:
    3b04:	49 39 d0             	cmp    %rdx,%r8
    3b07:	72 ef                	jb     3af8 <L_keccak1600_ref$15>
    3b09:	42 30 4c 04 30       	xor    %cl,0x30(%rsp,%r8,1)
    3b0e:	48 89 c1             	mov    %rax,%rcx
    3b11:	48 83 c1 ff          	add    $0xffffffffffffffff,%rcx
    3b15:	80 74 0c 30 80       	xorb   $0x80,0x30(%rsp,%rcx,1)
    3b1a:	48 8b 54 24 10       	mov    0x10(%rsp),%rdx
    3b1f:	e9 ad 08 00 00       	jmp    43d1 <L_keccak1600_ref$8>

0000000000003b24 <L_keccak1600_ref$9>:
    3b24:	48 89 54 24 10       	mov    %rdx,0x10(%rsp)
    3b29:	48 89 44 24 28       	mov    %rax,0x28(%rsp)
    3b2e:	48 8d 05 ab 57 00 00 	lea    0x57ab(%rip),%rax        # 92e0 <G$KECCAK1600_RC>
    3b35:	48 c7 c1 00 00 00 00 	mov    $0x0,%rcx
    3b3c:	e9 4b 08 00 00       	jmp    438c <L_keccak1600_ref$12>

0000000000003b41 <L_keccak1600_ref$13>:
    3b41:	4c 8b 14 c8          	mov    (%rax,%rcx,8),%r10
    3b45:	4c 8b 4c 24 30       	mov    0x30(%rsp),%r9
    3b4a:	4c 8b 44 24 38       	mov    0x38(%rsp),%r8
    3b4f:	4c 8b 5c 24 40       	mov    0x40(%rsp),%r11
    3b54:	48 8b 5c 24 48       	mov    0x48(%rsp),%rbx
    3b59:	48 8b 6c 24 50       	mov    0x50(%rsp),%rbp
    3b5e:	4c 33 4c 24 58       	xor    0x58(%rsp),%r9
    3b63:	4c 33 44 24 60       	xor    0x60(%rsp),%r8
    3b68:	4c 33 5c 24 68       	xor    0x68(%rsp),%r11
    3b6d:	48 33 5c 24 70       	xor    0x70(%rsp),%rbx
    3b72:	48 33 6c 24 78       	xor    0x78(%rsp),%rbp
    3b77:	4c 33 8c 24 80 00 00 	xor    0x80(%rsp),%r9
    3b7e:	00 
    3b7f:	4c 33 84 24 88 00 00 	xor    0x88(%rsp),%r8
    3b86:	00 
    3b87:	4c 33 9c 24 90 00 00 	xor    0x90(%rsp),%r11
    3b8e:	00 
    3b8f:	48 33 9c 24 98 00 00 	xor    0x98(%rsp),%rbx
    3b96:	00 
    3b97:	48 33 ac 24 a0 00 00 	xor    0xa0(%rsp),%rbp
    3b9e:	00 
    3b9f:	4c 33 8c 24 a8 00 00 	xor    0xa8(%rsp),%r9
    3ba6:	00 
    3ba7:	4c 33 84 24 b0 00 00 	xor    0xb0(%rsp),%r8
    3bae:	00 
    3baf:	4c 33 9c 24 b8 00 00 	xor    0xb8(%rsp),%r11
    3bb6:	00 
    3bb7:	48 33 9c 24 c0 00 00 	xor    0xc0(%rsp),%rbx
    3bbe:	00 
    3bbf:	48 33 ac 24 c8 00 00 	xor    0xc8(%rsp),%rbp
    3bc6:	00 
    3bc7:	4c 33 8c 24 d0 00 00 	xor    0xd0(%rsp),%r9
    3bce:	00 
    3bcf:	4c 33 84 24 d8 00 00 	xor    0xd8(%rsp),%r8
    3bd6:	00 
    3bd7:	4c 33 9c 24 e0 00 00 	xor    0xe0(%rsp),%r11
    3bde:	00 
    3bdf:	48 33 9c 24 e8 00 00 	xor    0xe8(%rsp),%rbx
    3be6:	00 
    3be7:	48 33 ac 24 f0 00 00 	xor    0xf0(%rsp),%rbp
    3bee:	00 
    3bef:	4c 89 c2             	mov    %r8,%rdx
    3bf2:	48 d1 c2             	rol    %rdx
    3bf5:	48 31 ea             	xor    %rbp,%rdx
    3bf8:	4c 89 de             	mov    %r11,%rsi
    3bfb:	48 d1 c6             	rol    %rsi
    3bfe:	4c 31 ce             	xor    %r9,%rsi
    3c01:	48 89 df             	mov    %rbx,%rdi
    3c04:	48 d1 c7             	rol    %rdi
    3c07:	4c 31 c7             	xor    %r8,%rdi
    3c0a:	49 89 e8             	mov    %rbp,%r8
    3c0d:	49 d1 c0             	rol    %r8
    3c10:	4d 31 d8             	xor    %r11,%r8
    3c13:	49 d1 c1             	rol    %r9
    3c16:	49 31 d9             	xor    %rbx,%r9
    3c19:	4c 8b 5c 24 30       	mov    0x30(%rsp),%r11
    3c1e:	49 31 d3             	xor    %rdx,%r11
    3c21:	48 8b 5c 24 60       	mov    0x60(%rsp),%rbx
    3c26:	48 31 f3             	xor    %rsi,%rbx
    3c29:	48 c1 c3 2c          	rol    $0x2c,%rbx
    3c2d:	48 8b ac 24 90 00 00 	mov    0x90(%rsp),%rbp
    3c34:	00 
    3c35:	48 31 fd             	xor    %rdi,%rbp
    3c38:	48 c1 c5 2b          	rol    $0x2b,%rbp
    3c3c:	4c 8b a4 24 c0 00 00 	mov    0xc0(%rsp),%r12
    3c43:	00 
    3c44:	4d 31 c4             	xor    %r8,%r12
    3c47:	49 c1 c4 15          	rol    $0x15,%r12
    3c4b:	4c 8b ac 24 f0 00 00 	mov    0xf0(%rsp),%r13
    3c52:	00 
    3c53:	4d 31 cd             	xor    %r9,%r13
    3c56:	49 c1 c5 0e          	rol    $0xe,%r13
    3c5a:	49 89 de             	mov    %rbx,%r14
    3c5d:	49 f7 d6             	not    %r14
    3c60:	49 21 ee             	and    %rbp,%r14
    3c63:	4d 31 de             	xor    %r11,%r14
    3c66:	4d 31 d6             	xor    %r10,%r14
    3c69:	4c 89 b4 24 f8 00 00 	mov    %r14,0xf8(%rsp)
    3c70:	00 
    3c71:	49 89 ea             	mov    %rbp,%r10
    3c74:	49 f7 d2             	not    %r10
    3c77:	4d 21 e2             	and    %r12,%r10
    3c7a:	49 31 da             	xor    %rbx,%r10
    3c7d:	4c 89 94 24 00 01 00 	mov    %r10,0x100(%rsp)
    3c84:	00 
    3c85:	4d 89 e2             	mov    %r12,%r10
    3c88:	49 f7 d2             	not    %r10
    3c8b:	4d 21 ea             	and    %r13,%r10
    3c8e:	49 31 ea             	xor    %rbp,%r10
    3c91:	4c 89 94 24 08 01 00 	mov    %r10,0x108(%rsp)
    3c98:	00 
    3c99:	4d 89 ea             	mov    %r13,%r10
    3c9c:	49 f7 d2             	not    %r10
    3c9f:	4d 21 da             	and    %r11,%r10
    3ca2:	4d 31 e2             	xor    %r12,%r10
    3ca5:	4c 89 94 24 10 01 00 	mov    %r10,0x110(%rsp)
    3cac:	00 
    3cad:	49 f7 d3             	not    %r11
    3cb0:	49 21 db             	and    %rbx,%r11
    3cb3:	4d 31 eb             	xor    %r13,%r11
    3cb6:	4c 89 9c 24 18 01 00 	mov    %r11,0x118(%rsp)
    3cbd:	00 
    3cbe:	4c 8b 54 24 48       	mov    0x48(%rsp),%r10
    3cc3:	4d 31 c2             	xor    %r8,%r10
    3cc6:	49 c1 c2 1c          	rol    $0x1c,%r10
    3cca:	4c 8b 5c 24 78       	mov    0x78(%rsp),%r11
    3ccf:	4d 31 cb             	xor    %r9,%r11
    3cd2:	49 c1 c3 14          	rol    $0x14,%r11
    3cd6:	4c 8b a4 24 80 00 00 	mov    0x80(%rsp),%r12
    3cdd:	00 
    3cde:	49 31 d4             	xor    %rdx,%r12
    3ce1:	49 c1 c4 03          	rol    $0x3,%r12
    3ce5:	48 8b 9c 24 b0 00 00 	mov    0xb0(%rsp),%rbx
    3cec:	00 
    3ced:	48 31 f3             	xor    %rsi,%rbx
    3cf0:	48 c1 c3 2d          	rol    $0x2d,%rbx
    3cf4:	48 8b ac 24 e0 00 00 	mov    0xe0(%rsp),%rbp
    3cfb:	00 
    3cfc:	48 31 fd             	xor    %rdi,%rbp
    3cff:	48 c1 c5 3d          	rol    $0x3d,%rbp
    3d03:	4d 89 dd             	mov    %r11,%r13
    3d06:	49 f7 d5             	not    %r13
    3d09:	4d 21 e5             	and    %r12,%r13
    3d0c:	4d 31 d5             	xor    %r10,%r13
    3d0f:	4c 89 ac 24 20 01 00 	mov    %r13,0x120(%rsp)
    3d16:	00 
    3d17:	4d 89 e5             	mov    %r12,%r13
    3d1a:	49 f7 d5             	not    %r13
    3d1d:	49 21 dd             	and    %rbx,%r13
    3d20:	4d 31 dd             	xor    %r11,%r13
    3d23:	4c 89 ac 24 28 01 00 	mov    %r13,0x128(%rsp)
    3d2a:	00 
    3d2b:	49 89 dd             	mov    %rbx,%r13
    3d2e:	49 f7 d5             	not    %r13
    3d31:	49 21 ed             	and    %rbp,%r13
    3d34:	4d 31 e5             	xor    %r12,%r13
    3d37:	4c 89 ac 24 30 01 00 	mov    %r13,0x130(%rsp)
    3d3e:	00 
    3d3f:	49 89 ec             	mov    %rbp,%r12
    3d42:	49 f7 d4             	not    %r12
    3d45:	4d 21 d4             	and    %r10,%r12
    3d48:	49 31 dc             	xor    %rbx,%r12
    3d4b:	4c 89 a4 24 38 01 00 	mov    %r12,0x138(%rsp)
    3d52:	00 
    3d53:	49 f7 d2             	not    %r10
    3d56:	4d 21 da             	and    %r11,%r10
    3d59:	49 31 ea             	xor    %rbp,%r10
    3d5c:	4c 89 94 24 40 01 00 	mov    %r10,0x140(%rsp)
    3d63:	00 
    3d64:	4c 8b 54 24 38       	mov    0x38(%rsp),%r10
    3d69:	49 31 f2             	xor    %rsi,%r10
    3d6c:	49 d1 c2             	rol    %r10
    3d6f:	4c 8b 5c 24 68       	mov    0x68(%rsp),%r11
    3d74:	49 31 fb             	xor    %rdi,%r11
    3d77:	49 c1 c3 06          	rol    $0x6,%r11
    3d7b:	4c 8b a4 24 98 00 00 	mov    0x98(%rsp),%r12
    3d82:	00 
    3d83:	4d 31 c4             	xor    %r8,%r12
    3d86:	49 c1 c4 19          	rol    $0x19,%r12
    3d8a:	48 8b 9c 24 c8 00 00 	mov    0xc8(%rsp),%rbx
    3d91:	00 
    3d92:	4c 31 cb             	xor    %r9,%rbx
    3d95:	48 c1 c3 08          	rol    $0x8,%rbx
    3d99:	48 8b ac 24 d0 00 00 	mov    0xd0(%rsp),%rbp
    3da0:	00 
    3da1:	48 31 d5             	xor    %rdx,%rbp
    3da4:	48 c1 c5 12          	rol    $0x12,%rbp
    3da8:	4d 89 dd             	mov    %r11,%r13
    3dab:	49 f7 d5             	not    %r13
    3dae:	4d 21 e5             	and    %r12,%r13
    3db1:	4d 31 d5             	xor    %r10,%r13
    3db4:	4c 89 ac 24 48 01 00 	mov    %r13,0x148(%rsp)
    3dbb:	00 
    3dbc:	4d 89 e5             	mov    %r12,%r13
    3dbf:	49 f7 d5             	not    %r13
    3dc2:	49 21 dd             	and    %rbx,%r13
    3dc5:	4d 31 dd             	xor    %r11,%r13
    3dc8:	4c 89 ac 24 50 01 00 	mov    %r13,0x150(%rsp)
    3dcf:	00 
    3dd0:	49 89 dd             	mov    %rbx,%r13
    3dd3:	49 f7 d5             	not    %r13
    3dd6:	49 21 ed             	and    %rbp,%r13
    3dd9:	4d 31 e5             	xor    %r12,%r13
    3ddc:	4c 89 ac 24 58 01 00 	mov    %r13,0x158(%rsp)
    3de3:	00 
    3de4:	49 89 ec             	mov    %rbp,%r12
    3de7:	49 f7 d4             	not    %r12
    3dea:	4d 21 d4             	and    %r10,%r12
    3ded:	49 31 dc             	xor    %rbx,%r12
    3df0:	4c 89 a4 24 60 01 00 	mov    %r12,0x160(%rsp)
    3df7:	00 
    3df8:	49 f7 d2             	not    %r10
    3dfb:	4d 21 da             	and    %r11,%r10
    3dfe:	49 31 ea             	xor    %rbp,%r10
    3e01:	4c 89 94 24 68 01 00 	mov    %r10,0x168(%rsp)
    3e08:	00 
    3e09:	4c 8b 54 24 50       	mov    0x50(%rsp),%r10
    3e0e:	4d 31 ca             	xor    %r9,%r10
    3e11:	49 c1 c2 1b          	rol    $0x1b,%r10
    3e15:	4c 8b 5c 24 58       	mov    0x58(%rsp),%r11
    3e1a:	49 31 d3             	xor    %rdx,%r11
    3e1d:	49 c1 c3 24          	rol    $0x24,%r11
    3e21:	4c 8b a4 24 88 00 00 	mov    0x88(%rsp),%r12
    3e28:	00 
    3e29:	49 31 f4             	xor    %rsi,%r12
    3e2c:	49 c1 c4 0a          	rol    $0xa,%r12
    3e30:	48 8b 9c 24 b8 00 00 	mov    0xb8(%rsp),%rbx
    3e37:	00 
    3e38:	48 31 fb             	xor    %rdi,%rbx
    3e3b:	48 c1 c3 0f          	rol    $0xf,%rbx
    3e3f:	48 8b ac 24 e8 00 00 	mov    0xe8(%rsp),%rbp
    3e46:	00 
    3e47:	4c 31 c5             	xor    %r8,%rbp
    3e4a:	48 c1 c5 38          	rol    $0x38,%rbp
    3e4e:	4d 89 dd             	mov    %r11,%r13
    3e51:	49 f7 d5             	not    %r13
    3e54:	4d 21 e5             	and    %r12,%r13
    3e57:	4d 31 d5             	xor    %r10,%r13
    3e5a:	4c 89 ac 24 70 01 00 	mov    %r13,0x170(%rsp)
    3e61:	00 
    3e62:	4d 89 e5             	mov    %r12,%r13
    3e65:	49 f7 d5             	not    %r13
    3e68:	49 21 dd             	and    %rbx,%r13
    3e6b:	4d 31 dd             	xor    %r11,%r13
    3e6e:	4c 89 ac 24 78 01 00 	mov    %r13,0x178(%rsp)
    3e75:	00 
    3e76:	49 89 dd             	mov    %rbx,%r13
    3e79:	49 f7 d5             	not    %r13
    3e7c:	49 21 ed             	and    %rbp,%r13
    3e7f:	4d 31 e5             	xor    %r12,%r13
    3e82:	4c 89 ac 24 80 01 00 	mov    %r13,0x180(%rsp)
    3e89:	00 
    3e8a:	49 89 ec             	mov    %rbp,%r12
    3e8d:	49 f7 d4             	not    %r12
    3e90:	4d 21 d4             	and    %r10,%r12
    3e93:	49 31 dc             	xor    %rbx,%r12
    3e96:	4c 89 a4 24 88 01 00 	mov    %r12,0x188(%rsp)
    3e9d:	00 
    3e9e:	49 f7 d2             	not    %r10
    3ea1:	4d 21 da             	and    %r11,%r10
    3ea4:	49 31 ea             	xor    %rbp,%r10
    3ea7:	4c 89 94 24 90 01 00 	mov    %r10,0x190(%rsp)
    3eae:	00 
    3eaf:	4c 8b 54 24 40       	mov    0x40(%rsp),%r10
    3eb4:	49 31 fa             	xor    %rdi,%r10
    3eb7:	49 c1 c2 3e          	rol    $0x3e,%r10
    3ebb:	48 8b 7c 24 70       	mov    0x70(%rsp),%rdi
    3ec0:	4c 31 c7             	xor    %r8,%rdi
    3ec3:	48 c1 c7 37          	rol    $0x37,%rdi
    3ec7:	4c 8b 84 24 a0 00 00 	mov    0xa0(%rsp),%r8
    3ece:	00 
    3ecf:	4d 31 c8             	xor    %r9,%r8
    3ed2:	49 c1 c0 27          	rol    $0x27,%r8
    3ed6:	4c 8b 8c 24 a8 00 00 	mov    0xa8(%rsp),%r9
    3edd:	00 
    3ede:	49 31 d1             	xor    %rdx,%r9
    3ee1:	49 c1 c1 29          	rol    $0x29,%r9
    3ee5:	48 8b 94 24 d8 00 00 	mov    0xd8(%rsp),%rdx
    3eec:	00 
    3eed:	48 31 f2             	xor    %rsi,%rdx
    3ef0:	48 c1 c2 02          	rol    $0x2,%rdx
    3ef4:	48 89 fe             	mov    %rdi,%rsi
    3ef7:	48 f7 d6             	not    %rsi
    3efa:	4c 21 c6             	and    %r8,%rsi
    3efd:	4c 31 d6             	xor    %r10,%rsi
    3f00:	48 89 b4 24 98 01 00 	mov    %rsi,0x198(%rsp)
    3f07:	00 
    3f08:	4c 89 c6             	mov    %r8,%rsi
    3f0b:	48 f7 d6             	not    %rsi
    3f0e:	4c 21 ce             	and    %r9,%rsi
    3f11:	48 31 fe             	xor    %rdi,%rsi
    3f14:	48 89 b4 24 a0 01 00 	mov    %rsi,0x1a0(%rsp)
    3f1b:	00 
    3f1c:	4c 89 ce             	mov    %r9,%rsi
    3f1f:	48 f7 d6             	not    %rsi
    3f22:	48 21 d6             	and    %rdx,%rsi
    3f25:	4c 31 c6             	xor    %r8,%rsi
    3f28:	48 89 b4 24 a8 01 00 	mov    %rsi,0x1a8(%rsp)
    3f2f:	00 
    3f30:	48 89 d6             	mov    %rdx,%rsi
    3f33:	48 f7 d6             	not    %rsi
    3f36:	4c 21 d6             	and    %r10,%rsi
    3f39:	4c 31 ce             	xor    %r9,%rsi
    3f3c:	48 89 b4 24 b0 01 00 	mov    %rsi,0x1b0(%rsp)
    3f43:	00 
    3f44:	49 f7 d2             	not    %r10
    3f47:	49 21 fa             	and    %rdi,%r10
    3f4a:	49 31 d2             	xor    %rdx,%r10
    3f4d:	4c 89 94 24 b8 01 00 	mov    %r10,0x1b8(%rsp)
    3f54:	00 
    3f55:	4c 8b 54 c8 08       	mov    0x8(%rax,%rcx,8),%r10
    3f5a:	4c 8b 8c 24 f8 00 00 	mov    0xf8(%rsp),%r9
    3f61:	00 
    3f62:	4c 8b 84 24 00 01 00 	mov    0x100(%rsp),%r8
    3f69:	00 
    3f6a:	4c 8b 9c 24 08 01 00 	mov    0x108(%rsp),%r11
    3f71:	00 
    3f72:	48 8b 9c 24 10 01 00 	mov    0x110(%rsp),%rbx
    3f79:	00 
    3f7a:	48 8b ac 24 18 01 00 	mov    0x118(%rsp),%rbp
    3f81:	00 
    3f82:	4c 33 8c 24 20 01 00 	xor    0x120(%rsp),%r9
    3f89:	00 
    3f8a:	4c 33 84 24 28 01 00 	xor    0x128(%rsp),%r8
    3f91:	00 
    3f92:	4c 33 9c 24 30 01 00 	xor    0x130(%rsp),%r11
    3f99:	00 
    3f9a:	48 33 9c 24 38 01 00 	xor    0x138(%rsp),%rbx
    3fa1:	00 
    3fa2:	48 33 ac 24 40 01 00 	xor    0x140(%rsp),%rbp
    3fa9:	00 
    3faa:	4c 33 8c 24 48 01 00 	xor    0x148(%rsp),%r9
    3fb1:	00 
    3fb2:	4c 33 84 24 50 01 00 	xor    0x150(%rsp),%r8
    3fb9:	00 
    3fba:	4c 33 9c 24 58 01 00 	xor    0x158(%rsp),%r11
    3fc1:	00 
    3fc2:	48 33 9c 24 60 01 00 	xor    0x160(%rsp),%rbx
    3fc9:	00 
    3fca:	48 33 ac 24 68 01 00 	xor    0x168(%rsp),%rbp
    3fd1:	00 
    3fd2:	4c 33 8c 24 70 01 00 	xor    0x170(%rsp),%r9
    3fd9:	00 
    3fda:	4c 33 84 24 78 01 00 	xor    0x178(%rsp),%r8
    3fe1:	00 
    3fe2:	4c 33 9c 24 80 01 00 	xor    0x180(%rsp),%r11
    3fe9:	00 
    3fea:	48 33 9c 24 88 01 00 	xor    0x188(%rsp),%rbx
    3ff1:	00 
    3ff2:	48 33 ac 24 90 01 00 	xor    0x190(%rsp),%rbp
    3ff9:	00 
    3ffa:	4c 33 8c 24 98 01 00 	xor    0x198(%rsp),%r9
    4001:	00 
    4002:	4c 33 84 24 a0 01 00 	xor    0x1a0(%rsp),%r8
    4009:	00 
    400a:	4c 33 9c 24 a8 01 00 	xor    0x1a8(%rsp),%r11
    4011:	00 
    4012:	48 33 9c 24 b0 01 00 	xor    0x1b0(%rsp),%rbx
    4019:	00 
    401a:	48 33 ac 24 b8 01 00 	xor    0x1b8(%rsp),%rbp
    4021:	00 
    4022:	4c 89 c2             	mov    %r8,%rdx
    4025:	48 d1 c2             	rol    %rdx
    4028:	48 31 ea             	xor    %rbp,%rdx
    402b:	4c 89 de             	mov    %r11,%rsi
    402e:	48 d1 c6             	rol    %rsi
    4031:	4c 31 ce             	xor    %r9,%rsi
    4034:	48 89 df             	mov    %rbx,%rdi
    4037:	48 d1 c7             	rol    %rdi
    403a:	4c 31 c7             	xor    %r8,%rdi
    403d:	49 89 e8             	mov    %rbp,%r8
    4040:	49 d1 c0             	rol    %r8
    4043:	4d 31 d8             	xor    %r11,%r8
    4046:	49 d1 c1             	rol    %r9
    4049:	49 31 d9             	xor    %rbx,%r9
    404c:	4c 8b 9c 24 f8 00 00 	mov    0xf8(%rsp),%r11
    4053:	00 
    4054:	49 31 d3             	xor    %rdx,%r11
    4057:	48 8b 9c 24 28 01 00 	mov    0x128(%rsp),%rbx
    405e:	00 
    405f:	48 31 f3             	xor    %rsi,%rbx
    4062:	48 c1 c3 2c          	rol    $0x2c,%rbx
    4066:	48 8b ac 24 58 01 00 	mov    0x158(%rsp),%rbp
    406d:	00 
    406e:	48 31 fd             	xor    %rdi,%rbp
    4071:	48 c1 c5 2b          	rol    $0x2b,%rbp
    4075:	4c 8b a4 24 88 01 00 	mov    0x188(%rsp),%r12
    407c:	00 
    407d:	4d 31 c4             	xor    %r8,%r12
    4080:	49 c1 c4 15          	rol    $0x15,%r12
    4084:	4c 8b ac 24 b8 01 00 	mov    0x1b8(%rsp),%r13
    408b:	00 
    408c:	4d 31 cd             	xor    %r9,%r13
    408f:	49 c1 c5 0e          	rol    $0xe,%r13
    4093:	49 89 de             	mov    %rbx,%r14
    4096:	49 f7 d6             	not    %r14
    4099:	49 21 ee             	and    %rbp,%r14
    409c:	4d 31 de             	xor    %r11,%r14
    409f:	4d 31 d6             	xor    %r10,%r14
    40a2:	4c 89 74 24 30       	mov    %r14,0x30(%rsp)
    40a7:	49 89 ea             	mov    %rbp,%r10
    40aa:	49 f7 d2             	not    %r10
    40ad:	4d 21 e2             	and    %r12,%r10
    40b0:	49 31 da             	xor    %rbx,%r10
    40b3:	4c 89 54 24 38       	mov    %r10,0x38(%rsp)
    40b8:	4d 89 e2             	mov    %r12,%r10
    40bb:	49 f7 d2             	not    %r10
    40be:	4d 21 ea             	and    %r13,%r10
    40c1:	49 31 ea             	xor    %rbp,%r10
    40c4:	4c 89 54 24 40       	mov    %r10,0x40(%rsp)
    40c9:	4d 89 ea             	mov    %r13,%r10
    40cc:	49 f7 d2             	not    %r10
    40cf:	4d 21 da             	and    %r11,%r10
    40d2:	4d 31 e2             	xor    %r12,%r10
    40d5:	4c 89 54 24 48       	mov    %r10,0x48(%rsp)
    40da:	49 f7 d3             	not    %r11
    40dd:	49 21 db             	and    %rbx,%r11
    40e0:	4d 31 eb             	xor    %r13,%r11
    40e3:	4c 89 5c 24 50       	mov    %r11,0x50(%rsp)
    40e8:	4c 8b 94 24 10 01 00 	mov    0x110(%rsp),%r10
    40ef:	00 
    40f0:	4d 31 c2             	xor    %r8,%r10
    40f3:	49 c1 c2 1c          	rol    $0x1c,%r10
    40f7:	4c 8b 9c 24 40 01 00 	mov    0x140(%rsp),%r11
    40fe:	00 
    40ff:	4d 31 cb             	xor    %r9,%r11
    4102:	49 c1 c3 14          	rol    $0x14,%r11
    4106:	4c 8b a4 24 48 01 00 	mov    0x148(%rsp),%r12
    410d:	00 
    410e:	49 31 d4             	xor    %rdx,%r12
    4111:	49 c1 c4 03          	rol    $0x3,%r12
    4115:	48 8b 9c 24 78 01 00 	mov    0x178(%rsp),%rbx
    411c:	00 
    411d:	48 31 f3             	xor    %rsi,%rbx
    4120:	48 c1 c3 2d          	rol    $0x2d,%rbx
    4124:	48 8b ac 24 a8 01 00 	mov    0x1a8(%rsp),%rbp
    412b:	00 
    412c:	48 31 fd             	xor    %rdi,%rbp
    412f:	48 c1 c5 3d          	rol    $0x3d,%rbp
    4133:	4d 89 dd             	mov    %r11,%r13
    4136:	49 f7 d5             	not    %r13
    4139:	4d 21 e5             	and    %r12,%r13
    413c:	4d 31 d5             	xor    %r10,%r13
    413f:	4c 89 6c 24 58       	mov    %r13,0x58(%rsp)
    4144:	4d 89 e5             	mov    %r12,%r13
    4147:	49 f7 d5             	not    %r13
    414a:	49 21 dd             	and    %rbx,%r13
    414d:	4d 31 dd             	xor    %r11,%r13
    4150:	4c 89 6c 24 60       	mov    %r13,0x60(%rsp)
    4155:	49 89 dd             	mov    %rbx,%r13
    4158:	49 f7 d5             	not    %r13
    415b:	49 21 ed             	and    %rbp,%r13
    415e:	4d 31 e5             	xor    %r12,%r13
    4161:	4c 89 6c 24 68       	mov    %r13,0x68(%rsp)
    4166:	49 89 ec             	mov    %rbp,%r12
    4169:	49 f7 d4             	not    %r12
    416c:	4d 21 d4             	and    %r10,%r12
    416f:	49 31 dc             	xor    %rbx,%r12
    4172:	4c 89 64 24 70       	mov    %r12,0x70(%rsp)
    4177:	49 f7 d2             	not    %r10
    417a:	4d 21 da             	and    %r11,%r10
    417d:	49 31 ea             	xor    %rbp,%r10
    4180:	4c 89 54 24 78       	mov    %r10,0x78(%rsp)
    4185:	4c 8b 94 24 00 01 00 	mov    0x100(%rsp),%r10
    418c:	00 
    418d:	49 31 f2             	xor    %rsi,%r10
    4190:	49 d1 c2             	rol    %r10
    4193:	4c 8b 9c 24 30 01 00 	mov    0x130(%rsp),%r11
    419a:	00 
    419b:	49 31 fb             	xor    %rdi,%r11
    419e:	49 c1 c3 06          	rol    $0x6,%r11
    41a2:	4c 8b a4 24 60 01 00 	mov    0x160(%rsp),%r12
    41a9:	00 
    41aa:	4d 31 c4             	xor    %r8,%r12
    41ad:	49 c1 c4 19          	rol    $0x19,%r12
    41b1:	48 8b 9c 24 90 01 00 	mov    0x190(%rsp),%rbx
    41b8:	00 
    41b9:	4c 31 cb             	xor    %r9,%rbx
    41bc:	48 c1 c3 08          	rol    $0x8,%rbx
    41c0:	48 8b ac 24 98 01 00 	mov    0x198(%rsp),%rbp
    41c7:	00 
    41c8:	48 31 d5             	xor    %rdx,%rbp
    41cb:	48 c1 c5 12          	rol    $0x12,%rbp
    41cf:	4d 89 dd             	mov    %r11,%r13
    41d2:	49 f7 d5             	not    %r13
    41d5:	4d 21 e5             	and    %r12,%r13
    41d8:	4d 31 d5             	xor    %r10,%r13
    41db:	4c 89 ac 24 80 00 00 	mov    %r13,0x80(%rsp)
    41e2:	00 
    41e3:	4d 89 e5             	mov    %r12,%r13
    41e6:	49 f7 d5             	not    %r13
    41e9:	49 21 dd             	and    %rbx,%r13
    41ec:	4d 31 dd             	xor    %r11,%r13
    41ef:	4c 89 ac 24 88 00 00 	mov    %r13,0x88(%rsp)
    41f6:	00 
    41f7:	49 89 dd             	mov    %rbx,%r13
    41fa:	49 f7 d5             	not    %r13
    41fd:	49 21 ed             	and    %rbp,%r13
    4200:	4d 31 e5             	xor    %r12,%r13
    4203:	4c 89 ac 24 90 00 00 	mov    %r13,0x90(%rsp)
    420a:	00 
    420b:	49 89 ec             	mov    %rbp,%r12
    420e:	49 f7 d4             	not    %r12
    4211:	4d 21 d4             	and    %r10,%r12
    4214:	49 31 dc             	xor    %rbx,%r12
    4217:	4c 89 a4 24 98 00 00 	mov    %r12,0x98(%rsp)
    421e:	00 
    421f:	49 f7 d2             	not    %r10
    4222:	4d 21 da             	and    %r11,%r10
    4225:	49 31 ea             	xor    %rbp,%r10
    4228:	4c 89 94 24 a0 00 00 	mov    %r10,0xa0(%rsp)
    422f:	00 
    4230:	4c 8b 94 24 18 01 00 	mov    0x118(%rsp),%r10
    4237:	00 
    4238:	4d 31 ca             	xor    %r9,%r10
    423b:	49 c1 c2 1b          	rol    $0x1b,%r10
    423f:	4c 8b 9c 24 20 01 00 	mov    0x120(%rsp),%r11
    4246:	00 
    4247:	49 31 d3             	xor    %rdx,%r11
    424a:	49 c1 c3 24          	rol    $0x24,%r11
    424e:	4c 8b a4 24 50 01 00 	mov    0x150(%rsp),%r12
    4255:	00 
    4256:	49 31 f4             	xor    %rsi,%r12
    4259:	49 c1 c4 0a          	rol    $0xa,%r12
    425d:	48 8b 9c 24 80 01 00 	mov    0x180(%rsp),%rbx
    4264:	00 
    4265:	48 31 fb             	xor    %rdi,%rbx
    4268:	48 c1 c3 0f          	rol    $0xf,%rbx
    426c:	48 8b ac 24 b0 01 00 	mov    0x1b0(%rsp),%rbp
    4273:	00 
    4274:	4c 31 c5             	xor    %r8,%rbp
    4277:	48 c1 c5 38          	rol    $0x38,%rbp
    427b:	4d 89 dd             	mov    %r11,%r13
    427e:	49 f7 d5             	not    %r13
    4281:	4d 21 e5             	and    %r12,%r13
    4284:	4d 31 d5             	xor    %r10,%r13
    4287:	4c 89 ac 24 a8 00 00 	mov    %r13,0xa8(%rsp)
    428e:	00 
    428f:	4d 89 e5             	mov    %r12,%r13
    4292:	49 f7 d5             	not    %r13
    4295:	49 21 dd             	and    %rbx,%r13
    4298:	4d 31 dd             	xor    %r11,%r13
    429b:	4c 89 ac 24 b0 00 00 	mov    %r13,0xb0(%rsp)
    42a2:	00 
    42a3:	49 89 dd             	mov    %rbx,%r13
    42a6:	49 f7 d5             	not    %r13
    42a9:	49 21 ed             	and    %rbp,%r13
    42ac:	4d 31 e5             	xor    %r12,%r13
    42af:	4c 89 ac 24 b8 00 00 	mov    %r13,0xb8(%rsp)
    42b6:	00 
    42b7:	49 89 ec             	mov    %rbp,%r12
    42ba:	49 f7 d4             	not    %r12
    42bd:	4d 21 d4             	and    %r10,%r12
    42c0:	49 31 dc             	xor    %rbx,%r12
    42c3:	4c 89 a4 24 c0 00 00 	mov    %r12,0xc0(%rsp)
    42ca:	00 
    42cb:	49 f7 d2             	not    %r10
    42ce:	4d 21 da             	and    %r11,%r10
    42d1:	49 31 ea             	xor    %rbp,%r10
    42d4:	4c 89 94 24 c8 00 00 	mov    %r10,0xc8(%rsp)
    42db:	00 
    42dc:	4c 8b 94 24 08 01 00 	mov    0x108(%rsp),%r10
    42e3:	00 
    42e4:	49 31 fa             	xor    %rdi,%r10
    42e7:	49 c1 c2 3e          	rol    $0x3e,%r10
    42eb:	48 8b bc 24 38 01 00 	mov    0x138(%rsp),%rdi
    42f2:	00 
    42f3:	4c 31 c7             	xor    %r8,%rdi
    42f6:	48 c1 c7 37          	rol    $0x37,%rdi
    42fa:	4c 8b 84 24 68 01 00 	mov    0x168(%rsp),%r8
    4301:	00 
    4302:	4d 31 c8             	xor    %r9,%r8
    4305:	49 c1 c0 27          	rol    $0x27,%r8
    4309:	4c 8b 8c 24 70 01 00 	mov    0x170(%rsp),%r9
    4310:	00 
    4311:	49 31 d1             	xor    %rdx,%r9
    4314:	49 c1 c1 29          	rol    $0x29,%r9
    4318:	48 8b 94 24 a0 01 00 	mov    0x1a0(%rsp),%rdx
    431f:	00 
    4320:	48 31 f2             	xor    %rsi,%rdx
    4323:	48 c1 c2 02          	rol    $0x2,%rdx
    4327:	48 89 fe             	mov    %rdi,%rsi
    432a:	48 f7 d6             	not    %rsi
    432d:	4c 21 c6             	and    %r8,%rsi
    4330:	4c 31 d6             	xor    %r10,%rsi
    4333:	48 89 b4 24 d0 00 00 	mov    %rsi,0xd0(%rsp)
    433a:	00 
    433b:	4c 89 c6             	mov    %r8,%rsi
    433e:	48 f7 d6             	not    %rsi
    4341:	4c 21 ce             	and    %r9,%rsi
    4344:	48 31 fe             	xor    %rdi,%rsi
    4347:	48 89 b4 24 d8 00 00 	mov    %rsi,0xd8(%rsp)
    434e:	00 
    434f:	4c 89 ce             	mov    %r9,%rsi
    4352:	48 f7 d6             	not    %rsi
    4355:	48 21 d6             	and    %rdx,%rsi
    4358:	4c 31 c6             	xor    %r8,%rsi
    435b:	48 89 b4 24 e0 00 00 	mov    %rsi,0xe0(%rsp)
    4362:	00 
    4363:	48 89 d6             	mov    %rdx,%rsi
    4366:	48 f7 d6             	not    %rsi
    4369:	4c 21 d6             	and    %r10,%rsi
    436c:	4c 31 ce             	xor    %r9,%rsi
    436f:	48 89 b4 24 e8 00 00 	mov    %rsi,0xe8(%rsp)
    4376:	00 
    4377:	49 f7 d2             	not    %r10
    437a:	49 21 fa             	and    %rdi,%r10
    437d:	49 31 d2             	xor    %rdx,%r10
    4380:	4c 89 94 24 f0 00 00 	mov    %r10,0xf0(%rsp)
    4387:	00 
    4388:	48 83 c1 02          	add    $0x2,%rcx

000000000000438c <L_keccak1600_ref$12>:
    438c:	48 83 f9 17          	cmp    $0x17,%rcx
    4390:	0f 82 ab f7 ff ff    	jb     3b41 <L_keccak1600_ref$13>
    4396:	48 8b 4c 24 08       	mov    0x8(%rsp),%rcx
    439b:	48 8b 54 24 10       	mov    0x10(%rsp),%rdx
    43a0:	48 8b 44 24 28       	mov    0x28(%rsp),%rax
    43a5:	48 89 c6             	mov    %rax,%rsi
    43a8:	48 c1 ee 03          	shr    $0x3,%rsi
    43ac:	48 c7 c7 00 00 00 00 	mov    $0x0,%rdi
    43b3:	eb 0c                	jmp    43c1 <L_keccak1600_ref$10>

00000000000043b5 <L_keccak1600_ref$11>:
    43b5:	4c 8b 44 fc 30       	mov    0x30(%rsp,%rdi,8),%r8
    43ba:	4c 89 04 f9          	mov    %r8,(%rcx,%rdi,8)
    43be:	48 ff c7             	inc    %rdi

00000000000043c1 <L_keccak1600_ref$10>:
    43c1:	48 39 f7             	cmp    %rsi,%rdi
    43c4:	72 ef                	jb     43b5 <L_keccak1600_ref$11>
    43c6:	48 01 c1             	add    %rax,%rcx
    43c9:	48 29 c2             	sub    %rax,%rdx
    43cc:	48 89 4c 24 08       	mov    %rcx,0x8(%rsp)

00000000000043d1 <L_keccak1600_ref$8>:
    43d1:	48 39 c2             	cmp    %rax,%rdx
    43d4:	0f 87 4a f7 ff ff    	ja     3b24 <L_keccak1600_ref$9>
    43da:	48 89 54 24 28       	mov    %rdx,0x28(%rsp)
    43df:	48 8d 05 fa 4e 00 00 	lea    0x4efa(%rip),%rax        # 92e0 <G$KECCAK1600_RC>
    43e6:	48 c7 c1 00 00 00 00 	mov    $0x0,%rcx
    43ed:	e9 4b 08 00 00       	jmp    4c3d <L_keccak1600_ref$6>

00000000000043f2 <L_keccak1600_ref$7>:
    43f2:	4c 8b 14 c8          	mov    (%rax,%rcx,8),%r10
    43f6:	4c 8b 4c 24 30       	mov    0x30(%rsp),%r9
    43fb:	4c 8b 44 24 38       	mov    0x38(%rsp),%r8
    4400:	4c 8b 5c 24 40       	mov    0x40(%rsp),%r11
    4405:	48 8b 5c 24 48       	mov    0x48(%rsp),%rbx
    440a:	48 8b 6c 24 50       	mov    0x50(%rsp),%rbp
    440f:	4c 33 4c 24 58       	xor    0x58(%rsp),%r9
    4414:	4c 33 44 24 60       	xor    0x60(%rsp),%r8
    4419:	4c 33 5c 24 68       	xor    0x68(%rsp),%r11
    441e:	48 33 5c 24 70       	xor    0x70(%rsp),%rbx
    4423:	48 33 6c 24 78       	xor    0x78(%rsp),%rbp
    4428:	4c 33 8c 24 80 00 00 	xor    0x80(%rsp),%r9
    442f:	00 
    4430:	4c 33 84 24 88 00 00 	xor    0x88(%rsp),%r8
    4437:	00 
    4438:	4c 33 9c 24 90 00 00 	xor    0x90(%rsp),%r11
    443f:	00 
    4440:	48 33 9c 24 98 00 00 	xor    0x98(%rsp),%rbx
    4447:	00 
    4448:	48 33 ac 24 a0 00 00 	xor    0xa0(%rsp),%rbp
    444f:	00 
    4450:	4c 33 8c 24 a8 00 00 	xor    0xa8(%rsp),%r9
    4457:	00 
    4458:	4c 33 84 24 b0 00 00 	xor    0xb0(%rsp),%r8
    445f:	00 
    4460:	4c 33 9c 24 b8 00 00 	xor    0xb8(%rsp),%r11
    4467:	00 
    4468:	48 33 9c 24 c0 00 00 	xor    0xc0(%rsp),%rbx
    446f:	00 
    4470:	48 33 ac 24 c8 00 00 	xor    0xc8(%rsp),%rbp
    4477:	00 
    4478:	4c 33 8c 24 d0 00 00 	xor    0xd0(%rsp),%r9
    447f:	00 
    4480:	4c 33 84 24 d8 00 00 	xor    0xd8(%rsp),%r8
    4487:	00 
    4488:	4c 33 9c 24 e0 00 00 	xor    0xe0(%rsp),%r11
    448f:	00 
    4490:	48 33 9c 24 e8 00 00 	xor    0xe8(%rsp),%rbx
    4497:	00 
    4498:	48 33 ac 24 f0 00 00 	xor    0xf0(%rsp),%rbp
    449f:	00 
    44a0:	4c 89 c2             	mov    %r8,%rdx
    44a3:	48 d1 c2             	rol    %rdx
    44a6:	48 31 ea             	xor    %rbp,%rdx
    44a9:	4c 89 de             	mov    %r11,%rsi
    44ac:	48 d1 c6             	rol    %rsi
    44af:	4c 31 ce             	xor    %r9,%rsi
    44b2:	48 89 df             	mov    %rbx,%rdi
    44b5:	48 d1 c7             	rol    %rdi
    44b8:	4c 31 c7             	xor    %r8,%rdi
    44bb:	49 89 e8             	mov    %rbp,%r8
    44be:	49 d1 c0             	rol    %r8
    44c1:	4d 31 d8             	xor    %r11,%r8
    44c4:	49 d1 c1             	rol    %r9
    44c7:	49 31 d9             	xor    %rbx,%r9
    44ca:	4c 8b 5c 24 30       	mov    0x30(%rsp),%r11
    44cf:	49 31 d3             	xor    %rdx,%r11
    44d2:	48 8b 5c 24 60       	mov    0x60(%rsp),%rbx
    44d7:	48 31 f3             	xor    %rsi,%rbx
    44da:	48 c1 c3 2c          	rol    $0x2c,%rbx
    44de:	48 8b ac 24 90 00 00 	mov    0x90(%rsp),%rbp
    44e5:	00 
    44e6:	48 31 fd             	xor    %rdi,%rbp
    44e9:	48 c1 c5 2b          	rol    $0x2b,%rbp
    44ed:	4c 8b a4 24 c0 00 00 	mov    0xc0(%rsp),%r12
    44f4:	00 
    44f5:	4d 31 c4             	xor    %r8,%r12
    44f8:	49 c1 c4 15          	rol    $0x15,%r12
    44fc:	4c 8b ac 24 f0 00 00 	mov    0xf0(%rsp),%r13
    4503:	00 
    4504:	4d 31 cd             	xor    %r9,%r13
    4507:	49 c1 c5 0e          	rol    $0xe,%r13
    450b:	49 89 de             	mov    %rbx,%r14
    450e:	49 f7 d6             	not    %r14
    4511:	49 21 ee             	and    %rbp,%r14
    4514:	4d 31 de             	xor    %r11,%r14
    4517:	4d 31 d6             	xor    %r10,%r14
    451a:	4c 89 b4 24 f8 00 00 	mov    %r14,0xf8(%rsp)
    4521:	00 
    4522:	49 89 ea             	mov    %rbp,%r10
    4525:	49 f7 d2             	not    %r10
    4528:	4d 21 e2             	and    %r12,%r10
    452b:	49 31 da             	xor    %rbx,%r10
    452e:	4c 89 94 24 00 01 00 	mov    %r10,0x100(%rsp)
    4535:	00 
    4536:	4d 89 e2             	mov    %r12,%r10
    4539:	49 f7 d2             	not    %r10
    453c:	4d 21 ea             	and    %r13,%r10
    453f:	49 31 ea             	xor    %rbp,%r10
    4542:	4c 89 94 24 08 01 00 	mov    %r10,0x108(%rsp)
    4549:	00 
    454a:	4d 89 ea             	mov    %r13,%r10
    454d:	49 f7 d2             	not    %r10
    4550:	4d 21 da             	and    %r11,%r10
    4553:	4d 31 e2             	xor    %r12,%r10
    4556:	4c 89 94 24 10 01 00 	mov    %r10,0x110(%rsp)
    455d:	00 
    455e:	49 f7 d3             	not    %r11
    4561:	49 21 db             	and    %rbx,%r11
    4564:	4d 31 eb             	xor    %r13,%r11
    4567:	4c 89 9c 24 18 01 00 	mov    %r11,0x118(%rsp)
    456e:	00 
    456f:	4c 8b 54 24 48       	mov    0x48(%rsp),%r10
    4574:	4d 31 c2             	xor    %r8,%r10
    4577:	49 c1 c2 1c          	rol    $0x1c,%r10
    457b:	4c 8b 5c 24 78       	mov    0x78(%rsp),%r11
    4580:	4d 31 cb             	xor    %r9,%r11
    4583:	49 c1 c3 14          	rol    $0x14,%r11
    4587:	4c 8b a4 24 80 00 00 	mov    0x80(%rsp),%r12
    458e:	00 
    458f:	49 31 d4             	xor    %rdx,%r12
    4592:	49 c1 c4 03          	rol    $0x3,%r12
    4596:	48 8b 9c 24 b0 00 00 	mov    0xb0(%rsp),%rbx
    459d:	00 
    459e:	48 31 f3             	xor    %rsi,%rbx
    45a1:	48 c1 c3 2d          	rol    $0x2d,%rbx
    45a5:	48 8b ac 24 e0 00 00 	mov    0xe0(%rsp),%rbp
    45ac:	00 
    45ad:	48 31 fd             	xor    %rdi,%rbp
    45b0:	48 c1 c5 3d          	rol    $0x3d,%rbp
    45b4:	4d 89 dd             	mov    %r11,%r13
    45b7:	49 f7 d5             	not    %r13
    45ba:	4d 21 e5             	and    %r12,%r13
    45bd:	4d 31 d5             	xor    %r10,%r13
    45c0:	4c 89 ac 24 20 01 00 	mov    %r13,0x120(%rsp)
    45c7:	00 
    45c8:	4d 89 e5             	mov    %r12,%r13
    45cb:	49 f7 d5             	not    %r13
    45ce:	49 21 dd             	and    %rbx,%r13
    45d1:	4d 31 dd             	xor    %r11,%r13
    45d4:	4c 89 ac 24 28 01 00 	mov    %r13,0x128(%rsp)
    45db:	00 
    45dc:	49 89 dd             	mov    %rbx,%r13
    45df:	49 f7 d5             	not    %r13
    45e2:	49 21 ed             	and    %rbp,%r13
    45e5:	4d 31 e5             	xor    %r12,%r13
    45e8:	4c 89 ac 24 30 01 00 	mov    %r13,0x130(%rsp)
    45ef:	00 
    45f0:	49 89 ec             	mov    %rbp,%r12
    45f3:	49 f7 d4             	not    %r12
    45f6:	4d 21 d4             	and    %r10,%r12
    45f9:	49 31 dc             	xor    %rbx,%r12
    45fc:	4c 89 a4 24 38 01 00 	mov    %r12,0x138(%rsp)
    4603:	00 
    4604:	49 f7 d2             	not    %r10
    4607:	4d 21 da             	and    %r11,%r10
    460a:	49 31 ea             	xor    %rbp,%r10
    460d:	4c 89 94 24 40 01 00 	mov    %r10,0x140(%rsp)
    4614:	00 
    4615:	4c 8b 54 24 38       	mov    0x38(%rsp),%r10
    461a:	49 31 f2             	xor    %rsi,%r10
    461d:	49 d1 c2             	rol    %r10
    4620:	4c 8b 5c 24 68       	mov    0x68(%rsp),%r11
    4625:	49 31 fb             	xor    %rdi,%r11
    4628:	49 c1 c3 06          	rol    $0x6,%r11
    462c:	4c 8b a4 24 98 00 00 	mov    0x98(%rsp),%r12
    4633:	00 
    4634:	4d 31 c4             	xor    %r8,%r12
    4637:	49 c1 c4 19          	rol    $0x19,%r12
    463b:	48 8b 9c 24 c8 00 00 	mov    0xc8(%rsp),%rbx
    4642:	00 
    4643:	4c 31 cb             	xor    %r9,%rbx
    4646:	48 c1 c3 08          	rol    $0x8,%rbx
    464a:	48 8b ac 24 d0 00 00 	mov    0xd0(%rsp),%rbp
    4651:	00 
    4652:	48 31 d5             	xor    %rdx,%rbp
    4655:	48 c1 c5 12          	rol    $0x12,%rbp
    4659:	4d 89 dd             	mov    %r11,%r13
    465c:	49 f7 d5             	not    %r13
    465f:	4d 21 e5             	and    %r12,%r13
    4662:	4d 31 d5             	xor    %r10,%r13
    4665:	4c 89 ac 24 48 01 00 	mov    %r13,0x148(%rsp)
    466c:	00 
    466d:	4d 89 e5             	mov    %r12,%r13
    4670:	49 f7 d5             	not    %r13
    4673:	49 21 dd             	and    %rbx,%r13
    4676:	4d 31 dd             	xor    %r11,%r13
    4679:	4c 89 ac 24 50 01 00 	mov    %r13,0x150(%rsp)
    4680:	00 
    4681:	49 89 dd             	mov    %rbx,%r13
    4684:	49 f7 d5             	not    %r13
    4687:	49 21 ed             	and    %rbp,%r13
    468a:	4d 31 e5             	xor    %r12,%r13
    468d:	4c 89 ac 24 58 01 00 	mov    %r13,0x158(%rsp)
    4694:	00 
    4695:	49 89 ec             	mov    %rbp,%r12
    4698:	49 f7 d4             	not    %r12
    469b:	4d 21 d4             	and    %r10,%r12
    469e:	49 31 dc             	xor    %rbx,%r12
    46a1:	4c 89 a4 24 60 01 00 	mov    %r12,0x160(%rsp)
    46a8:	00 
    46a9:	49 f7 d2             	not    %r10
    46ac:	4d 21 da             	and    %r11,%r10
    46af:	49 31 ea             	xor    %rbp,%r10
    46b2:	4c 89 94 24 68 01 00 	mov    %r10,0x168(%rsp)
    46b9:	00 
    46ba:	4c 8b 54 24 50       	mov    0x50(%rsp),%r10
    46bf:	4d 31 ca             	xor    %r9,%r10
    46c2:	49 c1 c2 1b          	rol    $0x1b,%r10
    46c6:	4c 8b 5c 24 58       	mov    0x58(%rsp),%r11
    46cb:	49 31 d3             	xor    %rdx,%r11
    46ce:	49 c1 c3 24          	rol    $0x24,%r11
    46d2:	4c 8b a4 24 88 00 00 	mov    0x88(%rsp),%r12
    46d9:	00 
    46da:	49 31 f4             	xor    %rsi,%r12
    46dd:	49 c1 c4 0a          	rol    $0xa,%r12
    46e1:	48 8b 9c 24 b8 00 00 	mov    0xb8(%rsp),%rbx
    46e8:	00 
    46e9:	48 31 fb             	xor    %rdi,%rbx
    46ec:	48 c1 c3 0f          	rol    $0xf,%rbx
    46f0:	48 8b ac 24 e8 00 00 	mov    0xe8(%rsp),%rbp
    46f7:	00 
    46f8:	4c 31 c5             	xor    %r8,%rbp
    46fb:	48 c1 c5 38          	rol    $0x38,%rbp
    46ff:	4d 89 dd             	mov    %r11,%r13
    4702:	49 f7 d5             	not    %r13
    4705:	4d 21 e5             	and    %r12,%r13
    4708:	4d 31 d5             	xor    %r10,%r13
    470b:	4c 89 ac 24 70 01 00 	mov    %r13,0x170(%rsp)
    4712:	00 
    4713:	4d 89 e5             	mov    %r12,%r13
    4716:	49 f7 d5             	not    %r13
    4719:	49 21 dd             	and    %rbx,%r13
    471c:	4d 31 dd             	xor    %r11,%r13
    471f:	4c 89 ac 24 78 01 00 	mov    %r13,0x178(%rsp)
    4726:	00 
    4727:	49 89 dd             	mov    %rbx,%r13
    472a:	49 f7 d5             	not    %r13
    472d:	49 21 ed             	and    %rbp,%r13
    4730:	4d 31 e5             	xor    %r12,%r13
    4733:	4c 89 ac 24 80 01 00 	mov    %r13,0x180(%rsp)
    473a:	00 
    473b:	49 89 ec             	mov    %rbp,%r12
    473e:	49 f7 d4             	not    %r12
    4741:	4d 21 d4             	and    %r10,%r12
    4744:	49 31 dc             	xor    %rbx,%r12
    4747:	4c 89 a4 24 88 01 00 	mov    %r12,0x188(%rsp)
    474e:	00 
    474f:	49 f7 d2             	not    %r10
    4752:	4d 21 da             	and    %r11,%r10
    4755:	49 31 ea             	xor    %rbp,%r10
    4758:	4c 89 94 24 90 01 00 	mov    %r10,0x190(%rsp)
    475f:	00 
    4760:	4c 8b 54 24 40       	mov    0x40(%rsp),%r10
    4765:	49 31 fa             	xor    %rdi,%r10
    4768:	49 c1 c2 3e          	rol    $0x3e,%r10
    476c:	48 8b 7c 24 70       	mov    0x70(%rsp),%rdi
    4771:	4c 31 c7             	xor    %r8,%rdi
    4774:	48 c1 c7 37          	rol    $0x37,%rdi
    4778:	4c 8b 84 24 a0 00 00 	mov    0xa0(%rsp),%r8
    477f:	00 
    4780:	4d 31 c8             	xor    %r9,%r8
    4783:	49 c1 c0 27          	rol    $0x27,%r8
    4787:	4c 8b 8c 24 a8 00 00 	mov    0xa8(%rsp),%r9
    478e:	00 
    478f:	49 31 d1             	xor    %rdx,%r9
    4792:	49 c1 c1 29          	rol    $0x29,%r9
    4796:	48 8b 94 24 d8 00 00 	mov    0xd8(%rsp),%rdx
    479d:	00 
    479e:	48 31 f2             	xor    %rsi,%rdx
    47a1:	48 c1 c2 02          	rol    $0x2,%rdx
    47a5:	48 89 fe             	mov    %rdi,%rsi
    47a8:	48 f7 d6             	not    %rsi
    47ab:	4c 21 c6             	and    %r8,%rsi
    47ae:	4c 31 d6             	xor    %r10,%rsi
    47b1:	48 89 b4 24 98 01 00 	mov    %rsi,0x198(%rsp)
    47b8:	00 
    47b9:	4c 89 c6             	mov    %r8,%rsi
    47bc:	48 f7 d6             	not    %rsi
    47bf:	4c 21 ce             	and    %r9,%rsi
    47c2:	48 31 fe             	xor    %rdi,%rsi
    47c5:	48 89 b4 24 a0 01 00 	mov    %rsi,0x1a0(%rsp)
    47cc:	00 
    47cd:	4c 89 ce             	mov    %r9,%rsi
    47d0:	48 f7 d6             	not    %rsi
    47d3:	48 21 d6             	and    %rdx,%rsi
    47d6:	4c 31 c6             	xor    %r8,%rsi
    47d9:	48 89 b4 24 a8 01 00 	mov    %rsi,0x1a8(%rsp)
    47e0:	00 
    47e1:	48 89 d6             	mov    %rdx,%rsi
    47e4:	48 f7 d6             	not    %rsi
    47e7:	4c 21 d6             	and    %r10,%rsi
    47ea:	4c 31 ce             	xor    %r9,%rsi
    47ed:	48 89 b4 24 b0 01 00 	mov    %rsi,0x1b0(%rsp)
    47f4:	00 
    47f5:	49 f7 d2             	not    %r10
    47f8:	49 21 fa             	and    %rdi,%r10
    47fb:	49 31 d2             	xor    %rdx,%r10
    47fe:	4c 89 94 24 b8 01 00 	mov    %r10,0x1b8(%rsp)
    4805:	00 
    4806:	4c 8b 54 c8 08       	mov    0x8(%rax,%rcx,8),%r10
    480b:	4c 8b 8c 24 f8 00 00 	mov    0xf8(%rsp),%r9
    4812:	00 
    4813:	4c 8b 84 24 00 01 00 	mov    0x100(%rsp),%r8
    481a:	00 
    481b:	4c 8b 9c 24 08 01 00 	mov    0x108(%rsp),%r11
    4822:	00 
    4823:	48 8b 9c 24 10 01 00 	mov    0x110(%rsp),%rbx
    482a:	00 
    482b:	48 8b ac 24 18 01 00 	mov    0x118(%rsp),%rbp
    4832:	00 
    4833:	4c 33 8c 24 20 01 00 	xor    0x120(%rsp),%r9
    483a:	00 
    483b:	4c 33 84 24 28 01 00 	xor    0x128(%rsp),%r8
    4842:	00 
    4843:	4c 33 9c 24 30 01 00 	xor    0x130(%rsp),%r11
    484a:	00 
    484b:	48 33 9c 24 38 01 00 	xor    0x138(%rsp),%rbx
    4852:	00 
    4853:	48 33 ac 24 40 01 00 	xor    0x140(%rsp),%rbp
    485a:	00 
    485b:	4c 33 8c 24 48 01 00 	xor    0x148(%rsp),%r9
    4862:	00 
    4863:	4c 33 84 24 50 01 00 	xor    0x150(%rsp),%r8
    486a:	00 
    486b:	4c 33 9c 24 58 01 00 	xor    0x158(%rsp),%r11
    4872:	00 
    4873:	48 33 9c 24 60 01 00 	xor    0x160(%rsp),%rbx
    487a:	00 
    487b:	48 33 ac 24 68 01 00 	xor    0x168(%rsp),%rbp
    4882:	00 
    4883:	4c 33 8c 24 70 01 00 	xor    0x170(%rsp),%r9
    488a:	00 
    488b:	4c 33 84 24 78 01 00 	xor    0x178(%rsp),%r8
    4892:	00 
    4893:	4c 33 9c 24 80 01 00 	xor    0x180(%rsp),%r11
    489a:	00 
    489b:	48 33 9c 24 88 01 00 	xor    0x188(%rsp),%rbx
    48a2:	00 
    48a3:	48 33 ac 24 90 01 00 	xor    0x190(%rsp),%rbp
    48aa:	00 
    48ab:	4c 33 8c 24 98 01 00 	xor    0x198(%rsp),%r9
    48b2:	00 
    48b3:	4c 33 84 24 a0 01 00 	xor    0x1a0(%rsp),%r8
    48ba:	00 
    48bb:	4c 33 9c 24 a8 01 00 	xor    0x1a8(%rsp),%r11
    48c2:	00 
    48c3:	48 33 9c 24 b0 01 00 	xor    0x1b0(%rsp),%rbx
    48ca:	00 
    48cb:	48 33 ac 24 b8 01 00 	xor    0x1b8(%rsp),%rbp
    48d2:	00 
    48d3:	4c 89 c2             	mov    %r8,%rdx
    48d6:	48 d1 c2             	rol    %rdx
    48d9:	48 31 ea             	xor    %rbp,%rdx
    48dc:	4c 89 de             	mov    %r11,%rsi
    48df:	48 d1 c6             	rol    %rsi
    48e2:	4c 31 ce             	xor    %r9,%rsi
    48e5:	48 89 df             	mov    %rbx,%rdi
    48e8:	48 d1 c7             	rol    %rdi
    48eb:	4c 31 c7             	xor    %r8,%rdi
    48ee:	49 89 e8             	mov    %rbp,%r8
    48f1:	49 d1 c0             	rol    %r8
    48f4:	4d 31 d8             	xor    %r11,%r8
    48f7:	49 d1 c1             	rol    %r9
    48fa:	49 31 d9             	xor    %rbx,%r9
    48fd:	4c 8b 9c 24 f8 00 00 	mov    0xf8(%rsp),%r11
    4904:	00 
    4905:	49 31 d3             	xor    %rdx,%r11
    4908:	48 8b 9c 24 28 01 00 	mov    0x128(%rsp),%rbx
    490f:	00 
    4910:	48 31 f3             	xor    %rsi,%rbx
    4913:	48 c1 c3 2c          	rol    $0x2c,%rbx
    4917:	48 8b ac 24 58 01 00 	mov    0x158(%rsp),%rbp
    491e:	00 
    491f:	48 31 fd             	xor    %rdi,%rbp
    4922:	48 c1 c5 2b          	rol    $0x2b,%rbp
    4926:	4c 8b a4 24 88 01 00 	mov    0x188(%rsp),%r12
    492d:	00 
    492e:	4d 31 c4             	xor    %r8,%r12
    4931:	49 c1 c4 15          	rol    $0x15,%r12
    4935:	4c 8b ac 24 b8 01 00 	mov    0x1b8(%rsp),%r13
    493c:	00 
    493d:	4d 31 cd             	xor    %r9,%r13
    4940:	49 c1 c5 0e          	rol    $0xe,%r13
    4944:	49 89 de             	mov    %rbx,%r14
    4947:	49 f7 d6             	not    %r14
    494a:	49 21 ee             	and    %rbp,%r14
    494d:	4d 31 de             	xor    %r11,%r14
    4950:	4d 31 d6             	xor    %r10,%r14
    4953:	4c 89 74 24 30       	mov    %r14,0x30(%rsp)
    4958:	49 89 ea             	mov    %rbp,%r10
    495b:	49 f7 d2             	not    %r10
    495e:	4d 21 e2             	and    %r12,%r10
    4961:	49 31 da             	xor    %rbx,%r10
    4964:	4c 89 54 24 38       	mov    %r10,0x38(%rsp)
    4969:	4d 89 e2             	mov    %r12,%r10
    496c:	49 f7 d2             	not    %r10
    496f:	4d 21 ea             	and    %r13,%r10
    4972:	49 31 ea             	xor    %rbp,%r10
    4975:	4c 89 54 24 40       	mov    %r10,0x40(%rsp)
    497a:	4d 89 ea             	mov    %r13,%r10
    497d:	49 f7 d2             	not    %r10
    4980:	4d 21 da             	and    %r11,%r10
    4983:	4d 31 e2             	xor    %r12,%r10
    4986:	4c 89 54 24 48       	mov    %r10,0x48(%rsp)
    498b:	49 f7 d3             	not    %r11
    498e:	49 21 db             	and    %rbx,%r11
    4991:	4d 31 eb             	xor    %r13,%r11
    4994:	4c 89 5c 24 50       	mov    %r11,0x50(%rsp)
    4999:	4c 8b 94 24 10 01 00 	mov    0x110(%rsp),%r10
    49a0:	00 
    49a1:	4d 31 c2             	xor    %r8,%r10
    49a4:	49 c1 c2 1c          	rol    $0x1c,%r10
    49a8:	4c 8b 9c 24 40 01 00 	mov    0x140(%rsp),%r11
    49af:	00 
    49b0:	4d 31 cb             	xor    %r9,%r11
    49b3:	49 c1 c3 14          	rol    $0x14,%r11
    49b7:	4c 8b a4 24 48 01 00 	mov    0x148(%rsp),%r12
    49be:	00 
    49bf:	49 31 d4             	xor    %rdx,%r12
    49c2:	49 c1 c4 03          	rol    $0x3,%r12
    49c6:	48 8b 9c 24 78 01 00 	mov    0x178(%rsp),%rbx
    49cd:	00 
    49ce:	48 31 f3             	xor    %rsi,%rbx
    49d1:	48 c1 c3 2d          	rol    $0x2d,%rbx
    49d5:	48 8b ac 24 a8 01 00 	mov    0x1a8(%rsp),%rbp
    49dc:	00 
    49dd:	48 31 fd             	xor    %rdi,%rbp
    49e0:	48 c1 c5 3d          	rol    $0x3d,%rbp
    49e4:	4d 89 dd             	mov    %r11,%r13
    49e7:	49 f7 d5             	not    %r13
    49ea:	4d 21 e5             	and    %r12,%r13
    49ed:	4d 31 d5             	xor    %r10,%r13
    49f0:	4c 89 6c 24 58       	mov    %r13,0x58(%rsp)
    49f5:	4d 89 e5             	mov    %r12,%r13
    49f8:	49 f7 d5             	not    %r13
    49fb:	49 21 dd             	and    %rbx,%r13
    49fe:	4d 31 dd             	xor    %r11,%r13
    4a01:	4c 89 6c 24 60       	mov    %r13,0x60(%rsp)
    4a06:	49 89 dd             	mov    %rbx,%r13
    4a09:	49 f7 d5             	not    %r13
    4a0c:	49 21 ed             	and    %rbp,%r13
    4a0f:	4d 31 e5             	xor    %r12,%r13
    4a12:	4c 89 6c 24 68       	mov    %r13,0x68(%rsp)
    4a17:	49 89 ec             	mov    %rbp,%r12
    4a1a:	49 f7 d4             	not    %r12
    4a1d:	4d 21 d4             	and    %r10,%r12
    4a20:	49 31 dc             	xor    %rbx,%r12
    4a23:	4c 89 64 24 70       	mov    %r12,0x70(%rsp)
    4a28:	49 f7 d2             	not    %r10
    4a2b:	4d 21 da             	and    %r11,%r10
    4a2e:	49 31 ea             	xor    %rbp,%r10
    4a31:	4c 89 54 24 78       	mov    %r10,0x78(%rsp)
    4a36:	4c 8b 94 24 00 01 00 	mov    0x100(%rsp),%r10
    4a3d:	00 
    4a3e:	49 31 f2             	xor    %rsi,%r10
    4a41:	49 d1 c2             	rol    %r10
    4a44:	4c 8b 9c 24 30 01 00 	mov    0x130(%rsp),%r11
    4a4b:	00 
    4a4c:	49 31 fb             	xor    %rdi,%r11
    4a4f:	49 c1 c3 06          	rol    $0x6,%r11
    4a53:	4c 8b a4 24 60 01 00 	mov    0x160(%rsp),%r12
    4a5a:	00 
    4a5b:	4d 31 c4             	xor    %r8,%r12
    4a5e:	49 c1 c4 19          	rol    $0x19,%r12
    4a62:	48 8b 9c 24 90 01 00 	mov    0x190(%rsp),%rbx
    4a69:	00 
    4a6a:	4c 31 cb             	xor    %r9,%rbx
    4a6d:	48 c1 c3 08          	rol    $0x8,%rbx
    4a71:	48 8b ac 24 98 01 00 	mov    0x198(%rsp),%rbp
    4a78:	00 
    4a79:	48 31 d5             	xor    %rdx,%rbp
    4a7c:	48 c1 c5 12          	rol    $0x12,%rbp
    4a80:	4d 89 dd             	mov    %r11,%r13
    4a83:	49 f7 d5             	not    %r13
    4a86:	4d 21 e5             	and    %r12,%r13
    4a89:	4d 31 d5             	xor    %r10,%r13
    4a8c:	4c 89 ac 24 80 00 00 	mov    %r13,0x80(%rsp)
    4a93:	00 
    4a94:	4d 89 e5             	mov    %r12,%r13
    4a97:	49 f7 d5             	not    %r13
    4a9a:	49 21 dd             	and    %rbx,%r13
    4a9d:	4d 31 dd             	xor    %r11,%r13
    4aa0:	4c 89 ac 24 88 00 00 	mov    %r13,0x88(%rsp)
    4aa7:	00 
    4aa8:	49 89 dd             	mov    %rbx,%r13
    4aab:	49 f7 d5             	not    %r13
    4aae:	49 21 ed             	and    %rbp,%r13
    4ab1:	4d 31 e5             	xor    %r12,%r13
    4ab4:	4c 89 ac 24 90 00 00 	mov    %r13,0x90(%rsp)
    4abb:	00 
    4abc:	49 89 ec             	mov    %rbp,%r12
    4abf:	49 f7 d4             	not    %r12
    4ac2:	4d 21 d4             	and    %r10,%r12
    4ac5:	49 31 dc             	xor    %rbx,%r12
    4ac8:	4c 89 a4 24 98 00 00 	mov    %r12,0x98(%rsp)
    4acf:	00 
    4ad0:	49 f7 d2             	not    %r10
    4ad3:	4d 21 da             	and    %r11,%r10
    4ad6:	49 31 ea             	xor    %rbp,%r10
    4ad9:	4c 89 94 24 a0 00 00 	mov    %r10,0xa0(%rsp)
    4ae0:	00 
    4ae1:	4c 8b 94 24 18 01 00 	mov    0x118(%rsp),%r10
    4ae8:	00 
    4ae9:	4d 31 ca             	xor    %r9,%r10
    4aec:	49 c1 c2 1b          	rol    $0x1b,%r10
    4af0:	4c 8b 9c 24 20 01 00 	mov    0x120(%rsp),%r11
    4af7:	00 
    4af8:	49 31 d3             	xor    %rdx,%r11
    4afb:	49 c1 c3 24          	rol    $0x24,%r11
    4aff:	4c 8b a4 24 50 01 00 	mov    0x150(%rsp),%r12
    4b06:	00 
    4b07:	49 31 f4             	xor    %rsi,%r12
    4b0a:	49 c1 c4 0a          	rol    $0xa,%r12
    4b0e:	48 8b 9c 24 80 01 00 	mov    0x180(%rsp),%rbx
    4b15:	00 
    4b16:	48 31 fb             	xor    %rdi,%rbx
    4b19:	48 c1 c3 0f          	rol    $0xf,%rbx
    4b1d:	48 8b ac 24 b0 01 00 	mov    0x1b0(%rsp),%rbp
    4b24:	00 
    4b25:	4c 31 c5             	xor    %r8,%rbp
    4b28:	48 c1 c5 38          	rol    $0x38,%rbp
    4b2c:	4d 89 dd             	mov    %r11,%r13
    4b2f:	49 f7 d5             	not    %r13
    4b32:	4d 21 e5             	and    %r12,%r13
    4b35:	4d 31 d5             	xor    %r10,%r13
    4b38:	4c 89 ac 24 a8 00 00 	mov    %r13,0xa8(%rsp)
    4b3f:	00 
    4b40:	4d 89 e5             	mov    %r12,%r13
    4b43:	49 f7 d5             	not    %r13
    4b46:	49 21 dd             	and    %rbx,%r13
    4b49:	4d 31 dd             	xor    %r11,%r13
    4b4c:	4c 89 ac 24 b0 00 00 	mov    %r13,0xb0(%rsp)
    4b53:	00 
    4b54:	49 89 dd             	mov    %rbx,%r13
    4b57:	49 f7 d5             	not    %r13
    4b5a:	49 21 ed             	and    %rbp,%r13
    4b5d:	4d 31 e5             	xor    %r12,%r13
    4b60:	4c 89 ac 24 b8 00 00 	mov    %r13,0xb8(%rsp)
    4b67:	00 
    4b68:	49 89 ec             	mov    %rbp,%r12
    4b6b:	49 f7 d4             	not    %r12
    4b6e:	4d 21 d4             	and    %r10,%r12
    4b71:	49 31 dc             	xor    %rbx,%r12
    4b74:	4c 89 a4 24 c0 00 00 	mov    %r12,0xc0(%rsp)
    4b7b:	00 
    4b7c:	49 f7 d2             	not    %r10
    4b7f:	4d 21 da             	and    %r11,%r10
    4b82:	49 31 ea             	xor    %rbp,%r10
    4b85:	4c 89 94 24 c8 00 00 	mov    %r10,0xc8(%rsp)
    4b8c:	00 
    4b8d:	4c 8b 94 24 08 01 00 	mov    0x108(%rsp),%r10
    4b94:	00 
    4b95:	49 31 fa             	xor    %rdi,%r10
    4b98:	49 c1 c2 3e          	rol    $0x3e,%r10
    4b9c:	48 8b bc 24 38 01 00 	mov    0x138(%rsp),%rdi
    4ba3:	00 
    4ba4:	4c 31 c7             	xor    %r8,%rdi
    4ba7:	48 c1 c7 37          	rol    $0x37,%rdi
    4bab:	4c 8b 84 24 68 01 00 	mov    0x168(%rsp),%r8
    4bb2:	00 
    4bb3:	4d 31 c8             	xor    %r9,%r8
    4bb6:	49 c1 c0 27          	rol    $0x27,%r8
    4bba:	4c 8b 8c 24 70 01 00 	mov    0x170(%rsp),%r9
    4bc1:	00 
    4bc2:	49 31 d1             	xor    %rdx,%r9
    4bc5:	49 c1 c1 29          	rol    $0x29,%r9
    4bc9:	48 8b 94 24 a0 01 00 	mov    0x1a0(%rsp),%rdx
    4bd0:	00 
    4bd1:	48 31 f2             	xor    %rsi,%rdx
    4bd4:	48 c1 c2 02          	rol    $0x2,%rdx
    4bd8:	48 89 fe             	mov    %rdi,%rsi
    4bdb:	48 f7 d6             	not    %rsi
    4bde:	4c 21 c6             	and    %r8,%rsi
    4be1:	4c 31 d6             	xor    %r10,%rsi
    4be4:	48 89 b4 24 d0 00 00 	mov    %rsi,0xd0(%rsp)
    4beb:	00 
    4bec:	4c 89 c6             	mov    %r8,%rsi
    4bef:	48 f7 d6             	not    %rsi
    4bf2:	4c 21 ce             	and    %r9,%rsi
    4bf5:	48 31 fe             	xor    %rdi,%rsi
    4bf8:	48 89 b4 24 d8 00 00 	mov    %rsi,0xd8(%rsp)
    4bff:	00 
    4c00:	4c 89 ce             	mov    %r9,%rsi
    4c03:	48 f7 d6             	not    %rsi
    4c06:	48 21 d6             	and    %rdx,%rsi
    4c09:	4c 31 c6             	xor    %r8,%rsi
    4c0c:	48 89 b4 24 e0 00 00 	mov    %rsi,0xe0(%rsp)
    4c13:	00 
    4c14:	48 89 d6             	mov    %rdx,%rsi
    4c17:	48 f7 d6             	not    %rsi
    4c1a:	4c 21 d6             	and    %r10,%rsi
    4c1d:	4c 31 ce             	xor    %r9,%rsi
    4c20:	48 89 b4 24 e8 00 00 	mov    %rsi,0xe8(%rsp)
    4c27:	00 
    4c28:	49 f7 d2             	not    %r10
    4c2b:	49 21 fa             	and    %rdi,%r10
    4c2e:	49 31 d2             	xor    %rdx,%r10
    4c31:	4c 89 94 24 f0 00 00 	mov    %r10,0xf0(%rsp)
    4c38:	00 
    4c39:	48 83 c1 02          	add    $0x2,%rcx

0000000000004c3d <L_keccak1600_ref$6>:
    4c3d:	48 83 f9 17          	cmp    $0x17,%rcx
    4c41:	0f 82 ab f7 ff ff    	jb     43f2 <L_keccak1600_ref$7>
    4c47:	48 8b 44 24 08       	mov    0x8(%rsp),%rax
    4c4c:	48 8b 4c 24 28       	mov    0x28(%rsp),%rcx
    4c51:	48 89 ca             	mov    %rcx,%rdx
    4c54:	48 c1 ea 03          	shr    $0x3,%rdx
    4c58:	48 c7 c6 00 00 00 00 	mov    $0x0,%rsi
    4c5f:	eb 0c                	jmp    4c6d <L_keccak1600_ref$4>

0000000000004c61 <L_keccak1600_ref$5>:
    4c61:	48 8b 7c f4 30       	mov    0x30(%rsp,%rsi,8),%rdi
    4c66:	48 89 3c f0          	mov    %rdi,(%rax,%rsi,8)
    4c6a:	48 ff c6             	inc    %rsi

0000000000004c6d <L_keccak1600_ref$4>:
    4c6d:	48 39 d6             	cmp    %rdx,%rsi
    4c70:	72 ef                	jb     4c61 <L_keccak1600_ref$5>
    4c72:	48 c1 e6 03          	shl    $0x3,%rsi
    4c76:	eb 0a                	jmp    4c82 <L_keccak1600_ref$2>

0000000000004c78 <L_keccak1600_ref$3>:
    4c78:	8a 54 34 30          	mov    0x30(%rsp,%rsi,1),%dl
    4c7c:	88 14 30             	mov    %dl,(%rax,%rsi,1)
    4c7f:	48 ff c6             	inc    %rsi

0000000000004c82 <L_keccak1600_ref$2>:
    4c82:	48 39 ce             	cmp    %rcx,%rsi
    4c85:	72 f1                	jb     4c78 <L_keccak1600_ref$3>
    4c87:	c3                   	ret    
    4c88:	66 2e 0f 1f 84 00 00 	cs nopw 0x0(%rax,%rax,1)
    4c8f:	00 00 00 
    4c92:	66 2e 0f 1f 84 00 00 	cs nopw 0x0(%rax,%rax,1)
    4c99:	00 00 00 
    4c9c:	0f 1f 40 00          	nopl   0x0(%rax)

0000000000004ca0 <_jade_hash_sha3_512_amd64>:
    4ca0:	48 89 e0             	mov    %rsp,%rax
    4ca3:	48 8d 64 24 d0       	lea    -0x30(%rsp),%rsp
    4ca8:	48 83 e4 f8          	and    $0xfffffffffffffff8,%rsp
    4cac:	48 89 1c 24          	mov    %rbx,(%rsp)
    4cb0:	48 89 6c 24 08       	mov    %rbp,0x8(%rsp)
    4cb5:	4c 89 64 24 10       	mov    %r12,0x10(%rsp)
    4cba:	4c 89 6c 24 18       	mov    %r13,0x18(%rsp)
    4cbf:	4c 89 74 24 20       	mov    %r14,0x20(%rsp)
    4cc4:	48 89 44 24 28       	mov    %rax,0x28(%rsp)
    4cc9:	48 c7 c1 40 00 00 00 	mov    $0x40,%rcx
    4cd0:	41 b0 06             	mov    $0x6,%r8b
    4cd3:	48 c7 c0 48 00 00 00 	mov    $0x48,%rax
    4cda:	48 8d a4 24 40 fe ff 	lea    -0x1c0(%rsp),%rsp
    4ce1:	ff 
    4ce2:	e8 29 00 00 00       	call   4d10 <L_keccak1600_ref$1>

0000000000004ce7 <Ljade_hash_sha3_512_amd64$1>:
    4ce7:	48 8d a4 24 c0 01 00 	lea    0x1c0(%rsp),%rsp
    4cee:	00 
    4cef:	48 31 c0             	xor    %rax,%rax
    4cf2:	48 8b 1c 24          	mov    (%rsp),%rbx
    4cf6:	48 8b 6c 24 08       	mov    0x8(%rsp),%rbp
    4cfb:	4c 8b 64 24 10       	mov    0x10(%rsp),%r12
    4d00:	4c 8b 6c 24 18       	mov    0x18(%rsp),%r13
    4d05:	4c 8b 74 24 20       	mov    0x20(%rsp),%r14
    4d0a:	48 8b 64 24 28       	mov    0x28(%rsp),%rsp
    4d0f:	c3                   	ret    

0000000000004d10 <L_keccak1600_ref$1>:
    4d10:	48 89 7c 24 08       	mov    %rdi,0x8(%rsp)
    4d15:	48 89 4c 24 10       	mov    %rcx,0x10(%rsp)
    4d1a:	44 88 84 24 c0 01 00 	mov    %r8b,0x1c0(%rsp)
    4d21:	00 
    4d22:	48 31 c9             	xor    %rcx,%rcx
    4d25:	48 89 4c 24 30       	mov    %rcx,0x30(%rsp)
    4d2a:	48 89 4c 24 38       	mov    %rcx,0x38(%rsp)
    4d2f:	48 89 4c 24 40       	mov    %rcx,0x40(%rsp)
    4d34:	48 89 4c 24 48       	mov    %rcx,0x48(%rsp)
    4d39:	48 89 4c 24 50       	mov    %rcx,0x50(%rsp)
    4d3e:	48 89 4c 24 58       	mov    %rcx,0x58(%rsp)
    4d43:	48 89 4c 24 60       	mov    %rcx,0x60(%rsp)
    4d48:	48 89 4c 24 68       	mov    %rcx,0x68(%rsp)
    4d4d:	48 89 4c 24 70       	mov    %rcx,0x70(%rsp)
    4d52:	48 89 4c 24 78       	mov    %rcx,0x78(%rsp)
    4d57:	48 89 8c 24 80 00 00 	mov    %rcx,0x80(%rsp)
    4d5e:	00 
    4d5f:	48 89 8c 24 88 00 00 	mov    %rcx,0x88(%rsp)
    4d66:	00 
    4d67:	48 89 8c 24 90 00 00 	mov    %rcx,0x90(%rsp)
    4d6e:	00 
    4d6f:	48 89 8c 24 98 00 00 	mov    %rcx,0x98(%rsp)
    4d76:	00 
    4d77:	48 89 8c 24 a0 00 00 	mov    %rcx,0xa0(%rsp)
    4d7e:	00 
    4d7f:	48 89 8c 24 a8 00 00 	mov    %rcx,0xa8(%rsp)
    4d86:	00 
    4d87:	48 89 8c 24 b0 00 00 	mov    %rcx,0xb0(%rsp)
    4d8e:	00 
    4d8f:	48 89 8c 24 b8 00 00 	mov    %rcx,0xb8(%rsp)
    4d96:	00 
    4d97:	48 89 8c 24 c0 00 00 	mov    %rcx,0xc0(%rsp)
    4d9e:	00 
    4d9f:	48 89 8c 24 c8 00 00 	mov    %rcx,0xc8(%rsp)
    4da6:	00 
    4da7:	48 89 8c 24 d0 00 00 	mov    %rcx,0xd0(%rsp)
    4dae:	00 
    4daf:	48 89 8c 24 d8 00 00 	mov    %rcx,0xd8(%rsp)
    4db6:	00 
    4db7:	48 89 8c 24 e0 00 00 	mov    %rcx,0xe0(%rsp)
    4dbe:	00 
    4dbf:	48 89 8c 24 e8 00 00 	mov    %rcx,0xe8(%rsp)
    4dc6:	00 
    4dc7:	48 89 8c 24 f0 00 00 	mov    %rcx,0xf0(%rsp)
    4dce:	00 
    4dcf:	e9 ad 08 00 00       	jmp    5681 <L_keccak1600_ref$18>

0000000000004dd4 <L_keccak1600_ref$19>:
    4dd4:	48 89 c1             	mov    %rax,%rcx
    4dd7:	48 c1 e9 03          	shr    $0x3,%rcx
    4ddb:	48 c7 c7 00 00 00 00 	mov    $0x0,%rdi
    4de2:	eb 0c                	jmp    4df0 <L_keccak1600_ref$22>

0000000000004de4 <L_keccak1600_ref$23>:
    4de4:	4c 8b 04 fe          	mov    (%rsi,%rdi,8),%r8
    4de8:	4c 31 44 fc 30       	xor    %r8,0x30(%rsp,%rdi,8)
    4ded:	48 ff c7             	inc    %rdi

0000000000004df0 <L_keccak1600_ref$22>:
    4df0:	48 39 cf             	cmp    %rcx,%rdi
    4df3:	72 ef                	jb     4de4 <L_keccak1600_ref$23>
    4df5:	48 01 c6             	add    %rax,%rsi
    4df8:	48 29 c2             	sub    %rax,%rdx
    4dfb:	48 89 74 24 18       	mov    %rsi,0x18(%rsp)
    4e00:	48 89 54 24 20       	mov    %rdx,0x20(%rsp)
    4e05:	48 89 44 24 28       	mov    %rax,0x28(%rsp)
    4e0a:	48 8d 05 8f 45 00 00 	lea    0x458f(%rip),%rax        # 93a0 <G$KECCAK1600_RC>
    4e11:	48 c7 c1 00 00 00 00 	mov    $0x0,%rcx
    4e18:	e9 4b 08 00 00       	jmp    5668 <L_keccak1600_ref$20>

0000000000004e1d <L_keccak1600_ref$21>:
    4e1d:	4c 8b 14 c8          	mov    (%rax,%rcx,8),%r10
    4e21:	4c 8b 4c 24 30       	mov    0x30(%rsp),%r9
    4e26:	4c 8b 44 24 38       	mov    0x38(%rsp),%r8
    4e2b:	4c 8b 5c 24 40       	mov    0x40(%rsp),%r11
    4e30:	48 8b 5c 24 48       	mov    0x48(%rsp),%rbx
    4e35:	48 8b 6c 24 50       	mov    0x50(%rsp),%rbp
    4e3a:	4c 33 4c 24 58       	xor    0x58(%rsp),%r9
    4e3f:	4c 33 44 24 60       	xor    0x60(%rsp),%r8
    4e44:	4c 33 5c 24 68       	xor    0x68(%rsp),%r11
    4e49:	48 33 5c 24 70       	xor    0x70(%rsp),%rbx
    4e4e:	48 33 6c 24 78       	xor    0x78(%rsp),%rbp
    4e53:	4c 33 8c 24 80 00 00 	xor    0x80(%rsp),%r9
    4e5a:	00 
    4e5b:	4c 33 84 24 88 00 00 	xor    0x88(%rsp),%r8
    4e62:	00 
    4e63:	4c 33 9c 24 90 00 00 	xor    0x90(%rsp),%r11
    4e6a:	00 
    4e6b:	48 33 9c 24 98 00 00 	xor    0x98(%rsp),%rbx
    4e72:	00 
    4e73:	48 33 ac 24 a0 00 00 	xor    0xa0(%rsp),%rbp
    4e7a:	00 
    4e7b:	4c 33 8c 24 a8 00 00 	xor    0xa8(%rsp),%r9
    4e82:	00 
    4e83:	4c 33 84 24 b0 00 00 	xor    0xb0(%rsp),%r8
    4e8a:	00 
    4e8b:	4c 33 9c 24 b8 00 00 	xor    0xb8(%rsp),%r11
    4e92:	00 
    4e93:	48 33 9c 24 c0 00 00 	xor    0xc0(%rsp),%rbx
    4e9a:	00 
    4e9b:	48 33 ac 24 c8 00 00 	xor    0xc8(%rsp),%rbp
    4ea2:	00 
    4ea3:	4c 33 8c 24 d0 00 00 	xor    0xd0(%rsp),%r9
    4eaa:	00 
    4eab:	4c 33 84 24 d8 00 00 	xor    0xd8(%rsp),%r8
    4eb2:	00 
    4eb3:	4c 33 9c 24 e0 00 00 	xor    0xe0(%rsp),%r11
    4eba:	00 
    4ebb:	48 33 9c 24 e8 00 00 	xor    0xe8(%rsp),%rbx
    4ec2:	00 
    4ec3:	48 33 ac 24 f0 00 00 	xor    0xf0(%rsp),%rbp
    4eca:	00 
    4ecb:	4c 89 c2             	mov    %r8,%rdx
    4ece:	48 d1 c2             	rol    %rdx
    4ed1:	48 31 ea             	xor    %rbp,%rdx
    4ed4:	4c 89 de             	mov    %r11,%rsi
    4ed7:	48 d1 c6             	rol    %rsi
    4eda:	4c 31 ce             	xor    %r9,%rsi
    4edd:	48 89 df             	mov    %rbx,%rdi
    4ee0:	48 d1 c7             	rol    %rdi
    4ee3:	4c 31 c7             	xor    %r8,%rdi
    4ee6:	49 89 e8             	mov    %rbp,%r8
    4ee9:	49 d1 c0             	rol    %r8
    4eec:	4d 31 d8             	xor    %r11,%r8
    4eef:	49 d1 c1             	rol    %r9
    4ef2:	49 31 d9             	xor    %rbx,%r9
    4ef5:	4c 8b 5c 24 30       	mov    0x30(%rsp),%r11
    4efa:	49 31 d3             	xor    %rdx,%r11
    4efd:	48 8b 5c 24 60       	mov    0x60(%rsp),%rbx
    4f02:	48 31 f3             	xor    %rsi,%rbx
    4f05:	48 c1 c3 2c          	rol    $0x2c,%rbx
    4f09:	48 8b ac 24 90 00 00 	mov    0x90(%rsp),%rbp
    4f10:	00 
    4f11:	48 31 fd             	xor    %rdi,%rbp
    4f14:	48 c1 c5 2b          	rol    $0x2b,%rbp
    4f18:	4c 8b a4 24 c0 00 00 	mov    0xc0(%rsp),%r12
    4f1f:	00 
    4f20:	4d 31 c4             	xor    %r8,%r12
    4f23:	49 c1 c4 15          	rol    $0x15,%r12
    4f27:	4c 8b ac 24 f0 00 00 	mov    0xf0(%rsp),%r13
    4f2e:	00 
    4f2f:	4d 31 cd             	xor    %r9,%r13
    4f32:	49 c1 c5 0e          	rol    $0xe,%r13
    4f36:	49 89 de             	mov    %rbx,%r14
    4f39:	49 f7 d6             	not    %r14
    4f3c:	49 21 ee             	and    %rbp,%r14
    4f3f:	4d 31 de             	xor    %r11,%r14
    4f42:	4d 31 d6             	xor    %r10,%r14
    4f45:	4c 89 b4 24 f8 00 00 	mov    %r14,0xf8(%rsp)
    4f4c:	00 
    4f4d:	49 89 ea             	mov    %rbp,%r10
    4f50:	49 f7 d2             	not    %r10
    4f53:	4d 21 e2             	and    %r12,%r10
    4f56:	49 31 da             	xor    %rbx,%r10
    4f59:	4c 89 94 24 00 01 00 	mov    %r10,0x100(%rsp)
    4f60:	00 
    4f61:	4d 89 e2             	mov    %r12,%r10
    4f64:	49 f7 d2             	not    %r10
    4f67:	4d 21 ea             	and    %r13,%r10
    4f6a:	49 31 ea             	xor    %rbp,%r10
    4f6d:	4c 89 94 24 08 01 00 	mov    %r10,0x108(%rsp)
    4f74:	00 
    4f75:	4d 89 ea             	mov    %r13,%r10
    4f78:	49 f7 d2             	not    %r10
    4f7b:	4d 21 da             	and    %r11,%r10
    4f7e:	4d 31 e2             	xor    %r12,%r10
    4f81:	4c 89 94 24 10 01 00 	mov    %r10,0x110(%rsp)
    4f88:	00 
    4f89:	49 f7 d3             	not    %r11
    4f8c:	49 21 db             	and    %rbx,%r11
    4f8f:	4d 31 eb             	xor    %r13,%r11
    4f92:	4c 89 9c 24 18 01 00 	mov    %r11,0x118(%rsp)
    4f99:	00 
    4f9a:	4c 8b 54 24 48       	mov    0x48(%rsp),%r10
    4f9f:	4d 31 c2             	xor    %r8,%r10
    4fa2:	49 c1 c2 1c          	rol    $0x1c,%r10
    4fa6:	4c 8b 5c 24 78       	mov    0x78(%rsp),%r11
    4fab:	4d 31 cb             	xor    %r9,%r11
    4fae:	49 c1 c3 14          	rol    $0x14,%r11
    4fb2:	4c 8b a4 24 80 00 00 	mov    0x80(%rsp),%r12
    4fb9:	00 
    4fba:	49 31 d4             	xor    %rdx,%r12
    4fbd:	49 c1 c4 03          	rol    $0x3,%r12
    4fc1:	48 8b 9c 24 b0 00 00 	mov    0xb0(%rsp),%rbx
    4fc8:	00 
    4fc9:	48 31 f3             	xor    %rsi,%rbx
    4fcc:	48 c1 c3 2d          	rol    $0x2d,%rbx
    4fd0:	48 8b ac 24 e0 00 00 	mov    0xe0(%rsp),%rbp
    4fd7:	00 
    4fd8:	48 31 fd             	xor    %rdi,%rbp
    4fdb:	48 c1 c5 3d          	rol    $0x3d,%rbp
    4fdf:	4d 89 dd             	mov    %r11,%r13
    4fe2:	49 f7 d5             	not    %r13
    4fe5:	4d 21 e5             	and    %r12,%r13
    4fe8:	4d 31 d5             	xor    %r10,%r13
    4feb:	4c 89 ac 24 20 01 00 	mov    %r13,0x120(%rsp)
    4ff2:	00 
    4ff3:	4d 89 e5             	mov    %r12,%r13
    4ff6:	49 f7 d5             	not    %r13
    4ff9:	49 21 dd             	and    %rbx,%r13
    4ffc:	4d 31 dd             	xor    %r11,%r13
    4fff:	4c 89 ac 24 28 01 00 	mov    %r13,0x128(%rsp)
    5006:	00 
    5007:	49 89 dd             	mov    %rbx,%r13
    500a:	49 f7 d5             	not    %r13
    500d:	49 21 ed             	and    %rbp,%r13
    5010:	4d 31 e5             	xor    %r12,%r13
    5013:	4c 89 ac 24 30 01 00 	mov    %r13,0x130(%rsp)
    501a:	00 
    501b:	49 89 ec             	mov    %rbp,%r12
    501e:	49 f7 d4             	not    %r12
    5021:	4d 21 d4             	and    %r10,%r12
    5024:	49 31 dc             	xor    %rbx,%r12
    5027:	4c 89 a4 24 38 01 00 	mov    %r12,0x138(%rsp)
    502e:	00 
    502f:	49 f7 d2             	not    %r10
    5032:	4d 21 da             	and    %r11,%r10
    5035:	49 31 ea             	xor    %rbp,%r10
    5038:	4c 89 94 24 40 01 00 	mov    %r10,0x140(%rsp)
    503f:	00 
    5040:	4c 8b 54 24 38       	mov    0x38(%rsp),%r10
    5045:	49 31 f2             	xor    %rsi,%r10
    5048:	49 d1 c2             	rol    %r10
    504b:	4c 8b 5c 24 68       	mov    0x68(%rsp),%r11
    5050:	49 31 fb             	xor    %rdi,%r11
    5053:	49 c1 c3 06          	rol    $0x6,%r11
    5057:	4c 8b a4 24 98 00 00 	mov    0x98(%rsp),%r12
    505e:	00 
    505f:	4d 31 c4             	xor    %r8,%r12
    5062:	49 c1 c4 19          	rol    $0x19,%r12
    5066:	48 8b 9c 24 c8 00 00 	mov    0xc8(%rsp),%rbx
    506d:	00 
    506e:	4c 31 cb             	xor    %r9,%rbx
    5071:	48 c1 c3 08          	rol    $0x8,%rbx
    5075:	48 8b ac 24 d0 00 00 	mov    0xd0(%rsp),%rbp
    507c:	00 
    507d:	48 31 d5             	xor    %rdx,%rbp
    5080:	48 c1 c5 12          	rol    $0x12,%rbp
    5084:	4d 89 dd             	mov    %r11,%r13
    5087:	49 f7 d5             	not    %r13
    508a:	4d 21 e5             	and    %r12,%r13
    508d:	4d 31 d5             	xor    %r10,%r13
    5090:	4c 89 ac 24 48 01 00 	mov    %r13,0x148(%rsp)
    5097:	00 
    5098:	4d 89 e5             	mov    %r12,%r13
    509b:	49 f7 d5             	not    %r13
    509e:	49 21 dd             	and    %rbx,%r13
    50a1:	4d 31 dd             	xor    %r11,%r13
    50a4:	4c 89 ac 24 50 01 00 	mov    %r13,0x150(%rsp)
    50ab:	00 
    50ac:	49 89 dd             	mov    %rbx,%r13
    50af:	49 f7 d5             	not    %r13
    50b2:	49 21 ed             	and    %rbp,%r13
    50b5:	4d 31 e5             	xor    %r12,%r13
    50b8:	4c 89 ac 24 58 01 00 	mov    %r13,0x158(%rsp)
    50bf:	00 
    50c0:	49 89 ec             	mov    %rbp,%r12
    50c3:	49 f7 d4             	not    %r12
    50c6:	4d 21 d4             	and    %r10,%r12
    50c9:	49 31 dc             	xor    %rbx,%r12
    50cc:	4c 89 a4 24 60 01 00 	mov    %r12,0x160(%rsp)
    50d3:	00 
    50d4:	49 f7 d2             	not    %r10
    50d7:	4d 21 da             	and    %r11,%r10
    50da:	49 31 ea             	xor    %rbp,%r10
    50dd:	4c 89 94 24 68 01 00 	mov    %r10,0x168(%rsp)
    50e4:	00 
    50e5:	4c 8b 54 24 50       	mov    0x50(%rsp),%r10
    50ea:	4d 31 ca             	xor    %r9,%r10
    50ed:	49 c1 c2 1b          	rol    $0x1b,%r10
    50f1:	4c 8b 5c 24 58       	mov    0x58(%rsp),%r11
    50f6:	49 31 d3             	xor    %rdx,%r11
    50f9:	49 c1 c3 24          	rol    $0x24,%r11
    50fd:	4c 8b a4 24 88 00 00 	mov    0x88(%rsp),%r12
    5104:	00 
    5105:	49 31 f4             	xor    %rsi,%r12
    5108:	49 c1 c4 0a          	rol    $0xa,%r12
    510c:	48 8b 9c 24 b8 00 00 	mov    0xb8(%rsp),%rbx
    5113:	00 
    5114:	48 31 fb             	xor    %rdi,%rbx
    5117:	48 c1 c3 0f          	rol    $0xf,%rbx
    511b:	48 8b ac 24 e8 00 00 	mov    0xe8(%rsp),%rbp
    5122:	00 
    5123:	4c 31 c5             	xor    %r8,%rbp
    5126:	48 c1 c5 38          	rol    $0x38,%rbp
    512a:	4d 89 dd             	mov    %r11,%r13
    512d:	49 f7 d5             	not    %r13
    5130:	4d 21 e5             	and    %r12,%r13
    5133:	4d 31 d5             	xor    %r10,%r13
    5136:	4c 89 ac 24 70 01 00 	mov    %r13,0x170(%rsp)
    513d:	00 
    513e:	4d 89 e5             	mov    %r12,%r13
    5141:	49 f7 d5             	not    %r13
    5144:	49 21 dd             	and    %rbx,%r13
    5147:	4d 31 dd             	xor    %r11,%r13
    514a:	4c 89 ac 24 78 01 00 	mov    %r13,0x178(%rsp)
    5151:	00 
    5152:	49 89 dd             	mov    %rbx,%r13
    5155:	49 f7 d5             	not    %r13
    5158:	49 21 ed             	and    %rbp,%r13
    515b:	4d 31 e5             	xor    %r12,%r13
    515e:	4c 89 ac 24 80 01 00 	mov    %r13,0x180(%rsp)
    5165:	00 
    5166:	49 89 ec             	mov    %rbp,%r12
    5169:	49 f7 d4             	not    %r12
    516c:	4d 21 d4             	and    %r10,%r12
    516f:	49 31 dc             	xor    %rbx,%r12
    5172:	4c 89 a4 24 88 01 00 	mov    %r12,0x188(%rsp)
    5179:	00 
    517a:	49 f7 d2             	not    %r10
    517d:	4d 21 da             	and    %r11,%r10
    5180:	49 31 ea             	xor    %rbp,%r10
    5183:	4c 89 94 24 90 01 00 	mov    %r10,0x190(%rsp)
    518a:	00 
    518b:	4c 8b 54 24 40       	mov    0x40(%rsp),%r10
    5190:	49 31 fa             	xor    %rdi,%r10
    5193:	49 c1 c2 3e          	rol    $0x3e,%r10
    5197:	48 8b 7c 24 70       	mov    0x70(%rsp),%rdi
    519c:	4c 31 c7             	xor    %r8,%rdi
    519f:	48 c1 c7 37          	rol    $0x37,%rdi
    51a3:	4c 8b 84 24 a0 00 00 	mov    0xa0(%rsp),%r8
    51aa:	00 
    51ab:	4d 31 c8             	xor    %r9,%r8
    51ae:	49 c1 c0 27          	rol    $0x27,%r8
    51b2:	4c 8b 8c 24 a8 00 00 	mov    0xa8(%rsp),%r9
    51b9:	00 
    51ba:	49 31 d1             	xor    %rdx,%r9
    51bd:	49 c1 c1 29          	rol    $0x29,%r9
    51c1:	48 8b 94 24 d8 00 00 	mov    0xd8(%rsp),%rdx
    51c8:	00 
    51c9:	48 31 f2             	xor    %rsi,%rdx
    51cc:	48 c1 c2 02          	rol    $0x2,%rdx
    51d0:	48 89 fe             	mov    %rdi,%rsi
    51d3:	48 f7 d6             	not    %rsi
    51d6:	4c 21 c6             	and    %r8,%rsi
    51d9:	4c 31 d6             	xor    %r10,%rsi
    51dc:	48 89 b4 24 98 01 00 	mov    %rsi,0x198(%rsp)
    51e3:	00 
    51e4:	4c 89 c6             	mov    %r8,%rsi
    51e7:	48 f7 d6             	not    %rsi
    51ea:	4c 21 ce             	and    %r9,%rsi
    51ed:	48 31 fe             	xor    %rdi,%rsi
    51f0:	48 89 b4 24 a0 01 00 	mov    %rsi,0x1a0(%rsp)
    51f7:	00 
    51f8:	4c 89 ce             	mov    %r9,%rsi
    51fb:	48 f7 d6             	not    %rsi
    51fe:	48 21 d6             	and    %rdx,%rsi
    5201:	4c 31 c6             	xor    %r8,%rsi
    5204:	48 89 b4 24 a8 01 00 	mov    %rsi,0x1a8(%rsp)
    520b:	00 
    520c:	48 89 d6             	mov    %rdx,%rsi
    520f:	48 f7 d6             	not    %rsi
    5212:	4c 21 d6             	and    %r10,%rsi
    5215:	4c 31 ce             	xor    %r9,%rsi
    5218:	48 89 b4 24 b0 01 00 	mov    %rsi,0x1b0(%rsp)
    521f:	00 
    5220:	49 f7 d2             	not    %r10
    5223:	49 21 fa             	and    %rdi,%r10
    5226:	49 31 d2             	xor    %rdx,%r10
    5229:	4c 89 94 24 b8 01 00 	mov    %r10,0x1b8(%rsp)
    5230:	00 
    5231:	4c 8b 54 c8 08       	mov    0x8(%rax,%rcx,8),%r10
    5236:	4c 8b 8c 24 f8 00 00 	mov    0xf8(%rsp),%r9
    523d:	00 
    523e:	4c 8b 84 24 00 01 00 	mov    0x100(%rsp),%r8
    5245:	00 
    5246:	4c 8b 9c 24 08 01 00 	mov    0x108(%rsp),%r11
    524d:	00 
    524e:	48 8b 9c 24 10 01 00 	mov    0x110(%rsp),%rbx
    5255:	00 
    5256:	48 8b ac 24 18 01 00 	mov    0x118(%rsp),%rbp
    525d:	00 
    525e:	4c 33 8c 24 20 01 00 	xor    0x120(%rsp),%r9
    5265:	00 
    5266:	4c 33 84 24 28 01 00 	xor    0x128(%rsp),%r8
    526d:	00 
    526e:	4c 33 9c 24 30 01 00 	xor    0x130(%rsp),%r11
    5275:	00 
    5276:	48 33 9c 24 38 01 00 	xor    0x138(%rsp),%rbx
    527d:	00 
    527e:	48 33 ac 24 40 01 00 	xor    0x140(%rsp),%rbp
    5285:	00 
    5286:	4c 33 8c 24 48 01 00 	xor    0x148(%rsp),%r9
    528d:	00 
    528e:	4c 33 84 24 50 01 00 	xor    0x150(%rsp),%r8
    5295:	00 
    5296:	4c 33 9c 24 58 01 00 	xor    0x158(%rsp),%r11
    529d:	00 
    529e:	48 33 9c 24 60 01 00 	xor    0x160(%rsp),%rbx
    52a5:	00 
    52a6:	48 33 ac 24 68 01 00 	xor    0x168(%rsp),%rbp
    52ad:	00 
    52ae:	4c 33 8c 24 70 01 00 	xor    0x170(%rsp),%r9
    52b5:	00 
    52b6:	4c 33 84 24 78 01 00 	xor    0x178(%rsp),%r8
    52bd:	00 
    52be:	4c 33 9c 24 80 01 00 	xor    0x180(%rsp),%r11
    52c5:	00 
    52c6:	48 33 9c 24 88 01 00 	xor    0x188(%rsp),%rbx
    52cd:	00 
    52ce:	48 33 ac 24 90 01 00 	xor    0x190(%rsp),%rbp
    52d5:	00 
    52d6:	4c 33 8c 24 98 01 00 	xor    0x198(%rsp),%r9
    52dd:	00 
    52de:	4c 33 84 24 a0 01 00 	xor    0x1a0(%rsp),%r8
    52e5:	00 
    52e6:	4c 33 9c 24 a8 01 00 	xor    0x1a8(%rsp),%r11
    52ed:	00 
    52ee:	48 33 9c 24 b0 01 00 	xor    0x1b0(%rsp),%rbx
    52f5:	00 
    52f6:	48 33 ac 24 b8 01 00 	xor    0x1b8(%rsp),%rbp
    52fd:	00 
    52fe:	4c 89 c2             	mov    %r8,%rdx
    5301:	48 d1 c2             	rol    %rdx
    5304:	48 31 ea             	xor    %rbp,%rdx
    5307:	4c 89 de             	mov    %r11,%rsi
    530a:	48 d1 c6             	rol    %rsi
    530d:	4c 31 ce             	xor    %r9,%rsi
    5310:	48 89 df             	mov    %rbx,%rdi
    5313:	48 d1 c7             	rol    %rdi
    5316:	4c 31 c7             	xor    %r8,%rdi
    5319:	49 89 e8             	mov    %rbp,%r8
    531c:	49 d1 c0             	rol    %r8
    531f:	4d 31 d8             	xor    %r11,%r8
    5322:	49 d1 c1             	rol    %r9
    5325:	49 31 d9             	xor    %rbx,%r9
    5328:	4c 8b 9c 24 f8 00 00 	mov    0xf8(%rsp),%r11
    532f:	00 
    5330:	49 31 d3             	xor    %rdx,%r11
    5333:	48 8b 9c 24 28 01 00 	mov    0x128(%rsp),%rbx
    533a:	00 
    533b:	48 31 f3             	xor    %rsi,%rbx
    533e:	48 c1 c3 2c          	rol    $0x2c,%rbx
    5342:	48 8b ac 24 58 01 00 	mov    0x158(%rsp),%rbp
    5349:	00 
    534a:	48 31 fd             	xor    %rdi,%rbp
    534d:	48 c1 c5 2b          	rol    $0x2b,%rbp
    5351:	4c 8b a4 24 88 01 00 	mov    0x188(%rsp),%r12
    5358:	00 
    5359:	4d 31 c4             	xor    %r8,%r12
    535c:	49 c1 c4 15          	rol    $0x15,%r12
    5360:	4c 8b ac 24 b8 01 00 	mov    0x1b8(%rsp),%r13
    5367:	00 
    5368:	4d 31 cd             	xor    %r9,%r13
    536b:	49 c1 c5 0e          	rol    $0xe,%r13
    536f:	49 89 de             	mov    %rbx,%r14
    5372:	49 f7 d6             	not    %r14
    5375:	49 21 ee             	and    %rbp,%r14
    5378:	4d 31 de             	xor    %r11,%r14
    537b:	4d 31 d6             	xor    %r10,%r14
    537e:	4c 89 74 24 30       	mov    %r14,0x30(%rsp)
    5383:	49 89 ea             	mov    %rbp,%r10
    5386:	49 f7 d2             	not    %r10
    5389:	4d 21 e2             	and    %r12,%r10
    538c:	49 31 da             	xor    %rbx,%r10
    538f:	4c 89 54 24 38       	mov    %r10,0x38(%rsp)
    5394:	4d 89 e2             	mov    %r12,%r10
    5397:	49 f7 d2             	not    %r10
    539a:	4d 21 ea             	and    %r13,%r10
    539d:	49 31 ea             	xor    %rbp,%r10
    53a0:	4c 89 54 24 40       	mov    %r10,0x40(%rsp)
    53a5:	4d 89 ea             	mov    %r13,%r10
    53a8:	49 f7 d2             	not    %r10
    53ab:	4d 21 da             	and    %r11,%r10
    53ae:	4d 31 e2             	xor    %r12,%r10
    53b1:	4c 89 54 24 48       	mov    %r10,0x48(%rsp)
    53b6:	49 f7 d3             	not    %r11
    53b9:	49 21 db             	and    %rbx,%r11
    53bc:	4d 31 eb             	xor    %r13,%r11
    53bf:	4c 89 5c 24 50       	mov    %r11,0x50(%rsp)
    53c4:	4c 8b 94 24 10 01 00 	mov    0x110(%rsp),%r10
    53cb:	00 
    53cc:	4d 31 c2             	xor    %r8,%r10
    53cf:	49 c1 c2 1c          	rol    $0x1c,%r10
    53d3:	4c 8b 9c 24 40 01 00 	mov    0x140(%rsp),%r11
    53da:	00 
    53db:	4d 31 cb             	xor    %r9,%r11
    53de:	49 c1 c3 14          	rol    $0x14,%r11
    53e2:	4c 8b a4 24 48 01 00 	mov    0x148(%rsp),%r12
    53e9:	00 
    53ea:	49 31 d4             	xor    %rdx,%r12
    53ed:	49 c1 c4 03          	rol    $0x3,%r12
    53f1:	48 8b 9c 24 78 01 00 	mov    0x178(%rsp),%rbx
    53f8:	00 
    53f9:	48 31 f3             	xor    %rsi,%rbx
    53fc:	48 c1 c3 2d          	rol    $0x2d,%rbx
    5400:	48 8b ac 24 a8 01 00 	mov    0x1a8(%rsp),%rbp
    5407:	00 
    5408:	48 31 fd             	xor    %rdi,%rbp
    540b:	48 c1 c5 3d          	rol    $0x3d,%rbp
    540f:	4d 89 dd             	mov    %r11,%r13
    5412:	49 f7 d5             	not    %r13
    5415:	4d 21 e5             	and    %r12,%r13
    5418:	4d 31 d5             	xor    %r10,%r13
    541b:	4c 89 6c 24 58       	mov    %r13,0x58(%rsp)
    5420:	4d 89 e5             	mov    %r12,%r13
    5423:	49 f7 d5             	not    %r13
    5426:	49 21 dd             	and    %rbx,%r13
    5429:	4d 31 dd             	xor    %r11,%r13
    542c:	4c 89 6c 24 60       	mov    %r13,0x60(%rsp)
    5431:	49 89 dd             	mov    %rbx,%r13
    5434:	49 f7 d5             	not    %r13
    5437:	49 21 ed             	and    %rbp,%r13
    543a:	4d 31 e5             	xor    %r12,%r13
    543d:	4c 89 6c 24 68       	mov    %r13,0x68(%rsp)
    5442:	49 89 ec             	mov    %rbp,%r12
    5445:	49 f7 d4             	not    %r12
    5448:	4d 21 d4             	and    %r10,%r12
    544b:	49 31 dc             	xor    %rbx,%r12
    544e:	4c 89 64 24 70       	mov    %r12,0x70(%rsp)
    5453:	49 f7 d2             	not    %r10
    5456:	4d 21 da             	and    %r11,%r10
    5459:	49 31 ea             	xor    %rbp,%r10
    545c:	4c 89 54 24 78       	mov    %r10,0x78(%rsp)
    5461:	4c 8b 94 24 00 01 00 	mov    0x100(%rsp),%r10
    5468:	00 
    5469:	49 31 f2             	xor    %rsi,%r10
    546c:	49 d1 c2             	rol    %r10
    546f:	4c 8b 9c 24 30 01 00 	mov    0x130(%rsp),%r11
    5476:	00 
    5477:	49 31 fb             	xor    %rdi,%r11
    547a:	49 c1 c3 06          	rol    $0x6,%r11
    547e:	4c 8b a4 24 60 01 00 	mov    0x160(%rsp),%r12
    5485:	00 
    5486:	4d 31 c4             	xor    %r8,%r12
    5489:	49 c1 c4 19          	rol    $0x19,%r12
    548d:	48 8b 9c 24 90 01 00 	mov    0x190(%rsp),%rbx
    5494:	00 
    5495:	4c 31 cb             	xor    %r9,%rbx
    5498:	48 c1 c3 08          	rol    $0x8,%rbx
    549c:	48 8b ac 24 98 01 00 	mov    0x198(%rsp),%rbp
    54a3:	00 
    54a4:	48 31 d5             	xor    %rdx,%rbp
    54a7:	48 c1 c5 12          	rol    $0x12,%rbp
    54ab:	4d 89 dd             	mov    %r11,%r13
    54ae:	49 f7 d5             	not    %r13
    54b1:	4d 21 e5             	and    %r12,%r13
    54b4:	4d 31 d5             	xor    %r10,%r13
    54b7:	4c 89 ac 24 80 00 00 	mov    %r13,0x80(%rsp)
    54be:	00 
    54bf:	4d 89 e5             	mov    %r12,%r13
    54c2:	49 f7 d5             	not    %r13
    54c5:	49 21 dd             	and    %rbx,%r13
    54c8:	4d 31 dd             	xor    %r11,%r13
    54cb:	4c 89 ac 24 88 00 00 	mov    %r13,0x88(%rsp)
    54d2:	00 
    54d3:	49 89 dd             	mov    %rbx,%r13
    54d6:	49 f7 d5             	not    %r13
    54d9:	49 21 ed             	and    %rbp,%r13
    54dc:	4d 31 e5             	xor    %r12,%r13
    54df:	4c 89 ac 24 90 00 00 	mov    %r13,0x90(%rsp)
    54e6:	00 
    54e7:	49 89 ec             	mov    %rbp,%r12
    54ea:	49 f7 d4             	not    %r12
    54ed:	4d 21 d4             	and    %r10,%r12
    54f0:	49 31 dc             	xor    %rbx,%r12
    54f3:	4c 89 a4 24 98 00 00 	mov    %r12,0x98(%rsp)
    54fa:	00 
    54fb:	49 f7 d2             	not    %r10
    54fe:	4d 21 da             	and    %r11,%r10
    5501:	49 31 ea             	xor    %rbp,%r10
    5504:	4c 89 94 24 a0 00 00 	mov    %r10,0xa0(%rsp)
    550b:	00 
    550c:	4c 8b 94 24 18 01 00 	mov    0x118(%rsp),%r10
    5513:	00 
    5514:	4d 31 ca             	xor    %r9,%r10
    5517:	49 c1 c2 1b          	rol    $0x1b,%r10
    551b:	4c 8b 9c 24 20 01 00 	mov    0x120(%rsp),%r11
    5522:	00 
    5523:	49 31 d3             	xor    %rdx,%r11
    5526:	49 c1 c3 24          	rol    $0x24,%r11
    552a:	4c 8b a4 24 50 01 00 	mov    0x150(%rsp),%r12
    5531:	00 
    5532:	49 31 f4             	xor    %rsi,%r12
    5535:	49 c1 c4 0a          	rol    $0xa,%r12
    5539:	48 8b 9c 24 80 01 00 	mov    0x180(%rsp),%rbx
    5540:	00 
    5541:	48 31 fb             	xor    %rdi,%rbx
    5544:	48 c1 c3 0f          	rol    $0xf,%rbx
    5548:	48 8b ac 24 b0 01 00 	mov    0x1b0(%rsp),%rbp
    554f:	00 
    5550:	4c 31 c5             	xor    %r8,%rbp
    5553:	48 c1 c5 38          	rol    $0x38,%rbp
    5557:	4d 89 dd             	mov    %r11,%r13
    555a:	49 f7 d5             	not    %r13
    555d:	4d 21 e5             	and    %r12,%r13
    5560:	4d 31 d5             	xor    %r10,%r13
    5563:	4c 89 ac 24 a8 00 00 	mov    %r13,0xa8(%rsp)
    556a:	00 
    556b:	4d 89 e5             	mov    %r12,%r13
    556e:	49 f7 d5             	not    %r13
    5571:	49 21 dd             	and    %rbx,%r13
    5574:	4d 31 dd             	xor    %r11,%r13
    5577:	4c 89 ac 24 b0 00 00 	mov    %r13,0xb0(%rsp)
    557e:	00 
    557f:	49 89 dd             	mov    %rbx,%r13
    5582:	49 f7 d5             	not    %r13
    5585:	49 21 ed             	and    %rbp,%r13
    5588:	4d 31 e5             	xor    %r12,%r13
    558b:	4c 89 ac 24 b8 00 00 	mov    %r13,0xb8(%rsp)
    5592:	00 
    5593:	49 89 ec             	mov    %rbp,%r12
    5596:	49 f7 d4             	not    %r12
    5599:	4d 21 d4             	and    %r10,%r12
    559c:	49 31 dc             	xor    %rbx,%r12
    559f:	4c 89 a4 24 c0 00 00 	mov    %r12,0xc0(%rsp)
    55a6:	00 
    55a7:	49 f7 d2             	not    %r10
    55aa:	4d 21 da             	and    %r11,%r10
    55ad:	49 31 ea             	xor    %rbp,%r10
    55b0:	4c 89 94 24 c8 00 00 	mov    %r10,0xc8(%rsp)
    55b7:	00 
    55b8:	4c 8b 94 24 08 01 00 	mov    0x108(%rsp),%r10
    55bf:	00 
    55c0:	49 31 fa             	xor    %rdi,%r10
    55c3:	49 c1 c2 3e          	rol    $0x3e,%r10
    55c7:	48 8b bc 24 38 01 00 	mov    0x138(%rsp),%rdi
    55ce:	00 
    55cf:	4c 31 c7             	xor    %r8,%rdi
    55d2:	48 c1 c7 37          	rol    $0x37,%rdi
    55d6:	4c 8b 84 24 68 01 00 	mov    0x168(%rsp),%r8
    55dd:	00 
    55de:	4d 31 c8             	xor    %r9,%r8
    55e1:	49 c1 c0 27          	rol    $0x27,%r8
    55e5:	4c 8b 8c 24 70 01 00 	mov    0x170(%rsp),%r9
    55ec:	00 
    55ed:	49 31 d1             	xor    %rdx,%r9
    55f0:	49 c1 c1 29          	rol    $0x29,%r9
    55f4:	48 8b 94 24 a0 01 00 	mov    0x1a0(%rsp),%rdx
    55fb:	00 
    55fc:	48 31 f2             	xor    %rsi,%rdx
    55ff:	48 c1 c2 02          	rol    $0x2,%rdx
    5603:	48 89 fe             	mov    %rdi,%rsi
    5606:	48 f7 d6             	not    %rsi
    5609:	4c 21 c6             	and    %r8,%rsi
    560c:	4c 31 d6             	xor    %r10,%rsi
    560f:	48 89 b4 24 d0 00 00 	mov    %rsi,0xd0(%rsp)
    5616:	00 
    5617:	4c 89 c6             	mov    %r8,%rsi
    561a:	48 f7 d6             	not    %rsi
    561d:	4c 21 ce             	and    %r9,%rsi
    5620:	48 31 fe             	xor    %rdi,%rsi
    5623:	48 89 b4 24 d8 00 00 	mov    %rsi,0xd8(%rsp)
    562a:	00 
    562b:	4c 89 ce             	mov    %r9,%rsi
    562e:	48 f7 d6             	not    %rsi
    5631:	48 21 d6             	and    %rdx,%rsi
    5634:	4c 31 c6             	xor    %r8,%rsi
    5637:	48 89 b4 24 e0 00 00 	mov    %rsi,0xe0(%rsp)
    563e:	00 
    563f:	48 89 d6             	mov    %rdx,%rsi
    5642:	48 f7 d6             	not    %rsi
    5645:	4c 21 d6             	and    %r10,%rsi
    5648:	4c 31 ce             	xor    %r9,%rsi
    564b:	48 89 b4 24 e8 00 00 	mov    %rsi,0xe8(%rsp)
    5652:	00 
    5653:	49 f7 d2             	not    %r10
    5656:	49 21 fa             	and    %rdi,%r10
    5659:	49 31 d2             	xor    %rdx,%r10
    565c:	4c 89 94 24 f0 00 00 	mov    %r10,0xf0(%rsp)
    5663:	00 
    5664:	48 83 c1 02          	add    $0x2,%rcx

0000000000005668 <L_keccak1600_ref$20>:
    5668:	48 83 f9 17          	cmp    $0x17,%rcx
    566c:	0f 82 ab f7 ff ff    	jb     4e1d <L_keccak1600_ref$21>
    5672:	48 8b 74 24 18       	mov    0x18(%rsp),%rsi
    5677:	48 8b 54 24 20       	mov    0x20(%rsp),%rdx
    567c:	48 8b 44 24 28       	mov    0x28(%rsp),%rax

0000000000005681 <L_keccak1600_ref$18>:
    5681:	48 39 c2             	cmp    %rax,%rdx
    5684:	0f 83 4a f7 ff ff    	jae    4dd4 <L_keccak1600_ref$19>
    568a:	8a 8c 24 c0 01 00 00 	mov    0x1c0(%rsp),%cl
    5691:	48 89 d7             	mov    %rdx,%rdi
    5694:	48 c1 ef 03          	shr    $0x3,%rdi
    5698:	49 c7 c0 00 00 00 00 	mov    $0x0,%r8
    569f:	eb 0c                	jmp    56ad <L_keccak1600_ref$16>

00000000000056a1 <L_keccak1600_ref$17>:
    56a1:	4e 8b 0c c6          	mov    (%rsi,%r8,8),%r9
    56a5:	4e 31 4c c4 30       	xor    %r9,0x30(%rsp,%r8,8)
    56aa:	49 ff c0             	inc    %r8

00000000000056ad <L_keccak1600_ref$16>:
    56ad:	49 39 f8             	cmp    %rdi,%r8
    56b0:	72 ef                	jb     56a1 <L_keccak1600_ref$17>
    56b2:	49 c1 e0 03          	shl    $0x3,%r8
    56b6:	eb 0c                	jmp    56c4 <L_keccak1600_ref$14>

00000000000056b8 <L_keccak1600_ref$15>:
    56b8:	42 8a 3c 06          	mov    (%rsi,%r8,1),%dil
    56bc:	42 30 7c 04 30       	xor    %dil,0x30(%rsp,%r8,1)
    56c1:	49 ff c0             	inc    %r8

00000000000056c4 <L_keccak1600_ref$14>:
    56c4:	49 39 d0             	cmp    %rdx,%r8
    56c7:	72 ef                	jb     56b8 <L_keccak1600_ref$15>
    56c9:	42 30 4c 04 30       	xor    %cl,0x30(%rsp,%r8,1)
    56ce:	48 89 c1             	mov    %rax,%rcx
    56d1:	48 83 c1 ff          	add    $0xffffffffffffffff,%rcx
    56d5:	80 74 0c 30 80       	xorb   $0x80,0x30(%rsp,%rcx,1)
    56da:	48 8b 54 24 10       	mov    0x10(%rsp),%rdx
    56df:	e9 ad 08 00 00       	jmp    5f91 <L_keccak1600_ref$8>

00000000000056e4 <L_keccak1600_ref$9>:
    56e4:	48 89 54 24 10       	mov    %rdx,0x10(%rsp)
    56e9:	48 89 44 24 28       	mov    %rax,0x28(%rsp)
    56ee:	48 8d 05 ab 3c 00 00 	lea    0x3cab(%rip),%rax        # 93a0 <G$KECCAK1600_RC>
    56f5:	48 c7 c1 00 00 00 00 	mov    $0x0,%rcx
    56fc:	e9 4b 08 00 00       	jmp    5f4c <L_keccak1600_ref$12>

0000000000005701 <L_keccak1600_ref$13>:
    5701:	4c 8b 14 c8          	mov    (%rax,%rcx,8),%r10
    5705:	4c 8b 4c 24 30       	mov    0x30(%rsp),%r9
    570a:	4c 8b 44 24 38       	mov    0x38(%rsp),%r8
    570f:	4c 8b 5c 24 40       	mov    0x40(%rsp),%r11
    5714:	48 8b 5c 24 48       	mov    0x48(%rsp),%rbx
    5719:	48 8b 6c 24 50       	mov    0x50(%rsp),%rbp
    571e:	4c 33 4c 24 58       	xor    0x58(%rsp),%r9
    5723:	4c 33 44 24 60       	xor    0x60(%rsp),%r8
    5728:	4c 33 5c 24 68       	xor    0x68(%rsp),%r11
    572d:	48 33 5c 24 70       	xor    0x70(%rsp),%rbx
    5732:	48 33 6c 24 78       	xor    0x78(%rsp),%rbp
    5737:	4c 33 8c 24 80 00 00 	xor    0x80(%rsp),%r9
    573e:	00 
    573f:	4c 33 84 24 88 00 00 	xor    0x88(%rsp),%r8
    5746:	00 
    5747:	4c 33 9c 24 90 00 00 	xor    0x90(%rsp),%r11
    574e:	00 
    574f:	48 33 9c 24 98 00 00 	xor    0x98(%rsp),%rbx
    5756:	00 
    5757:	48 33 ac 24 a0 00 00 	xor    0xa0(%rsp),%rbp
    575e:	00 
    575f:	4c 33 8c 24 a8 00 00 	xor    0xa8(%rsp),%r9
    5766:	00 
    5767:	4c 33 84 24 b0 00 00 	xor    0xb0(%rsp),%r8
    576e:	00 
    576f:	4c 33 9c 24 b8 00 00 	xor    0xb8(%rsp),%r11
    5776:	00 
    5777:	48 33 9c 24 c0 00 00 	xor    0xc0(%rsp),%rbx
    577e:	00 
    577f:	48 33 ac 24 c8 00 00 	xor    0xc8(%rsp),%rbp
    5786:	00 
    5787:	4c 33 8c 24 d0 00 00 	xor    0xd0(%rsp),%r9
    578e:	00 
    578f:	4c 33 84 24 d8 00 00 	xor    0xd8(%rsp),%r8
    5796:	00 
    5797:	4c 33 9c 24 e0 00 00 	xor    0xe0(%rsp),%r11
    579e:	00 
    579f:	48 33 9c 24 e8 00 00 	xor    0xe8(%rsp),%rbx
    57a6:	00 
    57a7:	48 33 ac 24 f0 00 00 	xor    0xf0(%rsp),%rbp
    57ae:	00 
    57af:	4c 89 c2             	mov    %r8,%rdx
    57b2:	48 d1 c2             	rol    %rdx
    57b5:	48 31 ea             	xor    %rbp,%rdx
    57b8:	4c 89 de             	mov    %r11,%rsi
    57bb:	48 d1 c6             	rol    %rsi
    57be:	4c 31 ce             	xor    %r9,%rsi
    57c1:	48 89 df             	mov    %rbx,%rdi
    57c4:	48 d1 c7             	rol    %rdi
    57c7:	4c 31 c7             	xor    %r8,%rdi
    57ca:	49 89 e8             	mov    %rbp,%r8
    57cd:	49 d1 c0             	rol    %r8
    57d0:	4d 31 d8             	xor    %r11,%r8
    57d3:	49 d1 c1             	rol    %r9
    57d6:	49 31 d9             	xor    %rbx,%r9
    57d9:	4c 8b 5c 24 30       	mov    0x30(%rsp),%r11
    57de:	49 31 d3             	xor    %rdx,%r11
    57e1:	48 8b 5c 24 60       	mov    0x60(%rsp),%rbx
    57e6:	48 31 f3             	xor    %rsi,%rbx
    57e9:	48 c1 c3 2c          	rol    $0x2c,%rbx
    57ed:	48 8b ac 24 90 00 00 	mov    0x90(%rsp),%rbp
    57f4:	00 
    57f5:	48 31 fd             	xor    %rdi,%rbp
    57f8:	48 c1 c5 2b          	rol    $0x2b,%rbp
    57fc:	4c 8b a4 24 c0 00 00 	mov    0xc0(%rsp),%r12
    5803:	00 
    5804:	4d 31 c4             	xor    %r8,%r12
    5807:	49 c1 c4 15          	rol    $0x15,%r12
    580b:	4c 8b ac 24 f0 00 00 	mov    0xf0(%rsp),%r13
    5812:	00 
    5813:	4d 31 cd             	xor    %r9,%r13
    5816:	49 c1 c5 0e          	rol    $0xe,%r13
    581a:	49 89 de             	mov    %rbx,%r14
    581d:	49 f7 d6             	not    %r14
    5820:	49 21 ee             	and    %rbp,%r14
    5823:	4d 31 de             	xor    %r11,%r14
    5826:	4d 31 d6             	xor    %r10,%r14
    5829:	4c 89 b4 24 f8 00 00 	mov    %r14,0xf8(%rsp)
    5830:	00 
    5831:	49 89 ea             	mov    %rbp,%r10
    5834:	49 f7 d2             	not    %r10
    5837:	4d 21 e2             	and    %r12,%r10
    583a:	49 31 da             	xor    %rbx,%r10
    583d:	4c 89 94 24 00 01 00 	mov    %r10,0x100(%rsp)
    5844:	00 
    5845:	4d 89 e2             	mov    %r12,%r10
    5848:	49 f7 d2             	not    %r10
    584b:	4d 21 ea             	and    %r13,%r10
    584e:	49 31 ea             	xor    %rbp,%r10
    5851:	4c 89 94 24 08 01 00 	mov    %r10,0x108(%rsp)
    5858:	00 
    5859:	4d 89 ea             	mov    %r13,%r10
    585c:	49 f7 d2             	not    %r10
    585f:	4d 21 da             	and    %r11,%r10
    5862:	4d 31 e2             	xor    %r12,%r10
    5865:	4c 89 94 24 10 01 00 	mov    %r10,0x110(%rsp)
    586c:	00 
    586d:	49 f7 d3             	not    %r11
    5870:	49 21 db             	and    %rbx,%r11
    5873:	4d 31 eb             	xor    %r13,%r11
    5876:	4c 89 9c 24 18 01 00 	mov    %r11,0x118(%rsp)
    587d:	00 
    587e:	4c 8b 54 24 48       	mov    0x48(%rsp),%r10
    5883:	4d 31 c2             	xor    %r8,%r10
    5886:	49 c1 c2 1c          	rol    $0x1c,%r10
    588a:	4c 8b 5c 24 78       	mov    0x78(%rsp),%r11
    588f:	4d 31 cb             	xor    %r9,%r11
    5892:	49 c1 c3 14          	rol    $0x14,%r11
    5896:	4c 8b a4 24 80 00 00 	mov    0x80(%rsp),%r12
    589d:	00 
    589e:	49 31 d4             	xor    %rdx,%r12
    58a1:	49 c1 c4 03          	rol    $0x3,%r12
    58a5:	48 8b 9c 24 b0 00 00 	mov    0xb0(%rsp),%rbx
    58ac:	00 
    58ad:	48 31 f3             	xor    %rsi,%rbx
    58b0:	48 c1 c3 2d          	rol    $0x2d,%rbx
    58b4:	48 8b ac 24 e0 00 00 	mov    0xe0(%rsp),%rbp
    58bb:	00 
    58bc:	48 31 fd             	xor    %rdi,%rbp
    58bf:	48 c1 c5 3d          	rol    $0x3d,%rbp
    58c3:	4d 89 dd             	mov    %r11,%r13
    58c6:	49 f7 d5             	not    %r13
    58c9:	4d 21 e5             	and    %r12,%r13
    58cc:	4d 31 d5             	xor    %r10,%r13
    58cf:	4c 89 ac 24 20 01 00 	mov    %r13,0x120(%rsp)
    58d6:	00 
    58d7:	4d 89 e5             	mov    %r12,%r13
    58da:	49 f7 d5             	not    %r13
    58dd:	49 21 dd             	and    %rbx,%r13
    58e0:	4d 31 dd             	xor    %r11,%r13
    58e3:	4c 89 ac 24 28 01 00 	mov    %r13,0x128(%rsp)
    58ea:	00 
    58eb:	49 89 dd             	mov    %rbx,%r13
    58ee:	49 f7 d5             	not    %r13
    58f1:	49 21 ed             	and    %rbp,%r13
    58f4:	4d 31 e5             	xor    %r12,%r13
    58f7:	4c 89 ac 24 30 01 00 	mov    %r13,0x130(%rsp)
    58fe:	00 
    58ff:	49 89 ec             	mov    %rbp,%r12
    5902:	49 f7 d4             	not    %r12
    5905:	4d 21 d4             	and    %r10,%r12
    5908:	49 31 dc             	xor    %rbx,%r12
    590b:	4c 89 a4 24 38 01 00 	mov    %r12,0x138(%rsp)
    5912:	00 
    5913:	49 f7 d2             	not    %r10
    5916:	4d 21 da             	and    %r11,%r10
    5919:	49 31 ea             	xor    %rbp,%r10
    591c:	4c 89 94 24 40 01 00 	mov    %r10,0x140(%rsp)
    5923:	00 
    5924:	4c 8b 54 24 38       	mov    0x38(%rsp),%r10
    5929:	49 31 f2             	xor    %rsi,%r10
    592c:	49 d1 c2             	rol    %r10
    592f:	4c 8b 5c 24 68       	mov    0x68(%rsp),%r11
    5934:	49 31 fb             	xor    %rdi,%r11
    5937:	49 c1 c3 06          	rol    $0x6,%r11
    593b:	4c 8b a4 24 98 00 00 	mov    0x98(%rsp),%r12
    5942:	00 
    5943:	4d 31 c4             	xor    %r8,%r12
    5946:	49 c1 c4 19          	rol    $0x19,%r12
    594a:	48 8b 9c 24 c8 00 00 	mov    0xc8(%rsp),%rbx
    5951:	00 
    5952:	4c 31 cb             	xor    %r9,%rbx
    5955:	48 c1 c3 08          	rol    $0x8,%rbx
    5959:	48 8b ac 24 d0 00 00 	mov    0xd0(%rsp),%rbp
    5960:	00 
    5961:	48 31 d5             	xor    %rdx,%rbp
    5964:	48 c1 c5 12          	rol    $0x12,%rbp
    5968:	4d 89 dd             	mov    %r11,%r13
    596b:	49 f7 d5             	not    %r13
    596e:	4d 21 e5             	and    %r12,%r13
    5971:	4d 31 d5             	xor    %r10,%r13
    5974:	4c 89 ac 24 48 01 00 	mov    %r13,0x148(%rsp)
    597b:	00 
    597c:	4d 89 e5             	mov    %r12,%r13
    597f:	49 f7 d5             	not    %r13
    5982:	49 21 dd             	and    %rbx,%r13
    5985:	4d 31 dd             	xor    %r11,%r13
    5988:	4c 89 ac 24 50 01 00 	mov    %r13,0x150(%rsp)
    598f:	00 
    5990:	49 89 dd             	mov    %rbx,%r13
    5993:	49 f7 d5             	not    %r13
    5996:	49 21 ed             	and    %rbp,%r13
    5999:	4d 31 e5             	xor    %r12,%r13
    599c:	4c 89 ac 24 58 01 00 	mov    %r13,0x158(%rsp)
    59a3:	00 
    59a4:	49 89 ec             	mov    %rbp,%r12
    59a7:	49 f7 d4             	not    %r12
    59aa:	4d 21 d4             	and    %r10,%r12
    59ad:	49 31 dc             	xor    %rbx,%r12
    59b0:	4c 89 a4 24 60 01 00 	mov    %r12,0x160(%rsp)
    59b7:	00 
    59b8:	49 f7 d2             	not    %r10
    59bb:	4d 21 da             	and    %r11,%r10
    59be:	49 31 ea             	xor    %rbp,%r10
    59c1:	4c 89 94 24 68 01 00 	mov    %r10,0x168(%rsp)
    59c8:	00 
    59c9:	4c 8b 54 24 50       	mov    0x50(%rsp),%r10
    59ce:	4d 31 ca             	xor    %r9,%r10
    59d1:	49 c1 c2 1b          	rol    $0x1b,%r10
    59d5:	4c 8b 5c 24 58       	mov    0x58(%rsp),%r11
    59da:	49 31 d3             	xor    %rdx,%r11
    59dd:	49 c1 c3 24          	rol    $0x24,%r11
    59e1:	4c 8b a4 24 88 00 00 	mov    0x88(%rsp),%r12
    59e8:	00 
    59e9:	49 31 f4             	xor    %rsi,%r12
    59ec:	49 c1 c4 0a          	rol    $0xa,%r12
    59f0:	48 8b 9c 24 b8 00 00 	mov    0xb8(%rsp),%rbx
    59f7:	00 
    59f8:	48 31 fb             	xor    %rdi,%rbx
    59fb:	48 c1 c3 0f          	rol    $0xf,%rbx
    59ff:	48 8b ac 24 e8 00 00 	mov    0xe8(%rsp),%rbp
    5a06:	00 
    5a07:	4c 31 c5             	xor    %r8,%rbp
    5a0a:	48 c1 c5 38          	rol    $0x38,%rbp
    5a0e:	4d 89 dd             	mov    %r11,%r13
    5a11:	49 f7 d5             	not    %r13
    5a14:	4d 21 e5             	and    %r12,%r13
    5a17:	4d 31 d5             	xor    %r10,%r13
    5a1a:	4c 89 ac 24 70 01 00 	mov    %r13,0x170(%rsp)
    5a21:	00 
    5a22:	4d 89 e5             	mov    %r12,%r13
    5a25:	49 f7 d5             	not    %r13
    5a28:	49 21 dd             	and    %rbx,%r13
    5a2b:	4d 31 dd             	xor    %r11,%r13
    5a2e:	4c 89 ac 24 78 01 00 	mov    %r13,0x178(%rsp)
    5a35:	00 
    5a36:	49 89 dd             	mov    %rbx,%r13
    5a39:	49 f7 d5             	not    %r13
    5a3c:	49 21 ed             	and    %rbp,%r13
    5a3f:	4d 31 e5             	xor    %r12,%r13
    5a42:	4c 89 ac 24 80 01 00 	mov    %r13,0x180(%rsp)
    5a49:	00 
    5a4a:	49 89 ec             	mov    %rbp,%r12
    5a4d:	49 f7 d4             	not    %r12
    5a50:	4d 21 d4             	and    %r10,%r12
    5a53:	49 31 dc             	xor    %rbx,%r12
    5a56:	4c 89 a4 24 88 01 00 	mov    %r12,0x188(%rsp)
    5a5d:	00 
    5a5e:	49 f7 d2             	not    %r10
    5a61:	4d 21 da             	and    %r11,%r10
    5a64:	49 31 ea             	xor    %rbp,%r10
    5a67:	4c 89 94 24 90 01 00 	mov    %r10,0x190(%rsp)
    5a6e:	00 
    5a6f:	4c 8b 54 24 40       	mov    0x40(%rsp),%r10
    5a74:	49 31 fa             	xor    %rdi,%r10
    5a77:	49 c1 c2 3e          	rol    $0x3e,%r10
    5a7b:	48 8b 7c 24 70       	mov    0x70(%rsp),%rdi
    5a80:	4c 31 c7             	xor    %r8,%rdi
    5a83:	48 c1 c7 37          	rol    $0x37,%rdi
    5a87:	4c 8b 84 24 a0 00 00 	mov    0xa0(%rsp),%r8
    5a8e:	00 
    5a8f:	4d 31 c8             	xor    %r9,%r8
    5a92:	49 c1 c0 27          	rol    $0x27,%r8
    5a96:	4c 8b 8c 24 a8 00 00 	mov    0xa8(%rsp),%r9
    5a9d:	00 
    5a9e:	49 31 d1             	xor    %rdx,%r9
    5aa1:	49 c1 c1 29          	rol    $0x29,%r9
    5aa5:	48 8b 94 24 d8 00 00 	mov    0xd8(%rsp),%rdx
    5aac:	00 
    5aad:	48 31 f2             	xor    %rsi,%rdx
    5ab0:	48 c1 c2 02          	rol    $0x2,%rdx
    5ab4:	48 89 fe             	mov    %rdi,%rsi
    5ab7:	48 f7 d6             	not    %rsi
    5aba:	4c 21 c6             	and    %r8,%rsi
    5abd:	4c 31 d6             	xor    %r10,%rsi
    5ac0:	48 89 b4 24 98 01 00 	mov    %rsi,0x198(%rsp)
    5ac7:	00 
    5ac8:	4c 89 c6             	mov    %r8,%rsi
    5acb:	48 f7 d6             	not    %rsi
    5ace:	4c 21 ce             	and    %r9,%rsi
    5ad1:	48 31 fe             	xor    %rdi,%rsi
    5ad4:	48 89 b4 24 a0 01 00 	mov    %rsi,0x1a0(%rsp)
    5adb:	00 
    5adc:	4c 89 ce             	mov    %r9,%rsi
    5adf:	48 f7 d6             	not    %rsi
    5ae2:	48 21 d6             	and    %rdx,%rsi
    5ae5:	4c 31 c6             	xor    %r8,%rsi
    5ae8:	48 89 b4 24 a8 01 00 	mov    %rsi,0x1a8(%rsp)
    5aef:	00 
    5af0:	48 89 d6             	mov    %rdx,%rsi
    5af3:	48 f7 d6             	not    %rsi
    5af6:	4c 21 d6             	and    %r10,%rsi
    5af9:	4c 31 ce             	xor    %r9,%rsi
    5afc:	48 89 b4 24 b0 01 00 	mov    %rsi,0x1b0(%rsp)
    5b03:	00 
    5b04:	49 f7 d2             	not    %r10
    5b07:	49 21 fa             	and    %rdi,%r10
    5b0a:	49 31 d2             	xor    %rdx,%r10
    5b0d:	4c 89 94 24 b8 01 00 	mov    %r10,0x1b8(%rsp)
    5b14:	00 
    5b15:	4c 8b 54 c8 08       	mov    0x8(%rax,%rcx,8),%r10
    5b1a:	4c 8b 8c 24 f8 00 00 	mov    0xf8(%rsp),%r9
    5b21:	00 
    5b22:	4c 8b 84 24 00 01 00 	mov    0x100(%rsp),%r8
    5b29:	00 
    5b2a:	4c 8b 9c 24 08 01 00 	mov    0x108(%rsp),%r11
    5b31:	00 
    5b32:	48 8b 9c 24 10 01 00 	mov    0x110(%rsp),%rbx
    5b39:	00 
    5b3a:	48 8b ac 24 18 01 00 	mov    0x118(%rsp),%rbp
    5b41:	00 
    5b42:	4c 33 8c 24 20 01 00 	xor    0x120(%rsp),%r9
    5b49:	00 
    5b4a:	4c 33 84 24 28 01 00 	xor    0x128(%rsp),%r8
    5b51:	00 
    5b52:	4c 33 9c 24 30 01 00 	xor    0x130(%rsp),%r11
    5b59:	00 
    5b5a:	48 33 9c 24 38 01 00 	xor    0x138(%rsp),%rbx
    5b61:	00 
    5b62:	48 33 ac 24 40 01 00 	xor    0x140(%rsp),%rbp
    5b69:	00 
    5b6a:	4c 33 8c 24 48 01 00 	xor    0x148(%rsp),%r9
    5b71:	00 
    5b72:	4c 33 84 24 50 01 00 	xor    0x150(%rsp),%r8
    5b79:	00 
    5b7a:	4c 33 9c 24 58 01 00 	xor    0x158(%rsp),%r11
    5b81:	00 
    5b82:	48 33 9c 24 60 01 00 	xor    0x160(%rsp),%rbx
    5b89:	00 
    5b8a:	48 33 ac 24 68 01 00 	xor    0x168(%rsp),%rbp
    5b91:	00 
    5b92:	4c 33 8c 24 70 01 00 	xor    0x170(%rsp),%r9
    5b99:	00 
    5b9a:	4c 33 84 24 78 01 00 	xor    0x178(%rsp),%r8
    5ba1:	00 
    5ba2:	4c 33 9c 24 80 01 00 	xor    0x180(%rsp),%r11
    5ba9:	00 
    5baa:	48 33 9c 24 88 01 00 	xor    0x188(%rsp),%rbx
    5bb1:	00 
    5bb2:	48 33 ac 24 90 01 00 	xor    0x190(%rsp),%rbp
    5bb9:	00 
    5bba:	4c 33 8c 24 98 01 00 	xor    0x198(%rsp),%r9
    5bc1:	00 
    5bc2:	4c 33 84 24 a0 01 00 	xor    0x1a0(%rsp),%r8
    5bc9:	00 
    5bca:	4c 33 9c 24 a8 01 00 	xor    0x1a8(%rsp),%r11
    5bd1:	00 
    5bd2:	48 33 9c 24 b0 01 00 	xor    0x1b0(%rsp),%rbx
    5bd9:	00 
    5bda:	48 33 ac 24 b8 01 00 	xor    0x1b8(%rsp),%rbp
    5be1:	00 
    5be2:	4c 89 c2             	mov    %r8,%rdx
    5be5:	48 d1 c2             	rol    %rdx
    5be8:	48 31 ea             	xor    %rbp,%rdx
    5beb:	4c 89 de             	mov    %r11,%rsi
    5bee:	48 d1 c6             	rol    %rsi
    5bf1:	4c 31 ce             	xor    %r9,%rsi
    5bf4:	48 89 df             	mov    %rbx,%rdi
    5bf7:	48 d1 c7             	rol    %rdi
    5bfa:	4c 31 c7             	xor    %r8,%rdi
    5bfd:	49 89 e8             	mov    %rbp,%r8
    5c00:	49 d1 c0             	rol    %r8
    5c03:	4d 31 d8             	xor    %r11,%r8
    5c06:	49 d1 c1             	rol    %r9
    5c09:	49 31 d9             	xor    %rbx,%r9
    5c0c:	4c 8b 9c 24 f8 00 00 	mov    0xf8(%rsp),%r11
    5c13:	00 
    5c14:	49 31 d3             	xor    %rdx,%r11
    5c17:	48 8b 9c 24 28 01 00 	mov    0x128(%rsp),%rbx
    5c1e:	00 
    5c1f:	48 31 f3             	xor    %rsi,%rbx
    5c22:	48 c1 c3 2c          	rol    $0x2c,%rbx
    5c26:	48 8b ac 24 58 01 00 	mov    0x158(%rsp),%rbp
    5c2d:	00 
    5c2e:	48 31 fd             	xor    %rdi,%rbp
    5c31:	48 c1 c5 2b          	rol    $0x2b,%rbp
    5c35:	4c 8b a4 24 88 01 00 	mov    0x188(%rsp),%r12
    5c3c:	00 
    5c3d:	4d 31 c4             	xor    %r8,%r12
    5c40:	49 c1 c4 15          	rol    $0x15,%r12
    5c44:	4c 8b ac 24 b8 01 00 	mov    0x1b8(%rsp),%r13
    5c4b:	00 
    5c4c:	4d 31 cd             	xor    %r9,%r13
    5c4f:	49 c1 c5 0e          	rol    $0xe,%r13
    5c53:	49 89 de             	mov    %rbx,%r14
    5c56:	49 f7 d6             	not    %r14
    5c59:	49 21 ee             	and    %rbp,%r14
    5c5c:	4d 31 de             	xor    %r11,%r14
    5c5f:	4d 31 d6             	xor    %r10,%r14
    5c62:	4c 89 74 24 30       	mov    %r14,0x30(%rsp)
    5c67:	49 89 ea             	mov    %rbp,%r10
    5c6a:	49 f7 d2             	not    %r10
    5c6d:	4d 21 e2             	and    %r12,%r10
    5c70:	49 31 da             	xor    %rbx,%r10
    5c73:	4c 89 54 24 38       	mov    %r10,0x38(%rsp)
    5c78:	4d 89 e2             	mov    %r12,%r10
    5c7b:	49 f7 d2             	not    %r10
    5c7e:	4d 21 ea             	and    %r13,%r10
    5c81:	49 31 ea             	xor    %rbp,%r10
    5c84:	4c 89 54 24 40       	mov    %r10,0x40(%rsp)
    5c89:	4d 89 ea             	mov    %r13,%r10
    5c8c:	49 f7 d2             	not    %r10
    5c8f:	4d 21 da             	and    %r11,%r10
    5c92:	4d 31 e2             	xor    %r12,%r10
    5c95:	4c 89 54 24 48       	mov    %r10,0x48(%rsp)
    5c9a:	49 f7 d3             	not    %r11
    5c9d:	49 21 db             	and    %rbx,%r11
    5ca0:	4d 31 eb             	xor    %r13,%r11
    5ca3:	4c 89 5c 24 50       	mov    %r11,0x50(%rsp)
    5ca8:	4c 8b 94 24 10 01 00 	mov    0x110(%rsp),%r10
    5caf:	00 
    5cb0:	4d 31 c2             	xor    %r8,%r10
    5cb3:	49 c1 c2 1c          	rol    $0x1c,%r10
    5cb7:	4c 8b 9c 24 40 01 00 	mov    0x140(%rsp),%r11
    5cbe:	00 
    5cbf:	4d 31 cb             	xor    %r9,%r11
    5cc2:	49 c1 c3 14          	rol    $0x14,%r11
    5cc6:	4c 8b a4 24 48 01 00 	mov    0x148(%rsp),%r12
    5ccd:	00 
    5cce:	49 31 d4             	xor    %rdx,%r12
    5cd1:	49 c1 c4 03          	rol    $0x3,%r12
    5cd5:	48 8b 9c 24 78 01 00 	mov    0x178(%rsp),%rbx
    5cdc:	00 
    5cdd:	48 31 f3             	xor    %rsi,%rbx
    5ce0:	48 c1 c3 2d          	rol    $0x2d,%rbx
    5ce4:	48 8b ac 24 a8 01 00 	mov    0x1a8(%rsp),%rbp
    5ceb:	00 
    5cec:	48 31 fd             	xor    %rdi,%rbp
    5cef:	48 c1 c5 3d          	rol    $0x3d,%rbp
    5cf3:	4d 89 dd             	mov    %r11,%r13
    5cf6:	49 f7 d5             	not    %r13
    5cf9:	4d 21 e5             	and    %r12,%r13
    5cfc:	4d 31 d5             	xor    %r10,%r13
    5cff:	4c 89 6c 24 58       	mov    %r13,0x58(%rsp)
    5d04:	4d 89 e5             	mov    %r12,%r13
    5d07:	49 f7 d5             	not    %r13
    5d0a:	49 21 dd             	and    %rbx,%r13
    5d0d:	4d 31 dd             	xor    %r11,%r13
    5d10:	4c 89 6c 24 60       	mov    %r13,0x60(%rsp)
    5d15:	49 89 dd             	mov    %rbx,%r13
    5d18:	49 f7 d5             	not    %r13
    5d1b:	49 21 ed             	and    %rbp,%r13
    5d1e:	4d 31 e5             	xor    %r12,%r13
    5d21:	4c 89 6c 24 68       	mov    %r13,0x68(%rsp)
    5d26:	49 89 ec             	mov    %rbp,%r12
    5d29:	49 f7 d4             	not    %r12
    5d2c:	4d 21 d4             	and    %r10,%r12
    5d2f:	49 31 dc             	xor    %rbx,%r12
    5d32:	4c 89 64 24 70       	mov    %r12,0x70(%rsp)
    5d37:	49 f7 d2             	not    %r10
    5d3a:	4d 21 da             	and    %r11,%r10
    5d3d:	49 31 ea             	xor    %rbp,%r10
    5d40:	4c 89 54 24 78       	mov    %r10,0x78(%rsp)
    5d45:	4c 8b 94 24 00 01 00 	mov    0x100(%rsp),%r10
    5d4c:	00 
    5d4d:	49 31 f2             	xor    %rsi,%r10
    5d50:	49 d1 c2             	rol    %r10
    5d53:	4c 8b 9c 24 30 01 00 	mov    0x130(%rsp),%r11
    5d5a:	00 
    5d5b:	49 31 fb             	xor    %rdi,%r11
    5d5e:	49 c1 c3 06          	rol    $0x6,%r11
    5d62:	4c 8b a4 24 60 01 00 	mov    0x160(%rsp),%r12
    5d69:	00 
    5d6a:	4d 31 c4             	xor    %r8,%r12
    5d6d:	49 c1 c4 19          	rol    $0x19,%r12
    5d71:	48 8b 9c 24 90 01 00 	mov    0x190(%rsp),%rbx
    5d78:	00 
    5d79:	4c 31 cb             	xor    %r9,%rbx
    5d7c:	48 c1 c3 08          	rol    $0x8,%rbx
    5d80:	48 8b ac 24 98 01 00 	mov    0x198(%rsp),%rbp
    5d87:	00 
    5d88:	48 31 d5             	xor    %rdx,%rbp
    5d8b:	48 c1 c5 12          	rol    $0x12,%rbp
    5d8f:	4d 89 dd             	mov    %r11,%r13
    5d92:	49 f7 d5             	not    %r13
    5d95:	4d 21 e5             	and    %r12,%r13
    5d98:	4d 31 d5             	xor    %r10,%r13
    5d9b:	4c 89 ac 24 80 00 00 	mov    %r13,0x80(%rsp)
    5da2:	00 
    5da3:	4d 89 e5             	mov    %r12,%r13
    5da6:	49 f7 d5             	not    %r13
    5da9:	49 21 dd             	and    %rbx,%r13
    5dac:	4d 31 dd             	xor    %r11,%r13
    5daf:	4c 89 ac 24 88 00 00 	mov    %r13,0x88(%rsp)
    5db6:	00 
    5db7:	49 89 dd             	mov    %rbx,%r13
    5dba:	49 f7 d5             	not    %r13
    5dbd:	49 21 ed             	and    %rbp,%r13
    5dc0:	4d 31 e5             	xor    %r12,%r13
    5dc3:	4c 89 ac 24 90 00 00 	mov    %r13,0x90(%rsp)
    5dca:	00 
    5dcb:	49 89 ec             	mov    %rbp,%r12
    5dce:	49 f7 d4             	not    %r12
    5dd1:	4d 21 d4             	and    %r10,%r12
    5dd4:	49 31 dc             	xor    %rbx,%r12
    5dd7:	4c 89 a4 24 98 00 00 	mov    %r12,0x98(%rsp)
    5dde:	00 
    5ddf:	49 f7 d2             	not    %r10
    5de2:	4d 21 da             	and    %r11,%r10
    5de5:	49 31 ea             	xor    %rbp,%r10
    5de8:	4c 89 94 24 a0 00 00 	mov    %r10,0xa0(%rsp)
    5def:	00 
    5df0:	4c 8b 94 24 18 01 00 	mov    0x118(%rsp),%r10
    5df7:	00 
    5df8:	4d 31 ca             	xor    %r9,%r10
    5dfb:	49 c1 c2 1b          	rol    $0x1b,%r10
    5dff:	4c 8b 9c 24 20 01 00 	mov    0x120(%rsp),%r11
    5e06:	00 
    5e07:	49 31 d3             	xor    %rdx,%r11
    5e0a:	49 c1 c3 24          	rol    $0x24,%r11
    5e0e:	4c 8b a4 24 50 01 00 	mov    0x150(%rsp),%r12
    5e15:	00 
    5e16:	49 31 f4             	xor    %rsi,%r12
    5e19:	49 c1 c4 0a          	rol    $0xa,%r12
    5e1d:	48 8b 9c 24 80 01 00 	mov    0x180(%rsp),%rbx
    5e24:	00 
    5e25:	48 31 fb             	xor    %rdi,%rbx
    5e28:	48 c1 c3 0f          	rol    $0xf,%rbx
    5e2c:	48 8b ac 24 b0 01 00 	mov    0x1b0(%rsp),%rbp
    5e33:	00 
    5e34:	4c 31 c5             	xor    %r8,%rbp
    5e37:	48 c1 c5 38          	rol    $0x38,%rbp
    5e3b:	4d 89 dd             	mov    %r11,%r13
    5e3e:	49 f7 d5             	not    %r13
    5e41:	4d 21 e5             	and    %r12,%r13
    5e44:	4d 31 d5             	xor    %r10,%r13
    5e47:	4c 89 ac 24 a8 00 00 	mov    %r13,0xa8(%rsp)
    5e4e:	00 
    5e4f:	4d 89 e5             	mov    %r12,%r13
    5e52:	49 f7 d5             	not    %r13
    5e55:	49 21 dd             	and    %rbx,%r13
    5e58:	4d 31 dd             	xor    %r11,%r13
    5e5b:	4c 89 ac 24 b0 00 00 	mov    %r13,0xb0(%rsp)
    5e62:	00 
    5e63:	49 89 dd             	mov    %rbx,%r13
    5e66:	49 f7 d5             	not    %r13
    5e69:	49 21 ed             	and    %rbp,%r13
    5e6c:	4d 31 e5             	xor    %r12,%r13
    5e6f:	4c 89 ac 24 b8 00 00 	mov    %r13,0xb8(%rsp)
    5e76:	00 
    5e77:	49 89 ec             	mov    %rbp,%r12
    5e7a:	49 f7 d4             	not    %r12
    5e7d:	4d 21 d4             	and    %r10,%r12
    5e80:	49 31 dc             	xor    %rbx,%r12
    5e83:	4c 89 a4 24 c0 00 00 	mov    %r12,0xc0(%rsp)
    5e8a:	00 
    5e8b:	49 f7 d2             	not    %r10
    5e8e:	4d 21 da             	and    %r11,%r10
    5e91:	49 31 ea             	xor    %rbp,%r10
    5e94:	4c 89 94 24 c8 00 00 	mov    %r10,0xc8(%rsp)
    5e9b:	00 
    5e9c:	4c 8b 94 24 08 01 00 	mov    0x108(%rsp),%r10
    5ea3:	00 
    5ea4:	49 31 fa             	xor    %rdi,%r10
    5ea7:	49 c1 c2 3e          	rol    $0x3e,%r10
    5eab:	48 8b bc 24 38 01 00 	mov    0x138(%rsp),%rdi
    5eb2:	00 
    5eb3:	4c 31 c7             	xor    %r8,%rdi
    5eb6:	48 c1 c7 37          	rol    $0x37,%rdi
    5eba:	4c 8b 84 24 68 01 00 	mov    0x168(%rsp),%r8
    5ec1:	00 
    5ec2:	4d 31 c8             	xor    %r9,%r8
    5ec5:	49 c1 c0 27          	rol    $0x27,%r8
    5ec9:	4c 8b 8c 24 70 01 00 	mov    0x170(%rsp),%r9
    5ed0:	00 
    5ed1:	49 31 d1             	xor    %rdx,%r9
    5ed4:	49 c1 c1 29          	rol    $0x29,%r9
    5ed8:	48 8b 94 24 a0 01 00 	mov    0x1a0(%rsp),%rdx
    5edf:	00 
    5ee0:	48 31 f2             	xor    %rsi,%rdx
    5ee3:	48 c1 c2 02          	rol    $0x2,%rdx
    5ee7:	48 89 fe             	mov    %rdi,%rsi
    5eea:	48 f7 d6             	not    %rsi
    5eed:	4c 21 c6             	and    %r8,%rsi
    5ef0:	4c 31 d6             	xor    %r10,%rsi
    5ef3:	48 89 b4 24 d0 00 00 	mov    %rsi,0xd0(%rsp)
    5efa:	00 
    5efb:	4c 89 c6             	mov    %r8,%rsi
    5efe:	48 f7 d6             	not    %rsi
    5f01:	4c 21 ce             	and    %r9,%rsi
    5f04:	48 31 fe             	xor    %rdi,%rsi
    5f07:	48 89 b4 24 d8 00 00 	mov    %rsi,0xd8(%rsp)
    5f0e:	00 
    5f0f:	4c 89 ce             	mov    %r9,%rsi
    5f12:	48 f7 d6             	not    %rsi
    5f15:	48 21 d6             	and    %rdx,%rsi
    5f18:	4c 31 c6             	xor    %r8,%rsi
    5f1b:	48 89 b4 24 e0 00 00 	mov    %rsi,0xe0(%rsp)
    5f22:	00 
    5f23:	48 89 d6             	mov    %rdx,%rsi
    5f26:	48 f7 d6             	not    %rsi
    5f29:	4c 21 d6             	and    %r10,%rsi
    5f2c:	4c 31 ce             	xor    %r9,%rsi
    5f2f:	48 89 b4 24 e8 00 00 	mov    %rsi,0xe8(%rsp)
    5f36:	00 
    5f37:	49 f7 d2             	not    %r10
    5f3a:	49 21 fa             	and    %rdi,%r10
    5f3d:	49 31 d2             	xor    %rdx,%r10
    5f40:	4c 89 94 24 f0 00 00 	mov    %r10,0xf0(%rsp)
    5f47:	00 
    5f48:	48 83 c1 02          	add    $0x2,%rcx

0000000000005f4c <L_keccak1600_ref$12>:
    5f4c:	48 83 f9 17          	cmp    $0x17,%rcx
    5f50:	0f 82 ab f7 ff ff    	jb     5701 <L_keccak1600_ref$13>
    5f56:	48 8b 4c 24 08       	mov    0x8(%rsp),%rcx
    5f5b:	48 8b 54 24 10       	mov    0x10(%rsp),%rdx
    5f60:	48 8b 44 24 28       	mov    0x28(%rsp),%rax
    5f65:	48 89 c6             	mov    %rax,%rsi
    5f68:	48 c1 ee 03          	shr    $0x3,%rsi
    5f6c:	48 c7 c7 00 00 00 00 	mov    $0x0,%rdi
    5f73:	eb 0c                	jmp    5f81 <L_keccak1600_ref$10>

0000000000005f75 <L_keccak1600_ref$11>:
    5f75:	4c 8b 44 fc 30       	mov    0x30(%rsp,%rdi,8),%r8
    5f7a:	4c 89 04 f9          	mov    %r8,(%rcx,%rdi,8)
    5f7e:	48 ff c7             	inc    %rdi

0000000000005f81 <L_keccak1600_ref$10>:
    5f81:	48 39 f7             	cmp    %rsi,%rdi
    5f84:	72 ef                	jb     5f75 <L_keccak1600_ref$11>
    5f86:	48 01 c1             	add    %rax,%rcx
    5f89:	48 29 c2             	sub    %rax,%rdx
    5f8c:	48 89 4c 24 08       	mov    %rcx,0x8(%rsp)

0000000000005f91 <L_keccak1600_ref$8>:
    5f91:	48 39 c2             	cmp    %rax,%rdx
    5f94:	0f 87 4a f7 ff ff    	ja     56e4 <L_keccak1600_ref$9>
    5f9a:	48 89 54 24 28       	mov    %rdx,0x28(%rsp)
    5f9f:	48 8d 05 fa 33 00 00 	lea    0x33fa(%rip),%rax        # 93a0 <G$KECCAK1600_RC>
    5fa6:	48 c7 c1 00 00 00 00 	mov    $0x0,%rcx
    5fad:	e9 4b 08 00 00       	jmp    67fd <L_keccak1600_ref$6>

0000000000005fb2 <L_keccak1600_ref$7>:
    5fb2:	4c 8b 14 c8          	mov    (%rax,%rcx,8),%r10
    5fb6:	4c 8b 4c 24 30       	mov    0x30(%rsp),%r9
    5fbb:	4c 8b 44 24 38       	mov    0x38(%rsp),%r8
    5fc0:	4c 8b 5c 24 40       	mov    0x40(%rsp),%r11
    5fc5:	48 8b 5c 24 48       	mov    0x48(%rsp),%rbx
    5fca:	48 8b 6c 24 50       	mov    0x50(%rsp),%rbp
    5fcf:	4c 33 4c 24 58       	xor    0x58(%rsp),%r9
    5fd4:	4c 33 44 24 60       	xor    0x60(%rsp),%r8
    5fd9:	4c 33 5c 24 68       	xor    0x68(%rsp),%r11
    5fde:	48 33 5c 24 70       	xor    0x70(%rsp),%rbx
    5fe3:	48 33 6c 24 78       	xor    0x78(%rsp),%rbp
    5fe8:	4c 33 8c 24 80 00 00 	xor    0x80(%rsp),%r9
    5fef:	00 
