
test_avx2_libjade:     file format elf64-x86-64


Disassembly of section .init:

0000000000001000 <_init>:
    1000:	f3 0f 1e fa          	endbr64 
    1004:	48 83 ec 08          	sub    $0x8,%rsp
    1008:	48 8b 05 d9 4f 00 00 	mov    0x4fd9(%rip),%rax        # 5fe8 <__gmon_start__@Base>
    100f:	48 85 c0             	test   %rax,%rax
    1012:	74 02                	je     1016 <_init+0x16>
    1014:	ff d0                	call   *%rax
    1016:	48 83 c4 08          	add    $0x8,%rsp
    101a:	c3                   	ret    

Disassembly of section .plt:

0000000000001020 <putchar@plt-0x10>:
    1020:	ff 35 82 4f 00 00    	push   0x4f82(%rip)        # 5fa8 <_GLOBAL_OFFSET_TABLE_+0x8>
    1026:	ff 25 84 4f 00 00    	jmp    *0x4f84(%rip)        # 5fb0 <_GLOBAL_OFFSET_TABLE_+0x10>
    102c:	0f 1f 40 00          	nopl   0x0(%rax)

0000000000001030 <putchar@plt>:
    1030:	ff 25 82 4f 00 00    	jmp    *0x4f82(%rip)        # 5fb8 <putchar@GLIBC_2.2.5>
    1036:	68 00 00 00 00       	push   $0x0
    103b:	e9 e0 ff ff ff       	jmp    1020 <_init+0x20>

0000000000001040 <__stack_chk_fail@plt>:
    1040:	ff 25 7a 4f 00 00    	jmp    *0x4f7a(%rip)        # 5fc0 <__stack_chk_fail@GLIBC_2.4>
    1046:	68 01 00 00 00       	push   $0x1
    104b:	e9 d0 ff ff ff       	jmp    1020 <_init+0x20>

0000000000001050 <__isoc99_sscanf@plt>:
    1050:	ff 25 72 4f 00 00    	jmp    *0x4f72(%rip)        # 5fc8 <__isoc99_sscanf@GLIBC_2.7>
    1056:	68 02 00 00 00       	push   $0x2
    105b:	e9 c0 ff ff ff       	jmp    1020 <_init+0x20>

0000000000001060 <__printf_chk@plt>:
    1060:	ff 25 6a 4f 00 00    	jmp    *0x4f6a(%rip)        # 5fd0 <__printf_chk@GLIBC_2.3.4>
    1066:	68 03 00 00 00       	push   $0x3
    106b:	e9 b0 ff ff ff       	jmp    1020 <_init+0x20>

Disassembly of section .plt.got:

0000000000001070 <__cxa_finalize@plt>:
    1070:	ff 25 82 4f 00 00    	jmp    *0x4f82(%rip)        # 5ff8 <__cxa_finalize@GLIBC_2.2.5>
    1076:	66 90                	xchg   %ax,%ax

Disassembly of section .text:

0000000000001080 <main>:
    1080:	f3 0f 1e fa          	endbr64 
    1084:	48 83 ec 08          	sub    $0x8,%rsp
    1088:	31 c0                	xor    %eax,%eax
    108a:	e8 a1 01 00 00       	call   1230 <sha3_tests>
    108f:	31 c0                	xor    %eax,%eax
    1091:	48 83 c4 08          	add    $0x8,%rsp
    1095:	c3                   	ret    
    1096:	66 2e 0f 1f 84 00 00 	cs nopw 0x0(%rax,%rax,1)
    109d:	00 00 00 

00000000000010a0 <_start>:
    10a0:	f3 0f 1e fa          	endbr64 
    10a4:	31 ed                	xor    %ebp,%ebp
    10a6:	49 89 d1             	mov    %rdx,%r9
    10a9:	5e                   	pop    %rsi
    10aa:	48 89 e2             	mov    %rsp,%rdx
    10ad:	48 83 e4 f0          	and    $0xfffffffffffffff0,%rsp
    10b1:	50                   	push   %rax
    10b2:	54                   	push   %rsp
    10b3:	45 31 c0             	xor    %r8d,%r8d
    10b6:	31 c9                	xor    %ecx,%ecx
    10b8:	48 8d 3d c1 ff ff ff 	lea    -0x3f(%rip),%rdi        # 1080 <main>
    10bf:	ff 15 13 4f 00 00    	call   *0x4f13(%rip)        # 5fd8 <__libc_start_main@GLIBC_2.34>
    10c5:	f4                   	hlt    
    10c6:	66 2e 0f 1f 84 00 00 	cs nopw 0x0(%rax,%rax,1)
    10cd:	00 00 00 

00000000000010d0 <deregister_tm_clones>:
    10d0:	48 8d 3d 51 61 00 00 	lea    0x6151(%rip),%rdi        # 7228 <__TMC_END__>
    10d7:	48 8d 05 4a 61 00 00 	lea    0x614a(%rip),%rax        # 7228 <__TMC_END__>
    10de:	48 39 f8             	cmp    %rdi,%rax
    10e1:	74 15                	je     10f8 <deregister_tm_clones+0x28>
    10e3:	48 8b 05 f6 4e 00 00 	mov    0x4ef6(%rip),%rax        # 5fe0 <_ITM_deregisterTMCloneTable@Base>
    10ea:	48 85 c0             	test   %rax,%rax
    10ed:	74 09                	je     10f8 <deregister_tm_clones+0x28>
    10ef:	ff e0                	jmp    *%rax
    10f1:	0f 1f 80 00 00 00 00 	nopl   0x0(%rax)
    10f8:	c3                   	ret    
    10f9:	0f 1f 80 00 00 00 00 	nopl   0x0(%rax)

0000000000001100 <register_tm_clones>:
    1100:	48 8d 3d 21 61 00 00 	lea    0x6121(%rip),%rdi        # 7228 <__TMC_END__>
    1107:	48 8d 35 1a 61 00 00 	lea    0x611a(%rip),%rsi        # 7228 <__TMC_END__>
    110e:	48 29 fe             	sub    %rdi,%rsi
    1111:	48 89 f0             	mov    %rsi,%rax
    1114:	48 c1 ee 3f          	shr    $0x3f,%rsi
    1118:	48 c1 f8 03          	sar    $0x3,%rax
    111c:	48 01 c6             	add    %rax,%rsi
    111f:	48 d1 fe             	sar    %rsi
    1122:	74 14                	je     1138 <register_tm_clones+0x38>
    1124:	48 8b 05 c5 4e 00 00 	mov    0x4ec5(%rip),%rax        # 5ff0 <_ITM_registerTMCloneTable@Base>
    112b:	48 85 c0             	test   %rax,%rax
    112e:	74 08                	je     1138 <register_tm_clones+0x38>
    1130:	ff e0                	jmp    *%rax
    1132:	66 0f 1f 44 00 00    	nopw   0x0(%rax,%rax,1)
    1138:	c3                   	ret    
    1139:	0f 1f 80 00 00 00 00 	nopl   0x0(%rax)

0000000000001140 <__do_global_dtors_aux>:
    1140:	f3 0f 1e fa          	endbr64 
    1144:	80 3d dd 60 00 00 00 	cmpb   $0x0,0x60dd(%rip)        # 7228 <__TMC_END__>
    114b:	75 2b                	jne    1178 <__do_global_dtors_aux+0x38>
    114d:	55                   	push   %rbp
    114e:	48 83 3d a2 4e 00 00 	cmpq   $0x0,0x4ea2(%rip)        # 5ff8 <__cxa_finalize@GLIBC_2.2.5>
    1155:	00 
    1156:	48 89 e5             	mov    %rsp,%rbp
    1159:	74 0c                	je     1167 <__do_global_dtors_aux+0x27>
    115b:	48 8b 3d a6 4e 00 00 	mov    0x4ea6(%rip),%rdi        # 6008 <__dso_handle>
    1162:	e8 09 ff ff ff       	call   1070 <__cxa_finalize@plt>
    1167:	e8 64 ff ff ff       	call   10d0 <deregister_tm_clones>
    116c:	c6 05 b5 60 00 00 01 	movb   $0x1,0x60b5(%rip)        # 7228 <__TMC_END__>
    1173:	5d                   	pop    %rbp
    1174:	c3                   	ret    
    1175:	0f 1f 00             	nopl   (%rax)
    1178:	c3                   	ret    
    1179:	0f 1f 80 00 00 00 00 	nopl   0x0(%rax)

0000000000001180 <frame_dummy>:
    1180:	f3 0f 1e fa          	endbr64 
    1184:	e9 77 ff ff ff       	jmp    1100 <register_tm_clones>
    1189:	0f 1f 80 00 00 00 00 	nopl   0x0(%rax)

0000000000001190 <compare_bytes>:
    1190:	f3 0f 1e fa          	endbr64 
    1194:	48 85 d2             	test   %rdx,%rdx
    1197:	74 27                	je     11c0 <compare_bytes+0x30>
    1199:	31 c0                	xor    %eax,%eax
    119b:	eb 0c                	jmp    11a9 <compare_bytes+0x19>
    119d:	0f 1f 00             	nopl   (%rax)
    11a0:	48 83 c0 01          	add    $0x1,%rax
    11a4:	48 39 c2             	cmp    %rax,%rdx
    11a7:	74 17                	je     11c0 <compare_bytes+0x30>
    11a9:	0f b6 0c 06          	movzbl (%rsi,%rax,1),%ecx
    11ad:	38 0c 07             	cmp    %cl,(%rdi,%rax,1)
    11b0:	74 ee                	je     11a0 <compare_bytes+0x10>
    11b2:	b8 01 00 00 00       	mov    $0x1,%eax
    11b7:	c3                   	ret    
    11b8:	0f 1f 84 00 00 00 00 	nopl   0x0(%rax,%rax,1)
    11bf:	00 
    11c0:	31 c0                	xor    %eax,%eax
    11c2:	c3                   	ret    
    11c3:	66 66 2e 0f 1f 84 00 	data16 cs nopw 0x0(%rax,%rax,1)
    11ca:	00 00 00 00 
    11ce:	66 90                	xchg   %ax,%ax

00000000000011d0 <hex_to_bytes>:
    11d0:	f3 0f 1e fa          	endbr64 
    11d4:	48 85 d2             	test   %rdx,%rdx
    11d7:	74 4f                	je     1228 <hex_to_bytes+0x58>
    11d9:	41 55                	push   %r13
    11db:	4c 8d 2c 57          	lea    (%rdi,%rdx,2),%r13
    11df:	41 54                	push   %r12
    11e1:	4c 8d 25 1c 2e 00 00 	lea    0x2e1c(%rip),%r12        # 4004 <_IO_stdin_used+0x4>
    11e8:	55                   	push   %rbp
    11e9:	48 89 f5             	mov    %rsi,%rbp
    11ec:	53                   	push   %rbx
    11ed:	48 89 fb             	mov    %rdi,%rbx
    11f0:	48 83 ec 08          	sub    $0x8,%rsp
    11f4:	0f 1f 40 00          	nopl   0x0(%rax)
    11f8:	48 89 ea             	mov    %rbp,%rdx
    11fb:	48 89 df             	mov    %rbx,%rdi
    11fe:	4c 89 e6             	mov    %r12,%rsi
    1201:	31 c0                	xor    %eax,%eax
    1203:	e8 48 fe ff ff       	call   1050 <__isoc99_sscanf@plt>
    1208:	48 83 c3 02          	add    $0x2,%rbx
    120c:	48 83 c5 01          	add    $0x1,%rbp
    1210:	4c 39 eb             	cmp    %r13,%rbx
    1213:	75 e3                	jne    11f8 <hex_to_bytes+0x28>
    1215:	48 83 c4 08          	add    $0x8,%rsp
    1219:	31 c0                	xor    %eax,%eax
    121b:	5b                   	pop    %rbx
    121c:	5d                   	pop    %rbp
    121d:	41 5c                	pop    %r12
    121f:	41 5d                	pop    %r13
    1221:	c3                   	ret    
    1222:	66 0f 1f 44 00 00    	nopw   0x0(%rax,%rax,1)
    1228:	31 c0                	xor    %eax,%eax
    122a:	c3                   	ret    
    122b:	0f 1f 44 00 00       	nopl   0x0(%rax,%rax,1)

0000000000001230 <sha3_tests>:
    1230:	f3 0f 1e fa          	endbr64 
    1234:	55                   	push   %rbp
    1235:	48 89 e5             	mov    %rsp,%rbp
    1238:	41 57                	push   %r15
    123a:	4c 8d 3d fc 2d 00 00 	lea    0x2dfc(%rip),%r15        # 403d <_IO_stdin_used+0x3d>
    1241:	41 56                	push   %r14
    1243:	4c 8d 75 a0          	lea    -0x60(%rbp),%r14
    1247:	41 55                	push   %r13
    1249:	4c 8d 2d b4 2d 00 00 	lea    0x2db4(%rip),%r13        # 4004 <_IO_stdin_used+0x4>
    1250:	41 54                	push   %r12
    1252:	53                   	push   %rbx
    1253:	48 8d 5d c0          	lea    -0x40(%rbp),%rbx
    1257:	48 81 ec a8 00 00 00 	sub    $0xa8,%rsp
    125e:	64 48 8b 04 25 28 00 	mov    %fs:0x28,%rax
    1265:	00 00 
    1267:	48 89 45 c8          	mov    %rax,-0x38(%rbp)
    126b:	48 8d 05 ae 4d 00 00 	lea    0x4dae(%rip),%rax        # 6020 <test_vectors>
    1272:	48 c7 85 78 ff ff ff 	movq   $0x0,-0x88(%rbp)
    1279:	00 00 00 00 
    127d:	48 89 85 60 ff ff ff 	mov    %rax,-0xa0(%rbp)
    1284:	48 8d 45 80          	lea    -0x80(%rbp),%rax
    1288:	48 89 85 70 ff ff ff 	mov    %rax,-0x90(%rbp)
    128f:	90                   	nop
    1290:	48 83 85 78 ff ff ff 	addq   $0x1,-0x88(%rbp)
    1297:	01 
    1298:	48 8b 95 78 ff ff ff 	mov    -0x88(%rbp),%rdx
    129f:	bf 01 00 00 00       	mov    $0x1,%edi
    12a4:	31 c0                	xor    %eax,%eax
    12a6:	48 8d 35 5d 2d 00 00 	lea    0x2d5d(%rip),%rsi        # 400a <_IO_stdin_used+0xa>
    12ad:	48 89 a5 58 ff ff ff 	mov    %rsp,-0xa8(%rbp)
    12b4:	e8 a7 fd ff ff       	call   1060 <__printf_chk@plt>
    12b9:	48 8b 85 60 ff ff ff 	mov    -0xa0(%rbp),%rax
    12c0:	48 89 e6             	mov    %rsp,%rsi
    12c3:	48 8b 38             	mov    (%rax),%rdi
    12c6:	48 8b 48 08          	mov    0x8(%rax),%rcx
    12ca:	48 8b 40 10          	mov    0x10(%rax),%rax
    12ce:	48 89 bd 68 ff ff ff 	mov    %rdi,-0x98(%rbp)
    12d5:	48 89 85 50 ff ff ff 	mov    %rax,-0xb0(%rbp)
    12dc:	48 8d 47 0f          	lea    0xf(%rdi),%rax
    12e0:	48 89 c2             	mov    %rax,%rdx
    12e3:	48 25 00 f0 ff ff    	and    $0xfffffffffffff000,%rax
    12e9:	48 29 c6             	sub    %rax,%rsi
    12ec:	48 83 e2 f0          	and    $0xfffffffffffffff0,%rdx
    12f0:	48 39 f4             	cmp    %rsi,%rsp
    12f3:	74 15                	je     130a <sha3_tests+0xda>
    12f5:	48 81 ec 00 10 00 00 	sub    $0x1000,%rsp
    12fc:	48 83 8c 24 f8 0f 00 	orq    $0x0,0xff8(%rsp)
    1303:	00 00 
    1305:	48 39 f4             	cmp    %rsi,%rsp
    1308:	75 eb                	jne    12f5 <sha3_tests+0xc5>
    130a:	81 e2 ff 0f 00 00    	and    $0xfff,%edx
    1310:	48 29 d4             	sub    %rdx,%rsp
    1313:	48 85 d2             	test   %rdx,%rdx
    1316:	74 06                	je     131e <sha3_tests+0xee>
    1318:	48 83 4c 14 f8 00    	orq    $0x0,-0x8(%rsp,%rdx,1)
    131e:	48 8b 85 68 ff ff ff 	mov    -0x98(%rbp),%rax
    1325:	48 89 a5 38 ff ff ff 	mov    %rsp,-0xc8(%rbp)
    132c:	48 85 c0             	test   %rax,%rax
    132f:	74 4a                	je     137b <sha3_tests+0x14b>
    1331:	48 89 e2             	mov    %rsp,%rdx
    1334:	48 8d 04 41          	lea    (%rcx,%rax,2),%rax
    1338:	4c 89 b5 48 ff ff ff 	mov    %r14,-0xb8(%rbp)
    133f:	48 89 9d 40 ff ff ff 	mov    %rbx,-0xc0(%rbp)
    1346:	49 89 d6             	mov    %rdx,%r14
    1349:	48 89 cb             	mov    %rcx,%rbx
    134c:	49 89 c4             	mov    %rax,%r12
    134f:	90                   	nop
    1350:	4c 89 f2             	mov    %r14,%rdx
    1353:	48 89 df             	mov    %rbx,%rdi
    1356:	4c 89 ee             	mov    %r13,%rsi
    1359:	31 c0                	xor    %eax,%eax
    135b:	e8 f0 fc ff ff       	call   1050 <__isoc99_sscanf@plt>
    1360:	48 83 c3 02          	add    $0x2,%rbx
    1364:	49 83 c6 01          	add    $0x1,%r14
    1368:	4c 39 e3             	cmp    %r12,%rbx
    136b:	75 e3                	jne    1350 <sha3_tests+0x120>
    136d:	4c 8b b5 48 ff ff ff 	mov    -0xb8(%rbp),%r14
    1374:	48 8b 9d 40 ff ff ff 	mov    -0xc0(%rbp),%rbx
    137b:	48 8b 8d 50 ff ff ff 	mov    -0xb0(%rbp),%rcx
    1382:	4c 89 b5 48 ff ff ff 	mov    %r14,-0xb8(%rbp)
    1389:	4d 89 f4             	mov    %r14,%r12
    138c:	4c 89 b5 50 ff ff ff 	mov    %r14,-0xb0(%rbp)
    1393:	49 89 ce             	mov    %rcx,%r14
    1396:	66 2e 0f 1f 84 00 00 	cs nopw 0x0(%rax,%rax,1)
    139d:	00 00 00 
    13a0:	4c 89 e2             	mov    %r12,%rdx
    13a3:	4c 89 f7             	mov    %r14,%rdi
    13a6:	4c 89 ee             	mov    %r13,%rsi
    13a9:	31 c0                	xor    %eax,%eax
    13ab:	e8 a0 fc ff ff       	call   1050 <__isoc99_sscanf@plt>
    13b0:	49 83 c4 01          	add    $0x1,%r12
    13b4:	49 83 c6 02          	add    $0x2,%r14
    13b8:	49 39 dc             	cmp    %rbx,%r12
    13bb:	75 e3                	jne    13a0 <sha3_tests+0x170>
    13bd:	48 8b 95 68 ff ff ff 	mov    -0x98(%rbp),%rdx
    13c4:	48 8b b5 38 ff ff ff 	mov    -0xc8(%rbp),%rsi
    13cb:	48 8b bd 70 ff ff ff 	mov    -0x90(%rbp),%rdi
    13d2:	4c 8b a5 50 ff ff ff 	mov    -0xb0(%rbp),%r12
    13d9:	4c 8b b5 48 ff ff ff 	mov    -0xb8(%rbp),%r14
    13e0:	e8 3b 01 00 00       	call   1520 <_jade_hash_sha3_256_amd64>
    13e5:	85 c0                	test   %eax,%eax
    13e7:	75 7f                	jne    1468 <sha3_tests+0x238>
    13e9:	48 8b 95 70 ff ff ff 	mov    -0x90(%rbp),%rdx
    13f0:	31 c0                	xor    %eax,%eax
    13f2:	66 0f 1f 44 00 00    	nopw   0x0(%rax,%rax,1)
    13f8:	41 0f b6 0c 06       	movzbl (%r14,%rax,1),%ecx
    13fd:	38 0c 02             	cmp    %cl,(%rdx,%rax,1)
    1400:	75 66                	jne    1468 <sha3_tests+0x238>
    1402:	48 83 c0 01          	add    $0x1,%rax
    1406:	48 83 f8 20          	cmp    $0x20,%rax
    140a:	75 ec                	jne    13f8 <sha3_tests+0x1c8>
    140c:	48 8b 95 78 ff ff ff 	mov    -0x88(%rbp),%rdx
    1413:	48 8d 35 39 2c 00 00 	lea    0x2c39(%rip),%rsi        # 4053 <_IO_stdin_used+0x53>
    141a:	bf 01 00 00 00       	mov    $0x1,%edi
    141f:	31 c0                	xor    %eax,%eax
    1421:	e8 3a fc ff ff       	call   1060 <__printf_chk@plt>
    1426:	48 83 85 60 ff ff ff 	addq   $0x18,-0xa0(%rbp)
    142d:	18 
    142e:	48 83 bd 78 ff ff ff 	cmpq   $0x15,-0x88(%rbp)
    1435:	15 
    1436:	48 8b a5 58 ff ff ff 	mov    -0xa8(%rbp),%rsp
    143d:	0f 85 4d fe ff ff    	jne    1290 <sha3_tests+0x60>
    1443:	48 8b 45 c8          	mov    -0x38(%rbp),%rax
    1447:	64 48 2b 04 25 28 00 	sub    %fs:0x28,%rax
    144e:	00 00 
    1450:	0f 85 a6 00 00 00    	jne    14fc <sha3_tests+0x2cc>
    1456:	48 8d 65 d8          	lea    -0x28(%rbp),%rsp
    145a:	5b                   	pop    %rbx
    145b:	41 5c                	pop    %r12
    145d:	41 5d                	pop    %r13
    145f:	41 5e                	pop    %r14
    1461:	41 5f                	pop    %r15
    1463:	5d                   	pop    %rbp
    1464:	c3                   	ret    
    1465:	0f 1f 00             	nopl   (%rax)
    1468:	48 8b 95 78 ff ff ff 	mov    -0x88(%rbp),%rdx
    146f:	48 8d 35 a6 2b 00 00 	lea    0x2ba6(%rip),%rsi        # 401c <_IO_stdin_used+0x1c>
    1476:	bf 01 00 00 00       	mov    $0x1,%edi
    147b:	31 c0                	xor    %eax,%eax
    147d:	e8 de fb ff ff       	call   1060 <__printf_chk@plt>
    1482:	48 8d 35 a4 2b 00 00 	lea    0x2ba4(%rip),%rsi        # 402d <_IO_stdin_used+0x2d>
    1489:	bf 01 00 00 00       	mov    $0x1,%edi
    148e:	31 c0                	xor    %eax,%eax
    1490:	e8 cb fb ff ff       	call   1060 <__printf_chk@plt>
    1495:	0f 1f 00             	nopl   (%rax)
    1498:	41 0f b6 14 24       	movzbl (%r12),%edx
    149d:	4c 89 fe             	mov    %r15,%rsi
    14a0:	bf 01 00 00 00       	mov    $0x1,%edi
    14a5:	31 c0                	xor    %eax,%eax
    14a7:	49 83 c4 01          	add    $0x1,%r12
    14ab:	e8 b0 fb ff ff       	call   1060 <__printf_chk@plt>
    14b0:	49 39 dc             	cmp    %rbx,%r12
    14b3:	75 e3                	jne    1498 <sha3_tests+0x268>
    14b5:	48 8d 35 86 2b 00 00 	lea    0x2b86(%rip),%rsi        # 4042 <_IO_stdin_used+0x42>
    14bc:	bf 01 00 00 00       	mov    $0x1,%edi
    14c1:	31 c0                	xor    %eax,%eax
    14c3:	e8 98 fb ff ff       	call   1060 <__printf_chk@plt>
    14c8:	4c 8b a5 70 ff ff ff 	mov    -0x90(%rbp),%r12
    14cf:	90                   	nop
    14d0:	41 0f b6 14 24       	movzbl (%r12),%edx
    14d5:	4c 89 fe             	mov    %r15,%rsi
    14d8:	bf 01 00 00 00       	mov    $0x1,%edi
    14dd:	31 c0                	xor    %eax,%eax
    14df:	49 83 c4 01          	add    $0x1,%r12
    14e3:	e8 78 fb ff ff       	call   1060 <__printf_chk@plt>
    14e8:	4d 39 e6             	cmp    %r12,%r14
    14eb:	75 e3                	jne    14d0 <sha3_tests+0x2a0>
    14ed:	bf 0a 00 00 00       	mov    $0xa,%edi
    14f2:	e8 39 fb ff ff       	call   1030 <putchar@plt>
    14f7:	e9 2a ff ff ff       	jmp    1426 <sha3_tests+0x1f6>
    14fc:	e8 3f fb ff ff       	call   1040 <__stack_chk_fail@plt>
    1501:	66 2e 0f 1f 84 00 00 	cs nopw 0x0(%rax,%rax,1)
    1508:	00 00 00 
    150b:	66 2e 0f 1f 84 00 00 	cs nopw 0x0(%rax,%rax,1)
    1512:	00 00 00 
    1515:	66 2e 0f 1f 84 00 00 	cs nopw 0x0(%rax,%rax,1)
    151c:	00 00 00 
    151f:	90                   	nop

0000000000001520 <_jade_hash_sha3_256_amd64>:
    1520:	48 89 e0             	mov    %rsp,%rax
    1523:	48 8d 64 24 e0       	lea    -0x20(%rsp),%rsp
    1528:	48 83 e4 e0          	and    $0xffffffffffffffe0,%rsp
    152c:	48 89 1c 24          	mov    %rbx,(%rsp)
    1530:	48 89 6c 24 08       	mov    %rbp,0x8(%rsp)
    1535:	4c 89 64 24 10       	mov    %r12,0x10(%rsp)
    153a:	48 89 44 24 18       	mov    %rax,0x18(%rsp)
    153f:	49 c7 c1 20 00 00 00 	mov    $0x20,%r9
    1546:	b0 06                	mov    $0x6,%al
    1548:	48 c7 c1 88 00 00 00 	mov    $0x88,%rcx
    154f:	48 8d a4 24 08 ff ff 	lea    -0xf8(%rsp),%rsp
    1556:	ff 
    1557:	e8 1f 00 00 00       	call   157b <L_keccak1600_avx2$1>

000000000000155c <Ljade_hash_sha3_256_amd64$1>:
    155c:	48 8d a4 24 f8 00 00 	lea    0xf8(%rsp),%rsp
    1563:	00 
    1564:	48 31 c0             	xor    %rax,%rax
    1567:	48 8b 1c 24          	mov    (%rsp),%rbx
    156b:	48 8b 6c 24 08       	mov    0x8(%rsp),%rbp
    1570:	4c 8b 64 24 10       	mov    0x10(%rsp),%r12
    1575:	48 8b 64 24 18       	mov    0x18(%rsp),%rsp
    157a:	c3                   	ret    

000000000000157b <L_keccak1600_avx2$1>:
    157b:	c5 cd ef f6          	vpxor  %ymm6,%ymm6,%ymm6
    157f:	c5 e5 ef db          	vpxor  %ymm3,%ymm3,%ymm3
    1583:	c5 dd ef e4          	vpxor  %ymm4,%ymm4,%ymm4
    1587:	c5 fd ef c0          	vpxor  %ymm0,%ymm0,%ymm0
    158b:	c5 d5 ef ed          	vpxor  %ymm5,%ymm5,%ymm5
    158f:	c5 f5 ef c9          	vpxor  %ymm1,%ymm1,%ymm1
    1593:	c5 ed ef d2          	vpxor  %ymm2,%ymm2,%ymm2
    1597:	4c 8d 05 02 51 00 00 	lea    0x5102(%rip),%r8        # 66a0 <G$KECCAK_A_JAGGED>
    159e:	c5 c5 ef ff          	vpxor  %ymm7,%ymm7,%ymm7
    15a2:	c5 fe 7f 7c 24 20    	vmovdqu %ymm7,0x20(%rsp)
    15a8:	c5 fe 7f 7c 24 40    	vmovdqu %ymm7,0x40(%rsp)
    15ae:	c5 fe 7f 7c 24 60    	vmovdqu %ymm7,0x60(%rsp)
    15b4:	c5 fe 7f bc 24 80 00 	vmovdqu %ymm7,0x80(%rsp)
    15bb:	00 00 
    15bd:	c5 fe 7f bc 24 a0 00 	vmovdqu %ymm7,0xa0(%rsp)
    15c4:	00 00 
    15c6:	c5 fe 7f bc 24 c0 00 	vmovdqu %ymm7,0xc0(%rsp)
    15cd:	00 00 
    15cf:	c5 fe 7f bc 24 e0 00 	vmovdqu %ymm7,0xe0(%rsp)
    15d6:	00 00 
    15d8:	e9 e9 02 00 00       	jmp    18c6 <L_keccak1600_avx2$16>

00000000000015dd <L_keccak1600_avx2$17>:
    15dd:	49 89 ca             	mov    %rcx,%r10
    15e0:	49 c1 ea 03          	shr    $0x3,%r10
    15e4:	49 c7 c3 00 00 00 00 	mov    $0x0,%r11
    15eb:	eb 10                	jmp    15fd <L_keccak1600_avx2$19>

00000000000015ed <L_keccak1600_avx2$20>:
    15ed:	4a 8b 1c de          	mov    (%rsi,%r11,8),%rbx
    15f1:	4b 8b 2c d8          	mov    (%r8,%r11,8),%rbp
    15f5:	48 89 5c ec 20       	mov    %rbx,0x20(%rsp,%rbp,8)
    15fa:	49 ff c3             	inc    %r11

00000000000015fd <L_keccak1600_avx2$19>:
    15fd:	4d 39 d3             	cmp    %r10,%r11
    1600:	72 eb                	jb     15ed <L_keccak1600_avx2$20>
    1602:	4c 8b 54 24 20       	mov    0x20(%rsp),%r10
    1607:	4c 89 54 24 28       	mov    %r10,0x28(%rsp)
    160c:	4c 89 54 24 30       	mov    %r10,0x30(%rsp)
    1611:	4c 89 54 24 38       	mov    %r10,0x38(%rsp)
    1616:	c5 cd ef 74 24 20    	vpxor  0x20(%rsp),%ymm6,%ymm6
    161c:	c5 e5 ef 5c 24 40    	vpxor  0x40(%rsp),%ymm3,%ymm3
    1622:	c5 dd ef 64 24 60    	vpxor  0x60(%rsp),%ymm4,%ymm4
    1628:	c5 fd ef 84 24 80 00 	vpxor  0x80(%rsp),%ymm0,%ymm0
    162f:	00 00 
    1631:	c5 d5 ef ac 24 a0 00 	vpxor  0xa0(%rsp),%ymm5,%ymm5
    1638:	00 00 
    163a:	c5 f5 ef 8c 24 c0 00 	vpxor  0xc0(%rsp),%ymm1,%ymm1
    1641:	00 00 
    1643:	c5 ed ef 94 24 e0 00 	vpxor  0xe0(%rsp),%ymm2,%ymm2
    164a:	00 00 
    164c:	48 01 ce             	add    %rcx,%rsi
    164f:	48 29 ca             	sub    %rcx,%rdx
    1652:	4c 8d 15 47 4d 00 00 	lea    0x4d47(%rip),%r10        # 63a0 <G$KECCAK_IOTAS>
    1659:	49 c7 c3 00 00 00 00 	mov    $0x0,%r11
    1660:	48 8d 1d 79 4c 00 00 	lea    0x4c79(%rip),%rbx        # 62e0 <G$KECCAK_RHOTATES_LEFT>
    1667:	48 8d 2d b2 4b 00 00 	lea    0x4bb2(%rip),%rbp        # 6220 <G$KECCAK_RHOTATES_RIGHT>
    166e:	49 c7 c4 18 00 00 00 	mov    $0x18,%r12

0000000000001675 <L_keccak1600_avx2$18>:
    1675:	c5 7d 70 c4 4e       	vpshufd $0x4e,%ymm4,%ymm8
    167a:	c5 f5 ef f8          	vpxor  %ymm0,%ymm1,%ymm7
    167e:	c5 55 ef ca          	vpxor  %ymm2,%ymm5,%ymm9
    1682:	c5 c5 ef fb          	vpxor  %ymm3,%ymm7,%ymm7
    1686:	c4 41 45 ef d1       	vpxor  %ymm9,%ymm7,%ymm10
    168b:	c4 c3 fd 00 fa 93    	vpermq $0x93,%ymm10,%ymm7
    1691:	c5 3d ef c4          	vpxor  %ymm4,%ymm8,%ymm8
    1695:	c4 43 fd 00 c8 4e    	vpermq $0x4e,%ymm8,%ymm9
    169b:	c4 c1 25 73 d2 3f    	vpsrlq $0x3f,%ymm10,%ymm11
    16a1:	c4 41 2d d4 d2       	vpaddq %ymm10,%ymm10,%ymm10
    16a6:	c4 41 25 eb da       	vpor   %ymm10,%ymm11,%ymm11
    16ab:	c4 43 fd 00 d3 39    	vpermq $0x39,%ymm11,%ymm10
    16b1:	c5 25 ef df          	vpxor  %ymm7,%ymm11,%ymm11
    16b5:	c4 43 fd 00 db 00    	vpermq $0x0,%ymm11,%ymm11
    16bb:	c5 3d ef c6          	vpxor  %ymm6,%ymm8,%ymm8
    16bf:	c4 41 3d ef c1       	vpxor  %ymm9,%ymm8,%ymm8
    16c4:	c4 c1 35 73 d0 3f    	vpsrlq $0x3f,%ymm8,%ymm9
    16ca:	c4 41 3d d4 e0       	vpaddq %ymm8,%ymm8,%ymm12
    16cf:	c4 41 1d eb c9       	vpor   %ymm9,%ymm12,%ymm9
    16d4:	c4 c1 5d ef e3       	vpxor  %ymm11,%ymm4,%ymm4
    16d9:	c4 c1 4d ef f3       	vpxor  %ymm11,%ymm6,%ymm6
    16de:	c4 43 2d 02 c9 c0    	vpblendd $0xc0,%ymm9,%ymm10,%ymm9
    16e4:	c4 c3 45 02 f8 03    	vpblendd $0x3,%ymm8,%ymm7,%ymm7
    16ea:	c5 35 ef cf          	vpxor  %ymm7,%ymm9,%ymm9
    16ee:	c4 e2 dd 47 3b       	vpsllvq (%rbx),%ymm4,%ymm7
    16f3:	c4 e2 dd 45 65 00    	vpsrlvq 0x0(%rbp),%ymm4,%ymm4
    16f9:	c5 dd eb e7          	vpor   %ymm7,%ymm4,%ymm4
    16fd:	c4 c1 7d ef c1       	vpxor  %ymm9,%ymm0,%ymm0
    1702:	c4 e2 fd 47 7b 40    	vpsllvq 0x40(%rbx),%ymm0,%ymm7
    1708:	c4 e2 fd 45 45 40    	vpsrlvq 0x40(%rbp),%ymm0,%ymm0
    170e:	c5 fd eb c7          	vpor   %ymm7,%ymm0,%ymm0
    1712:	c4 c1 55 ef e9       	vpxor  %ymm9,%ymm5,%ymm5
    1717:	c4 e2 d5 47 7b 60    	vpsllvq 0x60(%rbx),%ymm5,%ymm7
    171d:	c4 e2 d5 45 6d 60    	vpsrlvq 0x60(%rbp),%ymm5,%ymm5
    1723:	c5 55 eb d7          	vpor   %ymm7,%ymm5,%ymm10
    1727:	c4 c1 75 ef c9       	vpxor  %ymm9,%ymm1,%ymm1
    172c:	c4 e2 f5 47 ab 80 00 	vpsllvq 0x80(%rbx),%ymm1,%ymm5
    1733:	00 00 
    1735:	c4 e2 f5 45 8d 80 00 	vpsrlvq 0x80(%rbp),%ymm1,%ymm1
    173c:	00 00 
    173e:	c5 f5 eb cd          	vpor   %ymm5,%ymm1,%ymm1
    1742:	c4 c1 6d ef d1       	vpxor  %ymm9,%ymm2,%ymm2
    1747:	c4 e3 fd 00 ec 8d    	vpermq $0x8d,%ymm4,%ymm5
    174d:	c4 e3 fd 00 f8 8d    	vpermq $0x8d,%ymm0,%ymm7
    1753:	c4 e2 ed 47 83 a0 00 	vpsllvq 0xa0(%rbx),%ymm2,%ymm0
    175a:	00 00 
    175c:	c4 e2 ed 45 95 a0 00 	vpsrlvq 0xa0(%rbp),%ymm2,%ymm2
    1763:	00 00 
    1765:	c5 6d eb c0          	vpor   %ymm0,%ymm2,%ymm8
    1769:	c4 c1 65 ef c1       	vpxor  %ymm9,%ymm3,%ymm0
    176e:	c4 c3 fd 00 da 1b    	vpermq $0x1b,%ymm10,%ymm3
    1774:	c4 63 fd 00 c9 72    	vpermq $0x72,%ymm1,%ymm9
    177a:	c4 e2 fd 47 4b 20    	vpsllvq 0x20(%rbx),%ymm0,%ymm1
    1780:	c4 e2 fd 45 45 20    	vpsrlvq 0x20(%rbp),%ymm0,%ymm0
    1786:	c5 7d eb d1          	vpor   %ymm1,%ymm0,%ymm10
    178a:	c4 c1 7d 73 d8 08    	vpsrldq $0x8,%ymm8,%ymm0
    1790:	c5 bd df c0          	vpandn %ymm0,%ymm8,%ymm0
    1794:	c4 c3 2d 02 c9 0c    	vpblendd $0xc,%ymm9,%ymm10,%ymm1
    179a:	c4 c3 45 02 d2 0c    	vpblendd $0xc,%ymm10,%ymm7,%ymm2
    17a0:	c4 e3 55 02 e7 0c    	vpblendd $0xc,%ymm7,%ymm5,%ymm4
    17a6:	c4 63 2d 02 dd 0c    	vpblendd $0xc,%ymm5,%ymm10,%ymm11
    17ac:	c4 e3 75 02 cf 30    	vpblendd $0x30,%ymm7,%ymm1,%ymm1
    17b2:	c4 e3 6d 02 d3 30    	vpblendd $0x30,%ymm3,%ymm2,%ymm2
    17b8:	c4 c3 5d 02 e2 30    	vpblendd $0x30,%ymm10,%ymm4,%ymm4
    17be:	c4 43 25 02 d9 30    	vpblendd $0x30,%ymm9,%ymm11,%ymm11
    17c4:	c4 e3 75 02 cb c0    	vpblendd $0xc0,%ymm3,%ymm1,%ymm1
    17ca:	c4 c3 6d 02 d1 c0    	vpblendd $0xc0,%ymm9,%ymm2,%ymm2
    17d0:	c4 c3 5d 02 e1 c0    	vpblendd $0xc0,%ymm9,%ymm4,%ymm4
    17d6:	c4 63 25 02 df c0    	vpblendd $0xc0,%ymm7,%ymm11,%ymm11
    17dc:	c5 f5 df ca          	vpandn %ymm2,%ymm1,%ymm1
    17e0:	c4 c1 5d df d3       	vpandn %ymm11,%ymm4,%ymm2
    17e5:	c4 c3 65 02 e2 0c    	vpblendd $0xc,%ymm10,%ymm3,%ymm4
    17eb:	c4 63 55 02 db 0c    	vpblendd $0xc,%ymm3,%ymm5,%ymm11
    17f1:	c5 f5 ef cd          	vpxor  %ymm5,%ymm1,%ymm1
    17f5:	c4 e3 5d 02 e5 30    	vpblendd $0x30,%ymm5,%ymm4,%ymm4
    17fb:	c4 63 25 02 df 30    	vpblendd $0x30,%ymm7,%ymm11,%ymm11
    1801:	c5 ed ef d3          	vpxor  %ymm3,%ymm2,%ymm2
    1805:	c4 e3 5d 02 e7 c0    	vpblendd $0xc0,%ymm7,%ymm4,%ymm4
    180b:	c4 43 25 02 da c0    	vpblendd $0xc0,%ymm10,%ymm11,%ymm11
    1811:	c4 c1 5d df e3       	vpandn %ymm11,%ymm4,%ymm4
    1816:	c4 41 5d ef e1       	vpxor  %ymm9,%ymm4,%ymm12
    181b:	c4 c3 fd 00 e0 1e    	vpermq $0x1e,%ymm8,%ymm4
    1821:	c4 e3 5d 02 e6 30    	vpblendd $0x30,%ymm6,%ymm4,%ymm4
    1827:	c4 43 fd 00 d8 39    	vpermq $0x39,%ymm8,%ymm11
    182d:	c4 63 25 02 de c0    	vpblendd $0xc0,%ymm6,%ymm11,%ymm11
    1833:	c5 25 df dc          	vpandn %ymm4,%ymm11,%ymm11
    1837:	c4 e3 45 02 e3 0c    	vpblendd $0xc,%ymm3,%ymm7,%ymm4
    183d:	c4 63 35 02 ef 0c    	vpblendd $0xc,%ymm7,%ymm9,%ymm13
    1843:	c4 c3 5d 02 e1 30    	vpblendd $0x30,%ymm9,%ymm4,%ymm4
    1849:	c4 63 15 02 ed 30    	vpblendd $0x30,%ymm5,%ymm13,%ymm13
    184f:	c4 e3 5d 02 e5 c0    	vpblendd $0xc0,%ymm5,%ymm4,%ymm4
    1855:	c4 63 15 02 eb c0    	vpblendd $0xc0,%ymm3,%ymm13,%ymm13
    185b:	c4 c1 5d df e5       	vpandn %ymm13,%ymm4,%ymm4
    1860:	c4 c1 5d ef e2       	vpxor  %ymm10,%ymm4,%ymm4
    1865:	c4 63 fd 00 e8 00    	vpermq $0x0,%ymm0,%ymm13
    186b:	c4 e3 fd 00 c1 1b    	vpermq $0x1b,%ymm1,%ymm0
    1871:	c4 e3 fd 00 ca 8d    	vpermq $0x8d,%ymm2,%ymm1
    1877:	c4 c3 fd 00 d4 72    	vpermq $0x72,%ymm12,%ymm2
    187d:	c4 63 35 02 e5 0c    	vpblendd $0xc,%ymm5,%ymm9,%ymm12
    1883:	c4 43 65 02 c9 0c    	vpblendd $0xc,%ymm9,%ymm3,%ymm9
    1889:	c4 e3 1d 02 db 30    	vpblendd $0x30,%ymm3,%ymm12,%ymm3
    188f:	c4 43 35 02 ca 30    	vpblendd $0x30,%ymm10,%ymm9,%ymm9
    1895:	c4 c3 65 02 da c0    	vpblendd $0xc0,%ymm10,%ymm3,%ymm3
    189b:	c4 e3 35 02 ed c0    	vpblendd $0xc0,%ymm5,%ymm9,%ymm5
    18a1:	c5 e5 df ed          	vpandn %ymm5,%ymm3,%ymm5
    18a5:	c4 c1 4d ef f5       	vpxor  %ymm13,%ymm6,%ymm6
    18aa:	c4 c1 25 ef d8       	vpxor  %ymm8,%ymm11,%ymm3
    18af:	c5 d5 ef ef          	vpxor  %ymm7,%ymm5,%ymm5
    18b3:	c4 81 4d ef 34 1a    	vpxor  (%r10,%r11,1),%ymm6,%ymm6
    18b9:	49 83 c3 20          	add    $0x20,%r11
    18bd:	49 ff cc             	dec    %r12
    18c0:	0f 85 af fd ff ff    	jne    1675 <L_keccak1600_avx2$18>

00000000000018c6 <L_keccak1600_avx2$16>:
    18c6:	48 39 ca             	cmp    %rcx,%rdx
    18c9:	0f 83 0e fd ff ff    	jae    15dd <L_keccak1600_avx2$17>
    18cf:	c5 c5 ef ff          	vpxor  %ymm7,%ymm7,%ymm7
    18d3:	c5 fe 7f 7c 24 20    	vmovdqu %ymm7,0x20(%rsp)
    18d9:	c5 fe 7f 7c 24 40    	vmovdqu %ymm7,0x40(%rsp)
    18df:	c5 fe 7f 7c 24 60    	vmovdqu %ymm7,0x60(%rsp)
    18e5:	c5 fe 7f bc 24 80 00 	vmovdqu %ymm7,0x80(%rsp)
    18ec:	00 00 
    18ee:	c5 fe 7f bc 24 a0 00 	vmovdqu %ymm7,0xa0(%rsp)
    18f5:	00 00 
    18f7:	c5 fe 7f bc 24 c0 00 	vmovdqu %ymm7,0xc0(%rsp)
    18fe:	00 00 
    1900:	c5 fe 7f bc 24 e0 00 	vmovdqu %ymm7,0xe0(%rsp)
    1907:	00 00 
    1909:	49 89 d2             	mov    %rdx,%r10
    190c:	49 c1 ea 03          	shr    $0x3,%r10
    1910:	49 c7 c3 00 00 00 00 	mov    $0x0,%r11
    1917:	eb 10                	jmp    1929 <L_keccak1600_avx2$14>

0000000000001919 <L_keccak1600_avx2$15>:
    1919:	4a 8b 1c de          	mov    (%rsi,%r11,8),%rbx
    191d:	4b 8b 2c d8          	mov    (%r8,%r11,8),%rbp
    1921:	48 89 5c ec 20       	mov    %rbx,0x20(%rsp,%rbp,8)
    1926:	49 ff c3             	inc    %r11

0000000000001929 <L_keccak1600_avx2$14>:
    1929:	4d 39 d3             	cmp    %r10,%r11
    192c:	72 eb                	jb     1919 <L_keccak1600_avx2$15>
    192e:	4f 8b 14 d8          	mov    (%r8,%r11,8),%r10
    1932:	49 c1 e2 03          	shl    $0x3,%r10
    1936:	49 c1 e3 03          	shl    $0x3,%r11
    193a:	eb 0f                	jmp    194b <L_keccak1600_avx2$12>

000000000000193c <L_keccak1600_avx2$13>:
    193c:	42 8a 1c 1e          	mov    (%rsi,%r11,1),%bl
    1940:	42 88 5c 14 20       	mov    %bl,0x20(%rsp,%r10,1)
    1945:	49 ff c3             	inc    %r11
    1948:	49 ff c2             	inc    %r10

000000000000194b <L_keccak1600_avx2$12>:
    194b:	49 39 d3             	cmp    %rdx,%r11
    194e:	72 ec                	jb     193c <L_keccak1600_avx2$13>
    1950:	42 88 44 14 20       	mov    %al,0x20(%rsp,%r10,1)
    1955:	48 89 c8             	mov    %rcx,%rax
    1958:	48 83 c0 ff          	add    $0xffffffffffffffff,%rax
    195c:	48 c1 e8 03          	shr    $0x3,%rax
    1960:	49 8b 04 c0          	mov    (%r8,%rax,8),%rax
    1964:	48 c1 e0 03          	shl    $0x3,%rax
    1968:	48 89 ca             	mov    %rcx,%rdx
    196b:	48 83 c2 ff          	add    $0xffffffffffffffff,%rdx
    196f:	48 83 e2 07          	and    $0x7,%rdx
    1973:	48 01 d0             	add    %rdx,%rax
    1976:	80 74 04 20 80       	xorb   $0x80,0x20(%rsp,%rax,1)
    197b:	48 8b 44 24 20       	mov    0x20(%rsp),%rax
    1980:	48 89 44 24 28       	mov    %rax,0x28(%rsp)
    1985:	48 89 44 24 30       	mov    %rax,0x30(%rsp)
    198a:	48 89 44 24 38       	mov    %rax,0x38(%rsp)
    198f:	c5 cd ef 74 24 20    	vpxor  0x20(%rsp),%ymm6,%ymm6
    1995:	c5 e5 ef 5c 24 40    	vpxor  0x40(%rsp),%ymm3,%ymm3
    199b:	c5 dd ef 64 24 60    	vpxor  0x60(%rsp),%ymm4,%ymm4
    19a1:	c5 fd ef 84 24 80 00 	vpxor  0x80(%rsp),%ymm0,%ymm0
    19a8:	00 00 
    19aa:	c5 d5 ef ac 24 a0 00 	vpxor  0xa0(%rsp),%ymm5,%ymm5
    19b1:	00 00 
    19b3:	c5 f5 ef 8c 24 c0 00 	vpxor  0xc0(%rsp),%ymm1,%ymm1
    19ba:	00 00 
    19bc:	c5 ed ef 94 24 e0 00 	vpxor  0xe0(%rsp),%ymm2,%ymm2
    19c3:	00 00 
    19c5:	48 8d 05 d4 4c 00 00 	lea    0x4cd4(%rip),%rax        # 66a0 <G$KECCAK_A_JAGGED>
    19cc:	e9 d3 02 00 00       	jmp    1ca4 <L_keccak1600_avx2$7>

00000000000019d1 <L_keccak1600_avx2$8>:
    19d1:	48 8d 15 c8 49 00 00 	lea    0x49c8(%rip),%rdx        # 63a0 <G$KECCAK_IOTAS>
    19d8:	48 c7 c6 00 00 00 00 	mov    $0x0,%rsi
    19df:	4c 8d 05 fa 48 00 00 	lea    0x48fa(%rip),%r8        # 62e0 <G$KECCAK_RHOTATES_LEFT>
    19e6:	4c 8d 15 33 48 00 00 	lea    0x4833(%rip),%r10        # 6220 <G$KECCAK_RHOTATES_RIGHT>
    19ed:	49 c7 c3 18 00 00 00 	mov    $0x18,%r11

00000000000019f4 <L_keccak1600_avx2$11>:
    19f4:	c5 7d 70 c4 4e       	vpshufd $0x4e,%ymm4,%ymm8
    19f9:	c5 f5 ef f8          	vpxor  %ymm0,%ymm1,%ymm7
    19fd:	c5 55 ef ca          	vpxor  %ymm2,%ymm5,%ymm9
    1a01:	c5 c5 ef fb          	vpxor  %ymm3,%ymm7,%ymm7
    1a05:	c4 41 45 ef d1       	vpxor  %ymm9,%ymm7,%ymm10
    1a0a:	c4 c3 fd 00 fa 93    	vpermq $0x93,%ymm10,%ymm7
    1a10:	c5 3d ef c4          	vpxor  %ymm4,%ymm8,%ymm8
    1a14:	c4 43 fd 00 c8 4e    	vpermq $0x4e,%ymm8,%ymm9
    1a1a:	c4 c1 25 73 d2 3f    	vpsrlq $0x3f,%ymm10,%ymm11
    1a20:	c4 41 2d d4 d2       	vpaddq %ymm10,%ymm10,%ymm10
    1a25:	c4 41 25 eb da       	vpor   %ymm10,%ymm11,%ymm11
    1a2a:	c4 43 fd 00 d3 39    	vpermq $0x39,%ymm11,%ymm10
    1a30:	c5 25 ef df          	vpxor  %ymm7,%ymm11,%ymm11
    1a34:	c4 43 fd 00 db 00    	vpermq $0x0,%ymm11,%ymm11
    1a3a:	c5 3d ef c6          	vpxor  %ymm6,%ymm8,%ymm8
    1a3e:	c4 41 3d ef c1       	vpxor  %ymm9,%ymm8,%ymm8
    1a43:	c4 c1 35 73 d0 3f    	vpsrlq $0x3f,%ymm8,%ymm9
    1a49:	c4 41 3d d4 e0       	vpaddq %ymm8,%ymm8,%ymm12
    1a4e:	c4 41 1d eb c9       	vpor   %ymm9,%ymm12,%ymm9
    1a53:	c4 c1 5d ef e3       	vpxor  %ymm11,%ymm4,%ymm4
    1a58:	c4 c1 4d ef f3       	vpxor  %ymm11,%ymm6,%ymm6
    1a5d:	c4 43 2d 02 c9 c0    	vpblendd $0xc0,%ymm9,%ymm10,%ymm9
    1a63:	c4 c3 45 02 f8 03    	vpblendd $0x3,%ymm8,%ymm7,%ymm7
    1a69:	c5 35 ef cf          	vpxor  %ymm7,%ymm9,%ymm9
    1a6d:	c4 c2 dd 47 38       	vpsllvq (%r8),%ymm4,%ymm7
    1a72:	c4 c2 dd 45 22       	vpsrlvq (%r10),%ymm4,%ymm4
    1a77:	c5 dd eb e7          	vpor   %ymm7,%ymm4,%ymm4
    1a7b:	c4 c1 7d ef c1       	vpxor  %ymm9,%ymm0,%ymm0
    1a80:	c4 c2 fd 47 78 40    	vpsllvq 0x40(%r8),%ymm0,%ymm7
    1a86:	c4 c2 fd 45 42 40    	vpsrlvq 0x40(%r10),%ymm0,%ymm0
    1a8c:	c5 fd eb c7          	vpor   %ymm7,%ymm0,%ymm0
    1a90:	c4 c1 55 ef e9       	vpxor  %ymm9,%ymm5,%ymm5
    1a95:	c4 c2 d5 47 78 60    	vpsllvq 0x60(%r8),%ymm5,%ymm7
    1a9b:	c4 c2 d5 45 6a 60    	vpsrlvq 0x60(%r10),%ymm5,%ymm5
    1aa1:	c5 55 eb d7          	vpor   %ymm7,%ymm5,%ymm10
    1aa5:	c4 c1 75 ef c9       	vpxor  %ymm9,%ymm1,%ymm1
    1aaa:	c4 c2 f5 47 a8 80 00 	vpsllvq 0x80(%r8),%ymm1,%ymm5
    1ab1:	00 00 
    1ab3:	c4 c2 f5 45 8a 80 00 	vpsrlvq 0x80(%r10),%ymm1,%ymm1
    1aba:	00 00 
    1abc:	c5 f5 eb cd          	vpor   %ymm5,%ymm1,%ymm1
    1ac0:	c4 c1 6d ef d1       	vpxor  %ymm9,%ymm2,%ymm2
    1ac5:	c4 e3 fd 00 ec 8d    	vpermq $0x8d,%ymm4,%ymm5
    1acb:	c4 e3 fd 00 f8 8d    	vpermq $0x8d,%ymm0,%ymm7
    1ad1:	c4 c2 ed 47 80 a0 00 	vpsllvq 0xa0(%r8),%ymm2,%ymm0
    1ad8:	00 00 
    1ada:	c4 c2 ed 45 92 a0 00 	vpsrlvq 0xa0(%r10),%ymm2,%ymm2
    1ae1:	00 00 
    1ae3:	c5 6d eb c0          	vpor   %ymm0,%ymm2,%ymm8
    1ae7:	c4 c1 65 ef c1       	vpxor  %ymm9,%ymm3,%ymm0
    1aec:	c4 c3 fd 00 da 1b    	vpermq $0x1b,%ymm10,%ymm3
    1af2:	c4 63 fd 00 c9 72    	vpermq $0x72,%ymm1,%ymm9
    1af8:	c4 c2 fd 47 48 20    	vpsllvq 0x20(%r8),%ymm0,%ymm1
    1afe:	c4 c2 fd 45 42 20    	vpsrlvq 0x20(%r10),%ymm0,%ymm0
    1b04:	c5 7d eb d1          	vpor   %ymm1,%ymm0,%ymm10
    1b08:	c4 c1 7d 73 d8 08    	vpsrldq $0x8,%ymm8,%ymm0
    1b0e:	c5 bd df c0          	vpandn %ymm0,%ymm8,%ymm0
    1b12:	c4 c3 2d 02 c9 0c    	vpblendd $0xc,%ymm9,%ymm10,%ymm1
    1b18:	c4 c3 45 02 d2 0c    	vpblendd $0xc,%ymm10,%ymm7,%ymm2
    1b1e:	c4 e3 55 02 e7 0c    	vpblendd $0xc,%ymm7,%ymm5,%ymm4
    1b24:	c4 63 2d 02 dd 0c    	vpblendd $0xc,%ymm5,%ymm10,%ymm11
    1b2a:	c4 e3 75 02 cf 30    	vpblendd $0x30,%ymm7,%ymm1,%ymm1
    1b30:	c4 e3 6d 02 d3 30    	vpblendd $0x30,%ymm3,%ymm2,%ymm2
    1b36:	c4 c3 5d 02 e2 30    	vpblendd $0x30,%ymm10,%ymm4,%ymm4
    1b3c:	c4 43 25 02 d9 30    	vpblendd $0x30,%ymm9,%ymm11,%ymm11
    1b42:	c4 e3 75 02 cb c0    	vpblendd $0xc0,%ymm3,%ymm1,%ymm1
    1b48:	c4 c3 6d 02 d1 c0    	vpblendd $0xc0,%ymm9,%ymm2,%ymm2
    1b4e:	c4 c3 5d 02 e1 c0    	vpblendd $0xc0,%ymm9,%ymm4,%ymm4
    1b54:	c4 63 25 02 df c0    	vpblendd $0xc0,%ymm7,%ymm11,%ymm11
    1b5a:	c5 f5 df ca          	vpandn %ymm2,%ymm1,%ymm1
    1b5e:	c4 c1 5d df d3       	vpandn %ymm11,%ymm4,%ymm2
    1b63:	c4 c3 65 02 e2 0c    	vpblendd $0xc,%ymm10,%ymm3,%ymm4
    1b69:	c4 63 55 02 db 0c    	vpblendd $0xc,%ymm3,%ymm5,%ymm11
    1b6f:	c5 f5 ef cd          	vpxor  %ymm5,%ymm1,%ymm1
    1b73:	c4 e3 5d 02 e5 30    	vpblendd $0x30,%ymm5,%ymm4,%ymm4
    1b79:	c4 63 25 02 df 30    	vpblendd $0x30,%ymm7,%ymm11,%ymm11
    1b7f:	c5 ed ef d3          	vpxor  %ymm3,%ymm2,%ymm2
    1b83:	c4 e3 5d 02 e7 c0    	vpblendd $0xc0,%ymm7,%ymm4,%ymm4
    1b89:	c4 43 25 02 da c0    	vpblendd $0xc0,%ymm10,%ymm11,%ymm11
    1b8f:	c4 c1 5d df e3       	vpandn %ymm11,%ymm4,%ymm4
    1b94:	c4 41 5d ef e1       	vpxor  %ymm9,%ymm4,%ymm12
    1b99:	c4 c3 fd 00 e0 1e    	vpermq $0x1e,%ymm8,%ymm4
    1b9f:	c4 e3 5d 02 e6 30    	vpblendd $0x30,%ymm6,%ymm4,%ymm4
    1ba5:	c4 43 fd 00 d8 39    	vpermq $0x39,%ymm8,%ymm11
    1bab:	c4 63 25 02 de c0    	vpblendd $0xc0,%ymm6,%ymm11,%ymm11
    1bb1:	c5 25 df dc          	vpandn %ymm4,%ymm11,%ymm11
    1bb5:	c4 e3 45 02 e3 0c    	vpblendd $0xc,%ymm3,%ymm7,%ymm4
    1bbb:	c4 63 35 02 ef 0c    	vpblendd $0xc,%ymm7,%ymm9,%ymm13
    1bc1:	c4 c3 5d 02 e1 30    	vpblendd $0x30,%ymm9,%ymm4,%ymm4
    1bc7:	c4 63 15 02 ed 30    	vpblendd $0x30,%ymm5,%ymm13,%ymm13
    1bcd:	c4 e3 5d 02 e5 c0    	vpblendd $0xc0,%ymm5,%ymm4,%ymm4
    1bd3:	c4 63 15 02 eb c0    	vpblendd $0xc0,%ymm3,%ymm13,%ymm13
    1bd9:	c4 c1 5d df e5       	vpandn %ymm13,%ymm4,%ymm4
    1bde:	c4 c1 5d ef e2       	vpxor  %ymm10,%ymm4,%ymm4
    1be3:	c4 63 fd 00 e8 00    	vpermq $0x0,%ymm0,%ymm13
    1be9:	c4 e3 fd 00 c1 1b    	vpermq $0x1b,%ymm1,%ymm0
    1bef:	c4 e3 fd 00 ca 8d    	vpermq $0x8d,%ymm2,%ymm1
    1bf5:	c4 c3 fd 00 d4 72    	vpermq $0x72,%ymm12,%ymm2
    1bfb:	c4 63 35 02 e5 0c    	vpblendd $0xc,%ymm5,%ymm9,%ymm12
    1c01:	c4 43 65 02 c9 0c    	vpblendd $0xc,%ymm9,%ymm3,%ymm9
    1c07:	c4 e3 1d 02 db 30    	vpblendd $0x30,%ymm3,%ymm12,%ymm3
    1c0d:	c4 43 35 02 ca 30    	vpblendd $0x30,%ymm10,%ymm9,%ymm9
    1c13:	c4 c3 65 02 da c0    	vpblendd $0xc0,%ymm10,%ymm3,%ymm3
    1c19:	c4 e3 35 02 ed c0    	vpblendd $0xc0,%ymm5,%ymm9,%ymm5
    1c1f:	c5 e5 df ed          	vpandn %ymm5,%ymm3,%ymm5
    1c23:	c4 c1 4d ef f5       	vpxor  %ymm13,%ymm6,%ymm6
    1c28:	c4 c1 25 ef d8       	vpxor  %ymm8,%ymm11,%ymm3
    1c2d:	c5 d5 ef ef          	vpxor  %ymm7,%ymm5,%ymm5
    1c31:	c5 cd ef 34 32       	vpxor  (%rdx,%rsi,1),%ymm6,%ymm6
    1c36:	48 83 c6 20          	add    $0x20,%rsi
    1c3a:	49 ff cb             	dec    %r11
    1c3d:	0f 85 b1 fd ff ff    	jne    19f4 <L_keccak1600_avx2$11>
    1c43:	c5 fe 7f 74 24 20    	vmovdqu %ymm6,0x20(%rsp)
    1c49:	c5 fe 7f 5c 24 40    	vmovdqu %ymm3,0x40(%rsp)
    1c4f:	c5 fe 7f 64 24 60    	vmovdqu %ymm4,0x60(%rsp)
    1c55:	c5 fe 7f 84 24 80 00 	vmovdqu %ymm0,0x80(%rsp)
    1c5c:	00 00 
    1c5e:	c5 fe 7f ac 24 a0 00 	vmovdqu %ymm5,0xa0(%rsp)
    1c65:	00 00 
    1c67:	c5 fe 7f 8c 24 c0 00 	vmovdqu %ymm1,0xc0(%rsp)
    1c6e:	00 00 
    1c70:	c5 fe 7f 94 24 e0 00 	vmovdqu %ymm2,0xe0(%rsp)
    1c77:	00 00 
    1c79:	48 89 ca             	mov    %rcx,%rdx
    1c7c:	48 c1 ea 03          	shr    $0x3,%rdx
    1c80:	48 c7 c6 00 00 00 00 	mov    $0x0,%rsi
    1c87:	eb 10                	jmp    1c99 <L_keccak1600_avx2$9>

0000000000001c89 <L_keccak1600_avx2$10>:
    1c89:	4c 8b 04 f0          	mov    (%rax,%rsi,8),%r8
    1c8d:	4e 8b 44 c4 20       	mov    0x20(%rsp,%r8,8),%r8
    1c92:	4c 89 04 f7          	mov    %r8,(%rdi,%rsi,8)
    1c96:	48 ff c6             	inc    %rsi

0000000000001c99 <L_keccak1600_avx2$9>:
    1c99:	48 39 d6             	cmp    %rdx,%rsi
    1c9c:	72 eb                	jb     1c89 <L_keccak1600_avx2$10>
    1c9e:	48 01 cf             	add    %rcx,%rdi
    1ca1:	49 29 c9             	sub    %rcx,%r9

0000000000001ca4 <L_keccak1600_avx2$7>:
    1ca4:	49 39 c9             	cmp    %rcx,%r9
    1ca7:	0f 87 24 fd ff ff    	ja     19d1 <L_keccak1600_avx2$8>
    1cad:	48 8d 0d ec 46 00 00 	lea    0x46ec(%rip),%rcx        # 63a0 <G$KECCAK_IOTAS>
    1cb4:	48 c7 c2 00 00 00 00 	mov    $0x0,%rdx
    1cbb:	48 8d 35 1e 46 00 00 	lea    0x461e(%rip),%rsi        # 62e0 <G$KECCAK_RHOTATES_LEFT>
    1cc2:	4c 8d 05 57 45 00 00 	lea    0x4557(%rip),%r8        # 6220 <G$KECCAK_RHOTATES_RIGHT>
    1cc9:	49 c7 c2 18 00 00 00 	mov    $0x18,%r10

0000000000001cd0 <L_keccak1600_avx2$6>:
    1cd0:	c5 7d 70 c4 4e       	vpshufd $0x4e,%ymm4,%ymm8
    1cd5:	c5 f5 ef f8          	vpxor  %ymm0,%ymm1,%ymm7
    1cd9:	c5 55 ef ca          	vpxor  %ymm2,%ymm5,%ymm9
    1cdd:	c5 c5 ef fb          	vpxor  %ymm3,%ymm7,%ymm7
    1ce1:	c4 41 45 ef d1       	vpxor  %ymm9,%ymm7,%ymm10
    1ce6:	c4 c3 fd 00 fa 93    	vpermq $0x93,%ymm10,%ymm7
    1cec:	c5 3d ef c4          	vpxor  %ymm4,%ymm8,%ymm8
    1cf0:	c4 43 fd 00 c8 4e    	vpermq $0x4e,%ymm8,%ymm9
    1cf6:	c4 c1 25 73 d2 3f    	vpsrlq $0x3f,%ymm10,%ymm11
    1cfc:	c4 41 2d d4 d2       	vpaddq %ymm10,%ymm10,%ymm10
    1d01:	c4 41 25 eb da       	vpor   %ymm10,%ymm11,%ymm11
    1d06:	c4 43 fd 00 d3 39    	vpermq $0x39,%ymm11,%ymm10
    1d0c:	c5 25 ef df          	vpxor  %ymm7,%ymm11,%ymm11
    1d10:	c4 43 fd 00 db 00    	vpermq $0x0,%ymm11,%ymm11
    1d16:	c5 3d ef c6          	vpxor  %ymm6,%ymm8,%ymm8
    1d1a:	c4 41 3d ef c1       	vpxor  %ymm9,%ymm8,%ymm8
    1d1f:	c4 c1 35 73 d0 3f    	vpsrlq $0x3f,%ymm8,%ymm9
    1d25:	c4 41 3d d4 e0       	vpaddq %ymm8,%ymm8,%ymm12
    1d2a:	c4 41 1d eb c9       	vpor   %ymm9,%ymm12,%ymm9
    1d2f:	c4 c1 5d ef e3       	vpxor  %ymm11,%ymm4,%ymm4
    1d34:	c4 c1 4d ef f3       	vpxor  %ymm11,%ymm6,%ymm6
    1d39:	c4 43 2d 02 c9 c0    	vpblendd $0xc0,%ymm9,%ymm10,%ymm9
    1d3f:	c4 c3 45 02 f8 03    	vpblendd $0x3,%ymm8,%ymm7,%ymm7
    1d45:	c5 35 ef cf          	vpxor  %ymm7,%ymm9,%ymm9
    1d49:	c4 e2 dd 47 3e       	vpsllvq (%rsi),%ymm4,%ymm7
    1d4e:	c4 c2 dd 45 20       	vpsrlvq (%r8),%ymm4,%ymm4
    1d53:	c5 dd eb e7          	vpor   %ymm7,%ymm4,%ymm4
    1d57:	c4 c1 7d ef c1       	vpxor  %ymm9,%ymm0,%ymm0
    1d5c:	c4 e2 fd 47 7e 40    	vpsllvq 0x40(%rsi),%ymm0,%ymm7
    1d62:	c4 c2 fd 45 40 40    	vpsrlvq 0x40(%r8),%ymm0,%ymm0
    1d68:	c5 fd eb c7          	vpor   %ymm7,%ymm0,%ymm0
    1d6c:	c4 c1 55 ef e9       	vpxor  %ymm9,%ymm5,%ymm5
    1d71:	c4 e2 d5 47 7e 60    	vpsllvq 0x60(%rsi),%ymm5,%ymm7
    1d77:	c4 c2 d5 45 68 60    	vpsrlvq 0x60(%r8),%ymm5,%ymm5
    1d7d:	c5 55 eb d7          	vpor   %ymm7,%ymm5,%ymm10
    1d81:	c4 c1 75 ef c9       	vpxor  %ymm9,%ymm1,%ymm1
    1d86:	c4 e2 f5 47 ae 80 00 	vpsllvq 0x80(%rsi),%ymm1,%ymm5
    1d8d:	00 00 
    1d8f:	c4 c2 f5 45 88 80 00 	vpsrlvq 0x80(%r8),%ymm1,%ymm1
    1d96:	00 00 
    1d98:	c5 f5 eb cd          	vpor   %ymm5,%ymm1,%ymm1
    1d9c:	c4 c1 6d ef d1       	vpxor  %ymm9,%ymm2,%ymm2
    1da1:	c4 e3 fd 00 ec 8d    	vpermq $0x8d,%ymm4,%ymm5
    1da7:	c4 e3 fd 00 f8 8d    	vpermq $0x8d,%ymm0,%ymm7
    1dad:	c4 e2 ed 47 86 a0 00 	vpsllvq 0xa0(%rsi),%ymm2,%ymm0
    1db4:	00 00 
    1db6:	c4 c2 ed 45 90 a0 00 	vpsrlvq 0xa0(%r8),%ymm2,%ymm2
    1dbd:	00 00 
    1dbf:	c5 6d eb c0          	vpor   %ymm0,%ymm2,%ymm8
    1dc3:	c4 c1 65 ef c1       	vpxor  %ymm9,%ymm3,%ymm0
    1dc8:	c4 c3 fd 00 da 1b    	vpermq $0x1b,%ymm10,%ymm3
    1dce:	c4 63 fd 00 c9 72    	vpermq $0x72,%ymm1,%ymm9
    1dd4:	c4 e2 fd 47 4e 20    	vpsllvq 0x20(%rsi),%ymm0,%ymm1
    1dda:	c4 c2 fd 45 40 20    	vpsrlvq 0x20(%r8),%ymm0,%ymm0
    1de0:	c5 7d eb d1          	vpor   %ymm1,%ymm0,%ymm10
    1de4:	c4 c1 7d 73 d8 08    	vpsrldq $0x8,%ymm8,%ymm0
    1dea:	c5 bd df c0          	vpandn %ymm0,%ymm8,%ymm0
    1dee:	c4 c3 2d 02 c9 0c    	vpblendd $0xc,%ymm9,%ymm10,%ymm1
    1df4:	c4 c3 45 02 d2 0c    	vpblendd $0xc,%ymm10,%ymm7,%ymm2
    1dfa:	c4 e3 55 02 e7 0c    	vpblendd $0xc,%ymm7,%ymm5,%ymm4
    1e00:	c4 63 2d 02 dd 0c    	vpblendd $0xc,%ymm5,%ymm10,%ymm11
    1e06:	c4 e3 75 02 cf 30    	vpblendd $0x30,%ymm7,%ymm1,%ymm1
    1e0c:	c4 e3 6d 02 d3 30    	vpblendd $0x30,%ymm3,%ymm2,%ymm2
    1e12:	c4 c3 5d 02 e2 30    	vpblendd $0x30,%ymm10,%ymm4,%ymm4
    1e18:	c4 43 25 02 d9 30    	vpblendd $0x30,%ymm9,%ymm11,%ymm11
    1e1e:	c4 e3 75 02 cb c0    	vpblendd $0xc0,%ymm3,%ymm1,%ymm1
    1e24:	c4 c3 6d 02 d1 c0    	vpblendd $0xc0,%ymm9,%ymm2,%ymm2
    1e2a:	c4 c3 5d 02 e1 c0    	vpblendd $0xc0,%ymm9,%ymm4,%ymm4
    1e30:	c4 63 25 02 df c0    	vpblendd $0xc0,%ymm7,%ymm11,%ymm11
    1e36:	c5 f5 df ca          	vpandn %ymm2,%ymm1,%ymm1
    1e3a:	c4 c1 5d df d3       	vpandn %ymm11,%ymm4,%ymm2
    1e3f:	c4 c3 65 02 e2 0c    	vpblendd $0xc,%ymm10,%ymm3,%ymm4
    1e45:	c4 63 55 02 db 0c    	vpblendd $0xc,%ymm3,%ymm5,%ymm11
    1e4b:	c5 f5 ef cd          	vpxor  %ymm5,%ymm1,%ymm1
    1e4f:	c4 e3 5d 02 e5 30    	vpblendd $0x30,%ymm5,%ymm4,%ymm4
    1e55:	c4 63 25 02 df 30    	vpblendd $0x30,%ymm7,%ymm11,%ymm11
    1e5b:	c5 ed ef d3          	vpxor  %ymm3,%ymm2,%ymm2
    1e5f:	c4 e3 5d 02 e7 c0    	vpblendd $0xc0,%ymm7,%ymm4,%ymm4
    1e65:	c4 43 25 02 da c0    	vpblendd $0xc0,%ymm10,%ymm11,%ymm11
    1e6b:	c4 c1 5d df e3       	vpandn %ymm11,%ymm4,%ymm4
    1e70:	c4 41 5d ef e1       	vpxor  %ymm9,%ymm4,%ymm12
    1e75:	c4 c3 fd 00 e0 1e    	vpermq $0x1e,%ymm8,%ymm4
    1e7b:	c4 e3 5d 02 e6 30    	vpblendd $0x30,%ymm6,%ymm4,%ymm4
    1e81:	c4 43 fd 00 d8 39    	vpermq $0x39,%ymm8,%ymm11
    1e87:	c4 63 25 02 de c0    	vpblendd $0xc0,%ymm6,%ymm11,%ymm11
    1e8d:	c5 25 df dc          	vpandn %ymm4,%ymm11,%ymm11
    1e91:	c4 e3 45 02 e3 0c    	vpblendd $0xc,%ymm3,%ymm7,%ymm4
    1e97:	c4 63 35 02 ef 0c    	vpblendd $0xc,%ymm7,%ymm9,%ymm13
    1e9d:	c4 c3 5d 02 e1 30    	vpblendd $0x30,%ymm9,%ymm4,%ymm4
    1ea3:	c4 63 15 02 ed 30    	vpblendd $0x30,%ymm5,%ymm13,%ymm13
    1ea9:	c4 e3 5d 02 e5 c0    	vpblendd $0xc0,%ymm5,%ymm4,%ymm4
    1eaf:	c4 63 15 02 eb c0    	vpblendd $0xc0,%ymm3,%ymm13,%ymm13
    1eb5:	c4 c1 5d df e5       	vpandn %ymm13,%ymm4,%ymm4
    1eba:	c4 c1 5d ef e2       	vpxor  %ymm10,%ymm4,%ymm4
    1ebf:	c4 63 fd 00 e8 00    	vpermq $0x0,%ymm0,%ymm13
    1ec5:	c4 e3 fd 00 c1 1b    	vpermq $0x1b,%ymm1,%ymm0
    1ecb:	c4 e3 fd 00 ca 8d    	vpermq $0x8d,%ymm2,%ymm1
    1ed1:	c4 c3 fd 00 d4 72    	vpermq $0x72,%ymm12,%ymm2
    1ed7:	c4 63 35 02 e5 0c    	vpblendd $0xc,%ymm5,%ymm9,%ymm12
    1edd:	c4 43 65 02 c9 0c    	vpblendd $0xc,%ymm9,%ymm3,%ymm9
    1ee3:	c4 e3 1d 02 db 30    	vpblendd $0x30,%ymm3,%ymm12,%ymm3
    1ee9:	c4 43 35 02 ca 30    	vpblendd $0x30,%ymm10,%ymm9,%ymm9
    1eef:	c4 c3 65 02 da c0    	vpblendd $0xc0,%ymm10,%ymm3,%ymm3
    1ef5:	c4 e3 35 02 ed c0    	vpblendd $0xc0,%ymm5,%ymm9,%ymm5
    1efb:	c5 e5 df ed          	vpandn %ymm5,%ymm3,%ymm5
    1eff:	c4 c1 4d ef f5       	vpxor  %ymm13,%ymm6,%ymm6
    1f04:	c4 c1 25 ef d8       	vpxor  %ymm8,%ymm11,%ymm3
    1f09:	c5 d5 ef ef          	vpxor  %ymm7,%ymm5,%ymm5
    1f0d:	c5 cd ef 34 11       	vpxor  (%rcx,%rdx,1),%ymm6,%ymm6
    1f12:	48 83 c2 20          	add    $0x20,%rdx
    1f16:	49 ff ca             	dec    %r10
    1f19:	0f 85 b1 fd ff ff    	jne    1cd0 <L_keccak1600_avx2$6>
    1f1f:	c5 fe 7f 74 24 20    	vmovdqu %ymm6,0x20(%rsp)
    1f25:	c5 fe 7f 5c 24 40    	vmovdqu %ymm3,0x40(%rsp)
    1f2b:	c5 fe 7f 64 24 60    	vmovdqu %ymm4,0x60(%rsp)
    1f31:	c5 fe 7f 84 24 80 00 	vmovdqu %ymm0,0x80(%rsp)
    1f38:	00 00 
    1f3a:	c5 fe 7f ac 24 a0 00 	vmovdqu %ymm5,0xa0(%rsp)
    1f41:	00 00 
    1f43:	c5 fe 7f 8c 24 c0 00 	vmovdqu %ymm1,0xc0(%rsp)
    1f4a:	00 00 
    1f4c:	c5 fe 7f 94 24 e0 00 	vmovdqu %ymm2,0xe0(%rsp)
    1f53:	00 00 
    1f55:	4c 89 c9             	mov    %r9,%rcx
    1f58:	48 c1 e9 03          	shr    $0x3,%rcx
    1f5c:	48 c7 c2 00 00 00 00 	mov    $0x0,%rdx
    1f63:	eb 10                	jmp    1f75 <L_keccak1600_avx2$4>

0000000000001f65 <L_keccak1600_avx2$5>:
    1f65:	48 8b 34 d0          	mov    (%rax,%rdx,8),%rsi
    1f69:	48 8b 74 f4 20       	mov    0x20(%rsp,%rsi,8),%rsi
    1f6e:	48 89 34 d7          	mov    %rsi,(%rdi,%rdx,8)
    1f72:	48 ff c2             	inc    %rdx

0000000000001f75 <L_keccak1600_avx2$4>:
    1f75:	48 39 ca             	cmp    %rcx,%rdx
    1f78:	72 eb                	jb     1f65 <L_keccak1600_avx2$5>
    1f7a:	48 8b 04 d0          	mov    (%rax,%rdx,8),%rax
    1f7e:	48 c1 e2 03          	shl    $0x3,%rdx
    1f82:	48 c1 e0 03          	shl    $0x3,%rax
    1f86:	eb 0d                	jmp    1f95 <L_keccak1600_avx2$2>

0000000000001f88 <L_keccak1600_avx2$3>:
    1f88:	8a 4c 04 20          	mov    0x20(%rsp,%rax,1),%cl
    1f8c:	88 0c 17             	mov    %cl,(%rdi,%rdx,1)
    1f8f:	48 ff c2             	inc    %rdx
    1f92:	48 ff c0             	inc    %rax

0000000000001f95 <L_keccak1600_avx2$2>:
    1f95:	4c 39 ca             	cmp    %r9,%rdx
    1f98:	72 ee                	jb     1f88 <L_keccak1600_avx2$3>
    1f9a:	c3                   	ret    
    1f9b:	0f 1f 44 00 00       	nopl   0x0(%rax,%rax,1)

0000000000001fa0 <_jade_hash_sha3_384_amd64>:
    1fa0:	48 89 e0             	mov    %rsp,%rax
    1fa3:	48 8d 64 24 e0       	lea    -0x20(%rsp),%rsp
    1fa8:	48 83 e4 e0          	and    $0xffffffffffffffe0,%rsp
    1fac:	48 89 1c 24          	mov    %rbx,(%rsp)
    1fb0:	48 89 6c 24 08       	mov    %rbp,0x8(%rsp)
    1fb5:	4c 89 64 24 10       	mov    %r12,0x10(%rsp)
    1fba:	48 89 44 24 18       	mov    %rax,0x18(%rsp)
    1fbf:	49 c7 c1 30 00 00 00 	mov    $0x30,%r9
    1fc6:	b0 06                	mov    $0x6,%al
    1fc8:	48 c7 c1 68 00 00 00 	mov    $0x68,%rcx
    1fcf:	48 8d a4 24 08 ff ff 	lea    -0xf8(%rsp),%rsp
    1fd6:	ff 
    1fd7:	e8 1f 00 00 00       	call   1ffb <L_keccak1600_avx2$1>

0000000000001fdc <Ljade_hash_sha3_384_amd64$1>:
    1fdc:	48 8d a4 24 f8 00 00 	lea    0xf8(%rsp),%rsp
    1fe3:	00 
    1fe4:	48 31 c0             	xor    %rax,%rax
    1fe7:	48 8b 1c 24          	mov    (%rsp),%rbx
    1feb:	48 8b 6c 24 08       	mov    0x8(%rsp),%rbp
    1ff0:	4c 8b 64 24 10       	mov    0x10(%rsp),%r12
    1ff5:	48 8b 64 24 18       	mov    0x18(%rsp),%rsp
    1ffa:	c3                   	ret    

0000000000001ffb <L_keccak1600_avx2$1>:
    1ffb:	c5 cd ef f6          	vpxor  %ymm6,%ymm6,%ymm6
    1fff:	c5 e5 ef db          	vpxor  %ymm3,%ymm3,%ymm3
    2003:	c5 dd ef e4          	vpxor  %ymm4,%ymm4,%ymm4
    2007:	c5 fd ef c0          	vpxor  %ymm0,%ymm0,%ymm0
    200b:	c5 d5 ef ed          	vpxor  %ymm5,%ymm5,%ymm5
    200f:	c5 f5 ef c9          	vpxor  %ymm1,%ymm1,%ymm1
    2013:	c5 ed ef d2          	vpxor  %ymm2,%ymm2,%ymm2
    2017:	4c 8d 05 e2 4b 00 00 	lea    0x4be2(%rip),%r8        # 6c00 <G$KECCAK_A_JAGGED>
    201e:	c5 c5 ef ff          	vpxor  %ymm7,%ymm7,%ymm7
    2022:	c5 fe 7f 7c 24 20    	vmovdqu %ymm7,0x20(%rsp)
    2028:	c5 fe 7f 7c 24 40    	vmovdqu %ymm7,0x40(%rsp)
    202e:	c5 fe 7f 7c 24 60    	vmovdqu %ymm7,0x60(%rsp)
    2034:	c5 fe 7f bc 24 80 00 	vmovdqu %ymm7,0x80(%rsp)
    203b:	00 00 
    203d:	c5 fe 7f bc 24 a0 00 	vmovdqu %ymm7,0xa0(%rsp)
    2044:	00 00 
    2046:	c5 fe 7f bc 24 c0 00 	vmovdqu %ymm7,0xc0(%rsp)
    204d:	00 00 
    204f:	c5 fe 7f bc 24 e0 00 	vmovdqu %ymm7,0xe0(%rsp)
    2056:	00 00 
    2058:	e9 e9 02 00 00       	jmp    2346 <L_keccak1600_avx2$16>

000000000000205d <L_keccak1600_avx2$17>:
    205d:	49 89 ca             	mov    %rcx,%r10
    2060:	49 c1 ea 03          	shr    $0x3,%r10
    2064:	49 c7 c3 00 00 00 00 	mov    $0x0,%r11
    206b:	eb 10                	jmp    207d <L_keccak1600_avx2$19>

000000000000206d <L_keccak1600_avx2$20>:
    206d:	4a 8b 1c de          	mov    (%rsi,%r11,8),%rbx
    2071:	4b 8b 2c d8          	mov    (%r8,%r11,8),%rbp
    2075:	48 89 5c ec 20       	mov    %rbx,0x20(%rsp,%rbp,8)
    207a:	49 ff c3             	inc    %r11

000000000000207d <L_keccak1600_avx2$19>:
    207d:	4d 39 d3             	cmp    %r10,%r11
    2080:	72 eb                	jb     206d <L_keccak1600_avx2$20>
    2082:	4c 8b 54 24 20       	mov    0x20(%rsp),%r10
    2087:	4c 89 54 24 28       	mov    %r10,0x28(%rsp)
    208c:	4c 89 54 24 30       	mov    %r10,0x30(%rsp)
    2091:	4c 89 54 24 38       	mov    %r10,0x38(%rsp)
    2096:	c5 cd ef 74 24 20    	vpxor  0x20(%rsp),%ymm6,%ymm6
    209c:	c5 e5 ef 5c 24 40    	vpxor  0x40(%rsp),%ymm3,%ymm3
    20a2:	c5 dd ef 64 24 60    	vpxor  0x60(%rsp),%ymm4,%ymm4
    20a8:	c5 fd ef 84 24 80 00 	vpxor  0x80(%rsp),%ymm0,%ymm0
    20af:	00 00 
    20b1:	c5 d5 ef ac 24 a0 00 	vpxor  0xa0(%rsp),%ymm5,%ymm5
    20b8:	00 00 
    20ba:	c5 f5 ef 8c 24 c0 00 	vpxor  0xc0(%rsp),%ymm1,%ymm1
    20c1:	00 00 
    20c3:	c5 ed ef 94 24 e0 00 	vpxor  0xe0(%rsp),%ymm2,%ymm2
    20ca:	00 00 
    20cc:	48 01 ce             	add    %rcx,%rsi
    20cf:	48 29 ca             	sub    %rcx,%rdx
    20d2:	4c 8d 15 27 48 00 00 	lea    0x4827(%rip),%r10        # 6900 <G$KECCAK_IOTAS>
    20d9:	49 c7 c3 00 00 00 00 	mov    $0x0,%r11
    20e0:	48 8d 1d 59 47 00 00 	lea    0x4759(%rip),%rbx        # 6840 <G$KECCAK_RHOTATES_LEFT>
    20e7:	48 8d 2d 92 46 00 00 	lea    0x4692(%rip),%rbp        # 6780 <G$KECCAK_RHOTATES_RIGHT>
    20ee:	49 c7 c4 18 00 00 00 	mov    $0x18,%r12

00000000000020f5 <L_keccak1600_avx2$18>:
    20f5:	c5 7d 70 c4 4e       	vpshufd $0x4e,%ymm4,%ymm8
    20fa:	c5 f5 ef f8          	vpxor  %ymm0,%ymm1,%ymm7
    20fe:	c5 55 ef ca          	vpxor  %ymm2,%ymm5,%ymm9
    2102:	c5 c5 ef fb          	vpxor  %ymm3,%ymm7,%ymm7
    2106:	c4 41 45 ef d1       	vpxor  %ymm9,%ymm7,%ymm10
    210b:	c4 c3 fd 00 fa 93    	vpermq $0x93,%ymm10,%ymm7
    2111:	c5 3d ef c4          	vpxor  %ymm4,%ymm8,%ymm8
    2115:	c4 43 fd 00 c8 4e    	vpermq $0x4e,%ymm8,%ymm9
    211b:	c4 c1 25 73 d2 3f    	vpsrlq $0x3f,%ymm10,%ymm11
    2121:	c4 41 2d d4 d2       	vpaddq %ymm10,%ymm10,%ymm10
    2126:	c4 41 25 eb da       	vpor   %ymm10,%ymm11,%ymm11
    212b:	c4 43 fd 00 d3 39    	vpermq $0x39,%ymm11,%ymm10
    2131:	c5 25 ef df          	vpxor  %ymm7,%ymm11,%ymm11
    2135:	c4 43 fd 00 db 00    	vpermq $0x0,%ymm11,%ymm11
    213b:	c5 3d ef c6          	vpxor  %ymm6,%ymm8,%ymm8
    213f:	c4 41 3d ef c1       	vpxor  %ymm9,%ymm8,%ymm8
    2144:	c4 c1 35 73 d0 3f    	vpsrlq $0x3f,%ymm8,%ymm9
    214a:	c4 41 3d d4 e0       	vpaddq %ymm8,%ymm8,%ymm12
    214f:	c4 41 1d eb c9       	vpor   %ymm9,%ymm12,%ymm9
    2154:	c4 c1 5d ef e3       	vpxor  %ymm11,%ymm4,%ymm4
    2159:	c4 c1 4d ef f3       	vpxor  %ymm11,%ymm6,%ymm6
    215e:	c4 43 2d 02 c9 c0    	vpblendd $0xc0,%ymm9,%ymm10,%ymm9
    2164:	c4 c3 45 02 f8 03    	vpblendd $0x3,%ymm8,%ymm7,%ymm7
    216a:	c5 35 ef cf          	vpxor  %ymm7,%ymm9,%ymm9
    216e:	c4 e2 dd 47 3b       	vpsllvq (%rbx),%ymm4,%ymm7
    2173:	c4 e2 dd 45 65 00    	vpsrlvq 0x0(%rbp),%ymm4,%ymm4
    2179:	c5 dd eb e7          	vpor   %ymm7,%ymm4,%ymm4
    217d:	c4 c1 7d ef c1       	vpxor  %ymm9,%ymm0,%ymm0
    2182:	c4 e2 fd 47 7b 40    	vpsllvq 0x40(%rbx),%ymm0,%ymm7
    2188:	c4 e2 fd 45 45 40    	vpsrlvq 0x40(%rbp),%ymm0,%ymm0
    218e:	c5 fd eb c7          	vpor   %ymm7,%ymm0,%ymm0
    2192:	c4 c1 55 ef e9       	vpxor  %ymm9,%ymm5,%ymm5
    2197:	c4 e2 d5 47 7b 60    	vpsllvq 0x60(%rbx),%ymm5,%ymm7
    219d:	c4 e2 d5 45 6d 60    	vpsrlvq 0x60(%rbp),%ymm5,%ymm5
    21a3:	c5 55 eb d7          	vpor   %ymm7,%ymm5,%ymm10
    21a7:	c4 c1 75 ef c9       	vpxor  %ymm9,%ymm1,%ymm1
    21ac:	c4 e2 f5 47 ab 80 00 	vpsllvq 0x80(%rbx),%ymm1,%ymm5
    21b3:	00 00 
    21b5:	c4 e2 f5 45 8d 80 00 	vpsrlvq 0x80(%rbp),%ymm1,%ymm1
    21bc:	00 00 
    21be:	c5 f5 eb cd          	vpor   %ymm5,%ymm1,%ymm1
    21c2:	c4 c1 6d ef d1       	vpxor  %ymm9,%ymm2,%ymm2
    21c7:	c4 e3 fd 00 ec 8d    	vpermq $0x8d,%ymm4,%ymm5
    21cd:	c4 e3 fd 00 f8 8d    	vpermq $0x8d,%ymm0,%ymm7
    21d3:	c4 e2 ed 47 83 a0 00 	vpsllvq 0xa0(%rbx),%ymm2,%ymm0
    21da:	00 00 
    21dc:	c4 e2 ed 45 95 a0 00 	vpsrlvq 0xa0(%rbp),%ymm2,%ymm2
    21e3:	00 00 
    21e5:	c5 6d eb c0          	vpor   %ymm0,%ymm2,%ymm8
    21e9:	c4 c1 65 ef c1       	vpxor  %ymm9,%ymm3,%ymm0
    21ee:	c4 c3 fd 00 da 1b    	vpermq $0x1b,%ymm10,%ymm3
    21f4:	c4 63 fd 00 c9 72    	vpermq $0x72,%ymm1,%ymm9
    21fa:	c4 e2 fd 47 4b 20    	vpsllvq 0x20(%rbx),%ymm0,%ymm1
    2200:	c4 e2 fd 45 45 20    	vpsrlvq 0x20(%rbp),%ymm0,%ymm0
    2206:	c5 7d eb d1          	vpor   %ymm1,%ymm0,%ymm10
    220a:	c4 c1 7d 73 d8 08    	vpsrldq $0x8,%ymm8,%ymm0
    2210:	c5 bd df c0          	vpandn %ymm0,%ymm8,%ymm0
    2214:	c4 c3 2d 02 c9 0c    	vpblendd $0xc,%ymm9,%ymm10,%ymm1
    221a:	c4 c3 45 02 d2 0c    	vpblendd $0xc,%ymm10,%ymm7,%ymm2
    2220:	c4 e3 55 02 e7 0c    	vpblendd $0xc,%ymm7,%ymm5,%ymm4
    2226:	c4 63 2d 02 dd 0c    	vpblendd $0xc,%ymm5,%ymm10,%ymm11
    222c:	c4 e3 75 02 cf 30    	vpblendd $0x30,%ymm7,%ymm1,%ymm1
    2232:	c4 e3 6d 02 d3 30    	vpblendd $0x30,%ymm3,%ymm2,%ymm2
    2238:	c4 c3 5d 02 e2 30    	vpblendd $0x30,%ymm10,%ymm4,%ymm4
    223e:	c4 43 25 02 d9 30    	vpblendd $0x30,%ymm9,%ymm11,%ymm11
    2244:	c4 e3 75 02 cb c0    	vpblendd $0xc0,%ymm3,%ymm1,%ymm1
    224a:	c4 c3 6d 02 d1 c0    	vpblendd $0xc0,%ymm9,%ymm2,%ymm2
    2250:	c4 c3 5d 02 e1 c0    	vpblendd $0xc0,%ymm9,%ymm4,%ymm4
    2256:	c4 63 25 02 df c0    	vpblendd $0xc0,%ymm7,%ymm11,%ymm11
    225c:	c5 f5 df ca          	vpandn %ymm2,%ymm1,%ymm1
    2260:	c4 c1 5d df d3       	vpandn %ymm11,%ymm4,%ymm2
    2265:	c4 c3 65 02 e2 0c    	vpblendd $0xc,%ymm10,%ymm3,%ymm4
    226b:	c4 63 55 02 db 0c    	vpblendd $0xc,%ymm3,%ymm5,%ymm11
    2271:	c5 f5 ef cd          	vpxor  %ymm5,%ymm1,%ymm1
    2275:	c4 e3 5d 02 e5 30    	vpblendd $0x30,%ymm5,%ymm4,%ymm4
    227b:	c4 63 25 02 df 30    	vpblendd $0x30,%ymm7,%ymm11,%ymm11
    2281:	c5 ed ef d3          	vpxor  %ymm3,%ymm2,%ymm2
    2285:	c4 e3 5d 02 e7 c0    	vpblendd $0xc0,%ymm7,%ymm4,%ymm4
    228b:	c4 43 25 02 da c0    	vpblendd $0xc0,%ymm10,%ymm11,%ymm11
    2291:	c4 c1 5d df e3       	vpandn %ymm11,%ymm4,%ymm4
    2296:	c4 41 5d ef e1       	vpxor  %ymm9,%ymm4,%ymm12
    229b:	c4 c3 fd 00 e0 1e    	vpermq $0x1e,%ymm8,%ymm4
    22a1:	c4 e3 5d 02 e6 30    	vpblendd $0x30,%ymm6,%ymm4,%ymm4
    22a7:	c4 43 fd 00 d8 39    	vpermq $0x39,%ymm8,%ymm11
    22ad:	c4 63 25 02 de c0    	vpblendd $0xc0,%ymm6,%ymm11,%ymm11
    22b3:	c5 25 df dc          	vpandn %ymm4,%ymm11,%ymm11
    22b7:	c4 e3 45 02 e3 0c    	vpblendd $0xc,%ymm3,%ymm7,%ymm4
    22bd:	c4 63 35 02 ef 0c    	vpblendd $0xc,%ymm7,%ymm9,%ymm13
    22c3:	c4 c3 5d 02 e1 30    	vpblendd $0x30,%ymm9,%ymm4,%ymm4
    22c9:	c4 63 15 02 ed 30    	vpblendd $0x30,%ymm5,%ymm13,%ymm13
    22cf:	c4 e3 5d 02 e5 c0    	vpblendd $0xc0,%ymm5,%ymm4,%ymm4
    22d5:	c4 63 15 02 eb c0    	vpblendd $0xc0,%ymm3,%ymm13,%ymm13
    22db:	c4 c1 5d df e5       	vpandn %ymm13,%ymm4,%ymm4
    22e0:	c4 c1 5d ef e2       	vpxor  %ymm10,%ymm4,%ymm4
    22e5:	c4 63 fd 00 e8 00    	vpermq $0x0,%ymm0,%ymm13
    22eb:	c4 e3 fd 00 c1 1b    	vpermq $0x1b,%ymm1,%ymm0
    22f1:	c4 e3 fd 00 ca 8d    	vpermq $0x8d,%ymm2,%ymm1
    22f7:	c4 c3 fd 00 d4 72    	vpermq $0x72,%ymm12,%ymm2
    22fd:	c4 63 35 02 e5 0c    	vpblendd $0xc,%ymm5,%ymm9,%ymm12
    2303:	c4 43 65 02 c9 0c    	vpblendd $0xc,%ymm9,%ymm3,%ymm9
    2309:	c4 e3 1d 02 db 30    	vpblendd $0x30,%ymm3,%ymm12,%ymm3
    230f:	c4 43 35 02 ca 30    	vpblendd $0x30,%ymm10,%ymm9,%ymm9
    2315:	c4 c3 65 02 da c0    	vpblendd $0xc0,%ymm10,%ymm3,%ymm3
    231b:	c4 e3 35 02 ed c0    	vpblendd $0xc0,%ymm5,%ymm9,%ymm5
    2321:	c5 e5 df ed          	vpandn %ymm5,%ymm3,%ymm5
    2325:	c4 c1 4d ef f5       	vpxor  %ymm13,%ymm6,%ymm6
    232a:	c4 c1 25 ef d8       	vpxor  %ymm8,%ymm11,%ymm3
    232f:	c5 d5 ef ef          	vpxor  %ymm7,%ymm5,%ymm5
    2333:	c4 81 4d ef 34 1a    	vpxor  (%r10,%r11,1),%ymm6,%ymm6
    2339:	49 83 c3 20          	add    $0x20,%r11
    233d:	49 ff cc             	dec    %r12
    2340:	0f 85 af fd ff ff    	jne    20f5 <L_keccak1600_avx2$18>

0000000000002346 <L_keccak1600_avx2$16>:
    2346:	48 39 ca             	cmp    %rcx,%rdx
    2349:	0f 83 0e fd ff ff    	jae    205d <L_keccak1600_avx2$17>
    234f:	c5 c5 ef ff          	vpxor  %ymm7,%ymm7,%ymm7
    2353:	c5 fe 7f 7c 24 20    	vmovdqu %ymm7,0x20(%rsp)
    2359:	c5 fe 7f 7c 24 40    	vmovdqu %ymm7,0x40(%rsp)
    235f:	c5 fe 7f 7c 24 60    	vmovdqu %ymm7,0x60(%rsp)
    2365:	c5 fe 7f bc 24 80 00 	vmovdqu %ymm7,0x80(%rsp)
    236c:	00 00 
    236e:	c5 fe 7f bc 24 a0 00 	vmovdqu %ymm7,0xa0(%rsp)
    2375:	00 00 
    2377:	c5 fe 7f bc 24 c0 00 	vmovdqu %ymm7,0xc0(%rsp)
    237e:	00 00 
    2380:	c5 fe 7f bc 24 e0 00 	vmovdqu %ymm7,0xe0(%rsp)
    2387:	00 00 
    2389:	49 89 d2             	mov    %rdx,%r10
    238c:	49 c1 ea 03          	shr    $0x3,%r10
    2390:	49 c7 c3 00 00 00 00 	mov    $0x0,%r11
    2397:	eb 10                	jmp    23a9 <L_keccak1600_avx2$14>

0000000000002399 <L_keccak1600_avx2$15>:
    2399:	4a 8b 1c de          	mov    (%rsi,%r11,8),%rbx
    239d:	4b 8b 2c d8          	mov    (%r8,%r11,8),%rbp
    23a1:	48 89 5c ec 20       	mov    %rbx,0x20(%rsp,%rbp,8)
    23a6:	49 ff c3             	inc    %r11

00000000000023a9 <L_keccak1600_avx2$14>:
    23a9:	4d 39 d3             	cmp    %r10,%r11
    23ac:	72 eb                	jb     2399 <L_keccak1600_avx2$15>
    23ae:	4f 8b 14 d8          	mov    (%r8,%r11,8),%r10
    23b2:	49 c1 e2 03          	shl    $0x3,%r10
    23b6:	49 c1 e3 03          	shl    $0x3,%r11
    23ba:	eb 0f                	jmp    23cb <L_keccak1600_avx2$12>

00000000000023bc <L_keccak1600_avx2$13>:
    23bc:	42 8a 1c 1e          	mov    (%rsi,%r11,1),%bl
    23c0:	42 88 5c 14 20       	mov    %bl,0x20(%rsp,%r10,1)
    23c5:	49 ff c3             	inc    %r11
    23c8:	49 ff c2             	inc    %r10

00000000000023cb <L_keccak1600_avx2$12>:
    23cb:	49 39 d3             	cmp    %rdx,%r11
    23ce:	72 ec                	jb     23bc <L_keccak1600_avx2$13>
    23d0:	42 88 44 14 20       	mov    %al,0x20(%rsp,%r10,1)
    23d5:	48 89 c8             	mov    %rcx,%rax
    23d8:	48 83 c0 ff          	add    $0xffffffffffffffff,%rax
    23dc:	48 c1 e8 03          	shr    $0x3,%rax
    23e0:	49 8b 04 c0          	mov    (%r8,%rax,8),%rax
    23e4:	48 c1 e0 03          	shl    $0x3,%rax
    23e8:	48 89 ca             	mov    %rcx,%rdx
    23eb:	48 83 c2 ff          	add    $0xffffffffffffffff,%rdx
    23ef:	48 83 e2 07          	and    $0x7,%rdx
    23f3:	48 01 d0             	add    %rdx,%rax
    23f6:	80 74 04 20 80       	xorb   $0x80,0x20(%rsp,%rax,1)
    23fb:	48 8b 44 24 20       	mov    0x20(%rsp),%rax
    2400:	48 89 44 24 28       	mov    %rax,0x28(%rsp)
    2405:	48 89 44 24 30       	mov    %rax,0x30(%rsp)
    240a:	48 89 44 24 38       	mov    %rax,0x38(%rsp)
    240f:	c5 cd ef 74 24 20    	vpxor  0x20(%rsp),%ymm6,%ymm6
    2415:	c5 e5 ef 5c 24 40    	vpxor  0x40(%rsp),%ymm3,%ymm3
    241b:	c5 dd ef 64 24 60    	vpxor  0x60(%rsp),%ymm4,%ymm4
    2421:	c5 fd ef 84 24 80 00 	vpxor  0x80(%rsp),%ymm0,%ymm0
    2428:	00 00 
    242a:	c5 d5 ef ac 24 a0 00 	vpxor  0xa0(%rsp),%ymm5,%ymm5
    2431:	00 00 
    2433:	c5 f5 ef 8c 24 c0 00 	vpxor  0xc0(%rsp),%ymm1,%ymm1
    243a:	00 00 
    243c:	c5 ed ef 94 24 e0 00 	vpxor  0xe0(%rsp),%ymm2,%ymm2
    2443:	00 00 
    2445:	48 8d 05 b4 47 00 00 	lea    0x47b4(%rip),%rax        # 6c00 <G$KECCAK_A_JAGGED>
    244c:	e9 d3 02 00 00       	jmp    2724 <L_keccak1600_avx2$7>

0000000000002451 <L_keccak1600_avx2$8>:
    2451:	48 8d 15 a8 44 00 00 	lea    0x44a8(%rip),%rdx        # 6900 <G$KECCAK_IOTAS>
    2458:	48 c7 c6 00 00 00 00 	mov    $0x0,%rsi
    245f:	4c 8d 05 da 43 00 00 	lea    0x43da(%rip),%r8        # 6840 <G$KECCAK_RHOTATES_LEFT>
    2466:	4c 8d 15 13 43 00 00 	lea    0x4313(%rip),%r10        # 6780 <G$KECCAK_RHOTATES_RIGHT>
    246d:	49 c7 c3 18 00 00 00 	mov    $0x18,%r11

0000000000002474 <L_keccak1600_avx2$11>:
    2474:	c5 7d 70 c4 4e       	vpshufd $0x4e,%ymm4,%ymm8
    2479:	c5 f5 ef f8          	vpxor  %ymm0,%ymm1,%ymm7
    247d:	c5 55 ef ca          	vpxor  %ymm2,%ymm5,%ymm9
    2481:	c5 c5 ef fb          	vpxor  %ymm3,%ymm7,%ymm7
    2485:	c4 41 45 ef d1       	vpxor  %ymm9,%ymm7,%ymm10
    248a:	c4 c3 fd 00 fa 93    	vpermq $0x93,%ymm10,%ymm7
    2490:	c5 3d ef c4          	vpxor  %ymm4,%ymm8,%ymm8
    2494:	c4 43 fd 00 c8 4e    	vpermq $0x4e,%ymm8,%ymm9
    249a:	c4 c1 25 73 d2 3f    	vpsrlq $0x3f,%ymm10,%ymm11
    24a0:	c4 41 2d d4 d2       	vpaddq %ymm10,%ymm10,%ymm10
    24a5:	c4 41 25 eb da       	vpor   %ymm10,%ymm11,%ymm11
    24aa:	c4 43 fd 00 d3 39    	vpermq $0x39,%ymm11,%ymm10
    24b0:	c5 25 ef df          	vpxor  %ymm7,%ymm11,%ymm11
    24b4:	c4 43 fd 00 db 00    	vpermq $0x0,%ymm11,%ymm11
    24ba:	c5 3d ef c6          	vpxor  %ymm6,%ymm8,%ymm8
    24be:	c4 41 3d ef c1       	vpxor  %ymm9,%ymm8,%ymm8
    24c3:	c4 c1 35 73 d0 3f    	vpsrlq $0x3f,%ymm8,%ymm9
    24c9:	c4 41 3d d4 e0       	vpaddq %ymm8,%ymm8,%ymm12
    24ce:	c4 41 1d eb c9       	vpor   %ymm9,%ymm12,%ymm9
    24d3:	c4 c1 5d ef e3       	vpxor  %ymm11,%ymm4,%ymm4
    24d8:	c4 c1 4d ef f3       	vpxor  %ymm11,%ymm6,%ymm6
    24dd:	c4 43 2d 02 c9 c0    	vpblendd $0xc0,%ymm9,%ymm10,%ymm9
    24e3:	c4 c3 45 02 f8 03    	vpblendd $0x3,%ymm8,%ymm7,%ymm7
    24e9:	c5 35 ef cf          	vpxor  %ymm7,%ymm9,%ymm9
    24ed:	c4 c2 dd 47 38       	vpsllvq (%r8),%ymm4,%ymm7
    24f2:	c4 c2 dd 45 22       	vpsrlvq (%r10),%ymm4,%ymm4
    24f7:	c5 dd eb e7          	vpor   %ymm7,%ymm4,%ymm4
    24fb:	c4 c1 7d ef c1       	vpxor  %ymm9,%ymm0,%ymm0
    2500:	c4 c2 fd 47 78 40    	vpsllvq 0x40(%r8),%ymm0,%ymm7
    2506:	c4 c2 fd 45 42 40    	vpsrlvq 0x40(%r10),%ymm0,%ymm0
    250c:	c5 fd eb c7          	vpor   %ymm7,%ymm0,%ymm0
    2510:	c4 c1 55 ef e9       	vpxor  %ymm9,%ymm5,%ymm5
    2515:	c4 c2 d5 47 78 60    	vpsllvq 0x60(%r8),%ymm5,%ymm7
    251b:	c4 c2 d5 45 6a 60    	vpsrlvq 0x60(%r10),%ymm5,%ymm5
    2521:	c5 55 eb d7          	vpor   %ymm7,%ymm5,%ymm10
    2525:	c4 c1 75 ef c9       	vpxor  %ymm9,%ymm1,%ymm1
    252a:	c4 c2 f5 47 a8 80 00 	vpsllvq 0x80(%r8),%ymm1,%ymm5
    2531:	00 00 
    2533:	c4 c2 f5 45 8a 80 00 	vpsrlvq 0x80(%r10),%ymm1,%ymm1
    253a:	00 00 
    253c:	c5 f5 eb cd          	vpor   %ymm5,%ymm1,%ymm1
    2540:	c4 c1 6d ef d1       	vpxor  %ymm9,%ymm2,%ymm2
    2545:	c4 e3 fd 00 ec 8d    	vpermq $0x8d,%ymm4,%ymm5
    254b:	c4 e3 fd 00 f8 8d    	vpermq $0x8d,%ymm0,%ymm7
    2551:	c4 c2 ed 47 80 a0 00 	vpsllvq 0xa0(%r8),%ymm2,%ymm0
    2558:	00 00 
    255a:	c4 c2 ed 45 92 a0 00 	vpsrlvq 0xa0(%r10),%ymm2,%ymm2
    2561:	00 00 
    2563:	c5 6d eb c0          	vpor   %ymm0,%ymm2,%ymm8
    2567:	c4 c1 65 ef c1       	vpxor  %ymm9,%ymm3,%ymm0
    256c:	c4 c3 fd 00 da 1b    	vpermq $0x1b,%ymm10,%ymm3
    2572:	c4 63 fd 00 c9 72    	vpermq $0x72,%ymm1,%ymm9
    2578:	c4 c2 fd 47 48 20    	vpsllvq 0x20(%r8),%ymm0,%ymm1
    257e:	c4 c2 fd 45 42 20    	vpsrlvq 0x20(%r10),%ymm0,%ymm0
    2584:	c5 7d eb d1          	vpor   %ymm1,%ymm0,%ymm10
    2588:	c4 c1 7d 73 d8 08    	vpsrldq $0x8,%ymm8,%ymm0
    258e:	c5 bd df c0          	vpandn %ymm0,%ymm8,%ymm0
    2592:	c4 c3 2d 02 c9 0c    	vpblendd $0xc,%ymm9,%ymm10,%ymm1
    2598:	c4 c3 45 02 d2 0c    	vpblendd $0xc,%ymm10,%ymm7,%ymm2
    259e:	c4 e3 55 02 e7 0c    	vpblendd $0xc,%ymm7,%ymm5,%ymm4
    25a4:	c4 63 2d 02 dd 0c    	vpblendd $0xc,%ymm5,%ymm10,%ymm11
    25aa:	c4 e3 75 02 cf 30    	vpblendd $0x30,%ymm7,%ymm1,%ymm1
    25b0:	c4 e3 6d 02 d3 30    	vpblendd $0x30,%ymm3,%ymm2,%ymm2
    25b6:	c4 c3 5d 02 e2 30    	vpblendd $0x30,%ymm10,%ymm4,%ymm4
    25bc:	c4 43 25 02 d9 30    	vpblendd $0x30,%ymm9,%ymm11,%ymm11
    25c2:	c4 e3 75 02 cb c0    	vpblendd $0xc0,%ymm3,%ymm1,%ymm1
    25c8:	c4 c3 6d 02 d1 c0    	vpblendd $0xc0,%ymm9,%ymm2,%ymm2
    25ce:	c4 c3 5d 02 e1 c0    	vpblendd $0xc0,%ymm9,%ymm4,%ymm4
    25d4:	c4 63 25 02 df c0    	vpblendd $0xc0,%ymm7,%ymm11,%ymm11
    25da:	c5 f5 df ca          	vpandn %ymm2,%ymm1,%ymm1
    25de:	c4 c1 5d df d3       	vpandn %ymm11,%ymm4,%ymm2
    25e3:	c4 c3 65 02 e2 0c    	vpblendd $0xc,%ymm10,%ymm3,%ymm4
    25e9:	c4 63 55 02 db 0c    	vpblendd $0xc,%ymm3,%ymm5,%ymm11
    25ef:	c5 f5 ef cd          	vpxor  %ymm5,%ymm1,%ymm1
    25f3:	c4 e3 5d 02 e5 30    	vpblendd $0x30,%ymm5,%ymm4,%ymm4
    25f9:	c4 63 25 02 df 30    	vpblendd $0x30,%ymm7,%ymm11,%ymm11
    25ff:	c5 ed ef d3          	vpxor  %ymm3,%ymm2,%ymm2
    2603:	c4 e3 5d 02 e7 c0    	vpblendd $0xc0,%ymm7,%ymm4,%ymm4
    2609:	c4 43 25 02 da c0    	vpblendd $0xc0,%ymm10,%ymm11,%ymm11
    260f:	c4 c1 5d df e3       	vpandn %ymm11,%ymm4,%ymm4
    2614:	c4 41 5d ef e1       	vpxor  %ymm9,%ymm4,%ymm12
    2619:	c4 c3 fd 00 e0 1e    	vpermq $0x1e,%ymm8,%ymm4
    261f:	c4 e3 5d 02 e6 30    	vpblendd $0x30,%ymm6,%ymm4,%ymm4
    2625:	c4 43 fd 00 d8 39    	vpermq $0x39,%ymm8,%ymm11
    262b:	c4 63 25 02 de c0    	vpblendd $0xc0,%ymm6,%ymm11,%ymm11
    2631:	c5 25 df dc          	vpandn %ymm4,%ymm11,%ymm11
    2635:	c4 e3 45 02 e3 0c    	vpblendd $0xc,%ymm3,%ymm7,%ymm4
    263b:	c4 63 35 02 ef 0c    	vpblendd $0xc,%ymm7,%ymm9,%ymm13
    2641:	c4 c3 5d 02 e1 30    	vpblendd $0x30,%ymm9,%ymm4,%ymm4
    2647:	c4 63 15 02 ed 30    	vpblendd $0x30,%ymm5,%ymm13,%ymm13
    264d:	c4 e3 5d 02 e5 c0    	vpblendd $0xc0,%ymm5,%ymm4,%ymm4
    2653:	c4 63 15 02 eb c0    	vpblendd $0xc0,%ymm3,%ymm13,%ymm13
    2659:	c4 c1 5d df e5       	vpandn %ymm13,%ymm4,%ymm4
    265e:	c4 c1 5d ef e2       	vpxor  %ymm10,%ymm4,%ymm4
    2663:	c4 63 fd 00 e8 00    	vpermq $0x0,%ymm0,%ymm13
    2669:	c4 e3 fd 00 c1 1b    	vpermq $0x1b,%ymm1,%ymm0
    266f:	c4 e3 fd 00 ca 8d    	vpermq $0x8d,%ymm2,%ymm1
    2675:	c4 c3 fd 00 d4 72    	vpermq $0x72,%ymm12,%ymm2
    267b:	c4 63 35 02 e5 0c    	vpblendd $0xc,%ymm5,%ymm9,%ymm12
    2681:	c4 43 65 02 c9 0c    	vpblendd $0xc,%ymm9,%ymm3,%ymm9
    2687:	c4 e3 1d 02 db 30    	vpblendd $0x30,%ymm3,%ymm12,%ymm3
    268d:	c4 43 35 02 ca 30    	vpblendd $0x30,%ymm10,%ymm9,%ymm9
    2693:	c4 c3 65 02 da c0    	vpblendd $0xc0,%ymm10,%ymm3,%ymm3
    2699:	c4 e3 35 02 ed c0    	vpblendd $0xc0,%ymm5,%ymm9,%ymm5
    269f:	c5 e5 df ed          	vpandn %ymm5,%ymm3,%ymm5
    26a3:	c4 c1 4d ef f5       	vpxor  %ymm13,%ymm6,%ymm6
    26a8:	c4 c1 25 ef d8       	vpxor  %ymm8,%ymm11,%ymm3
    26ad:	c5 d5 ef ef          	vpxor  %ymm7,%ymm5,%ymm5
    26b1:	c5 cd ef 34 32       	vpxor  (%rdx,%rsi,1),%ymm6,%ymm6
    26b6:	48 83 c6 20          	add    $0x20,%rsi
    26ba:	49 ff cb             	dec    %r11
    26bd:	0f 85 b1 fd ff ff    	jne    2474 <L_keccak1600_avx2$11>
    26c3:	c5 fe 7f 74 24 20    	vmovdqu %ymm6,0x20(%rsp)
    26c9:	c5 fe 7f 5c 24 40    	vmovdqu %ymm3,0x40(%rsp)
    26cf:	c5 fe 7f 64 24 60    	vmovdqu %ymm4,0x60(%rsp)
    26d5:	c5 fe 7f 84 24 80 00 	vmovdqu %ymm0,0x80(%rsp)
    26dc:	00 00 
    26de:	c5 fe 7f ac 24 a0 00 	vmovdqu %ymm5,0xa0(%rsp)
    26e5:	00 00 
    26e7:	c5 fe 7f 8c 24 c0 00 	vmovdqu %ymm1,0xc0(%rsp)
    26ee:	00 00 
    26f0:	c5 fe 7f 94 24 e0 00 	vmovdqu %ymm2,0xe0(%rsp)
    26f7:	00 00 
    26f9:	48 89 ca             	mov    %rcx,%rdx
    26fc:	48 c1 ea 03          	shr    $0x3,%rdx
    2700:	48 c7 c6 00 00 00 00 	mov    $0x0,%rsi
    2707:	eb 10                	jmp    2719 <L_keccak1600_avx2$9>

0000000000002709 <L_keccak1600_avx2$10>:
    2709:	4c 8b 04 f0          	mov    (%rax,%rsi,8),%r8
    270d:	4e 8b 44 c4 20       	mov    0x20(%rsp,%r8,8),%r8
    2712:	4c 89 04 f7          	mov    %r8,(%rdi,%rsi,8)
    2716:	48 ff c6             	inc    %rsi

0000000000002719 <L_keccak1600_avx2$9>:
    2719:	48 39 d6             	cmp    %rdx,%rsi
    271c:	72 eb                	jb     2709 <L_keccak1600_avx2$10>
    271e:	48 01 cf             	add    %rcx,%rdi
    2721:	49 29 c9             	sub    %rcx,%r9

0000000000002724 <L_keccak1600_avx2$7>:
    2724:	49 39 c9             	cmp    %rcx,%r9
    2727:	0f 87 24 fd ff ff    	ja     2451 <L_keccak1600_avx2$8>
    272d:	48 8d 0d cc 41 00 00 	lea    0x41cc(%rip),%rcx        # 6900 <G$KECCAK_IOTAS>
    2734:	48 c7 c2 00 00 00 00 	mov    $0x0,%rdx
    273b:	48 8d 35 fe 40 00 00 	lea    0x40fe(%rip),%rsi        # 6840 <G$KECCAK_RHOTATES_LEFT>
    2742:	4c 8d 05 37 40 00 00 	lea    0x4037(%rip),%r8        # 6780 <G$KECCAK_RHOTATES_RIGHT>
    2749:	49 c7 c2 18 00 00 00 	mov    $0x18,%r10

0000000000002750 <L_keccak1600_avx2$6>:
    2750:	c5 7d 70 c4 4e       	vpshufd $0x4e,%ymm4,%ymm8
    2755:	c5 f5 ef f8          	vpxor  %ymm0,%ymm1,%ymm7
    2759:	c5 55 ef ca          	vpxor  %ymm2,%ymm5,%ymm9
    275d:	c5 c5 ef fb          	vpxor  %ymm3,%ymm7,%ymm7
    2761:	c4 41 45 ef d1       	vpxor  %ymm9,%ymm7,%ymm10
    2766:	c4 c3 fd 00 fa 93    	vpermq $0x93,%ymm10,%ymm7
    276c:	c5 3d ef c4          	vpxor  %ymm4,%ymm8,%ymm8
    2770:	c4 43 fd 00 c8 4e    	vpermq $0x4e,%ymm8,%ymm9
    2776:	c4 c1 25 73 d2 3f    	vpsrlq $0x3f,%ymm10,%ymm11
    277c:	c4 41 2d d4 d2       	vpaddq %ymm10,%ymm10,%ymm10
    2781:	c4 41 25 eb da       	vpor   %ymm10,%ymm11,%ymm11
    2786:	c4 43 fd 00 d3 39    	vpermq $0x39,%ymm11,%ymm10
    278c:	c5 25 ef df          	vpxor  %ymm7,%ymm11,%ymm11
    2790:	c4 43 fd 00 db 00    	vpermq $0x0,%ymm11,%ymm11
    2796:	c5 3d ef c6          	vpxor  %ymm6,%ymm8,%ymm8
    279a:	c4 41 3d ef c1       	vpxor  %ymm9,%ymm8,%ymm8
    279f:	c4 c1 35 73 d0 3f    	vpsrlq $0x3f,%ymm8,%ymm9
    27a5:	c4 41 3d d4 e0       	vpaddq %ymm8,%ymm8,%ymm12
    27aa:	c4 41 1d eb c9       	vpor   %ymm9,%ymm12,%ymm9
    27af:	c4 c1 5d ef e3       	vpxor  %ymm11,%ymm4,%ymm4
    27b4:	c4 c1 4d ef f3       	vpxor  %ymm11,%ymm6,%ymm6
    27b9:	c4 43 2d 02 c9 c0    	vpblendd $0xc0,%ymm9,%ymm10,%ymm9
    27bf:	c4 c3 45 02 f8 03    	vpblendd $0x3,%ymm8,%ymm7,%ymm7
    27c5:	c5 35 ef cf          	vpxor  %ymm7,%ymm9,%ymm9
    27c9:	c4 e2 dd 47 3e       	vpsllvq (%rsi),%ymm4,%ymm7
    27ce:	c4 c2 dd 45 20       	vpsrlvq (%r8),%ymm4,%ymm4
    27d3:	c5 dd eb e7          	vpor   %ymm7,%ymm4,%ymm4
    27d7:	c4 c1 7d ef c1       	vpxor  %ymm9,%ymm0,%ymm0
    27dc:	c4 e2 fd 47 7e 40    	vpsllvq 0x40(%rsi),%ymm0,%ymm7
    27e2:	c4 c2 fd 45 40 40    	vpsrlvq 0x40(%r8),%ymm0,%ymm0
    27e8:	c5 fd eb c7          	vpor   %ymm7,%ymm0,%ymm0
    27ec:	c4 c1 55 ef e9       	vpxor  %ymm9,%ymm5,%ymm5
    27f1:	c4 e2 d5 47 7e 60    	vpsllvq 0x60(%rsi),%ymm5,%ymm7
    27f7:	c4 c2 d5 45 68 60    	vpsrlvq 0x60(%r8),%ymm5,%ymm5
    27fd:	c5 55 eb d7          	vpor   %ymm7,%ymm5,%ymm10
    2801:	c4 c1 75 ef c9       	vpxor  %ymm9,%ymm1,%ymm1
    2806:	c4 e2 f5 47 ae 80 00 	vpsllvq 0x80(%rsi),%ymm1,%ymm5
    280d:	00 00 
    280f:	c4 c2 f5 45 88 80 00 	vpsrlvq 0x80(%r8),%ymm1,%ymm1
    2816:	00 00 
    2818:	c5 f5 eb cd          	vpor   %ymm5,%ymm1,%ymm1
    281c:	c4 c1 6d ef d1       	vpxor  %ymm9,%ymm2,%ymm2
    2821:	c4 e3 fd 00 ec 8d    	vpermq $0x8d,%ymm4,%ymm5
    2827:	c4 e3 fd 00 f8 8d    	vpermq $0x8d,%ymm0,%ymm7
    282d:	c4 e2 ed 47 86 a0 00 	vpsllvq 0xa0(%rsi),%ymm2,%ymm0
    2834:	00 00 
    2836:	c4 c2 ed 45 90 a0 00 	vpsrlvq 0xa0(%r8),%ymm2,%ymm2
    283d:	00 00 
    283f:	c5 6d eb c0          	vpor   %ymm0,%ymm2,%ymm8
    2843:	c4 c1 65 ef c1       	vpxor  %ymm9,%ymm3,%ymm0
    2848:	c4 c3 fd 00 da 1b    	vpermq $0x1b,%ymm10,%ymm3
    284e:	c4 63 fd 00 c9 72    	vpermq $0x72,%ymm1,%ymm9
    2854:	c4 e2 fd 47 4e 20    	vpsllvq 0x20(%rsi),%ymm0,%ymm1
    285a:	c4 c2 fd 45 40 20    	vpsrlvq 0x20(%r8),%ymm0,%ymm0
    2860:	c5 7d eb d1          	vpor   %ymm1,%ymm0,%ymm10
    2864:	c4 c1 7d 73 d8 08    	vpsrldq $0x8,%ymm8,%ymm0
    286a:	c5 bd df c0          	vpandn %ymm0,%ymm8,%ymm0
    286e:	c4 c3 2d 02 c9 0c    	vpblendd $0xc,%ymm9,%ymm10,%ymm1
    2874:	c4 c3 45 02 d2 0c    	vpblendd $0xc,%ymm10,%ymm7,%ymm2
    287a:	c4 e3 55 02 e7 0c    	vpblendd $0xc,%ymm7,%ymm5,%ymm4
    2880:	c4 63 2d 02 dd 0c    	vpblendd $0xc,%ymm5,%ymm10,%ymm11
    2886:	c4 e3 75 02 cf 30    	vpblendd $0x30,%ymm7,%ymm1,%ymm1
    288c:	c4 e3 6d 02 d3 30    	vpblendd $0x30,%ymm3,%ymm2,%ymm2
    2892:	c4 c3 5d 02 e2 30    	vpblendd $0x30,%ymm10,%ymm4,%ymm4
    2898:	c4 43 25 02 d9 30    	vpblendd $0x30,%ymm9,%ymm11,%ymm11
    289e:	c4 e3 75 02 cb c0    	vpblendd $0xc0,%ymm3,%ymm1,%ymm1
    28a4:	c4 c3 6d 02 d1 c0    	vpblendd $0xc0,%ymm9,%ymm2,%ymm2
    28aa:	c4 c3 5d 02 e1 c0    	vpblendd $0xc0,%ymm9,%ymm4,%ymm4
    28b0:	c4 63 25 02 df c0    	vpblendd $0xc0,%ymm7,%ymm11,%ymm11
    28b6:	c5 f5 df ca          	vpandn %ymm2,%ymm1,%ymm1
    28ba:	c4 c1 5d df d3       	vpandn %ymm11,%ymm4,%ymm2
    28bf:	c4 c3 65 02 e2 0c    	vpblendd $0xc,%ymm10,%ymm3,%ymm4
    28c5:	c4 63 55 02 db 0c    	vpblendd $0xc,%ymm3,%ymm5,%ymm11
    28cb:	c5 f5 ef cd          	vpxor  %ymm5,%ymm1,%ymm1
    28cf:	c4 e3 5d 02 e5 30    	vpblendd $0x30,%ymm5,%ymm4,%ymm4
    28d5:	c4 63 25 02 df 30    	vpblendd $0x30,%ymm7,%ymm11,%ymm11
    28db:	c5 ed ef d3          	vpxor  %ymm3,%ymm2,%ymm2
    28df:	c4 e3 5d 02 e7 c0    	vpblendd $0xc0,%ymm7,%ymm4,%ymm4
    28e5:	c4 43 25 02 da c0    	vpblendd $0xc0,%ymm10,%ymm11,%ymm11
    28eb:	c4 c1 5d df e3       	vpandn %ymm11,%ymm4,%ymm4
    28f0:	c4 41 5d ef e1       	vpxor  %ymm9,%ymm4,%ymm12
    28f5:	c4 c3 fd 00 e0 1e    	vpermq $0x1e,%ymm8,%ymm4
    28fb:	c4 e3 5d 02 e6 30    	vpblendd $0x30,%ymm6,%ymm4,%ymm4
    2901:	c4 43 fd 00 d8 39    	vpermq $0x39,%ymm8,%ymm11
    2907:	c4 63 25 02 de c0    	vpblendd $0xc0,%ymm6,%ymm11,%ymm11
    290d:	c5 25 df dc          	vpandn %ymm4,%ymm11,%ymm11
    2911:	c4 e3 45 02 e3 0c    	vpblendd $0xc,%ymm3,%ymm7,%ymm4
    2917:	c4 63 35 02 ef 0c    	vpblendd $0xc,%ymm7,%ymm9,%ymm13
    291d:	c4 c3 5d 02 e1 30    	vpblendd $0x30,%ymm9,%ymm4,%ymm4
    2923:	c4 63 15 02 ed 30    	vpblendd $0x30,%ymm5,%ymm13,%ymm13
    2929:	c4 e3 5d 02 e5 c0    	vpblendd $0xc0,%ymm5,%ymm4,%ymm4
    292f:	c4 63 15 02 eb c0    	vpblendd $0xc0,%ymm3,%ymm13,%ymm13
    2935:	c4 c1 5d df e5       	vpandn %ymm13,%ymm4,%ymm4
    293a:	c4 c1 5d ef e2       	vpxor  %ymm10,%ymm4,%ymm4
    293f:	c4 63 fd 00 e8 00    	vpermq $0x0,%ymm0,%ymm13
    2945:	c4 e3 fd 00 c1 1b    	vpermq $0x1b,%ymm1,%ymm0
    294b:	c4 e3 fd 00 ca 8d    	vpermq $0x8d,%ymm2,%ymm1
    2951:	c4 c3 fd 00 d4 72    	vpermq $0x72,%ymm12,%ymm2
    2957:	c4 63 35 02 e5 0c    	vpblendd $0xc,%ymm5,%ymm9,%ymm12
    295d:	c4 43 65 02 c9 0c    	vpblendd $0xc,%ymm9,%ymm3,%ymm9
    2963:	c4 e3 1d 02 db 30    	vpblendd $0x30,%ymm3,%ymm12,%ymm3
    2969:	c4 43 35 02 ca 30    	vpblendd $0x30,%ymm10,%ymm9,%ymm9
    296f:	c4 c3 65 02 da c0    	vpblendd $0xc0,%ymm10,%ymm3,%ymm3
    2975:	c4 e3 35 02 ed c0    	vpblendd $0xc0,%ymm5,%ymm9,%ymm5
    297b:	c5 e5 df ed          	vpandn %ymm5,%ymm3,%ymm5
    297f:	c4 c1 4d ef f5       	vpxor  %ymm13,%ymm6,%ymm6
    2984:	c4 c1 25 ef d8       	vpxor  %ymm8,%ymm11,%ymm3
    2989:	c5 d5 ef ef          	vpxor  %ymm7,%ymm5,%ymm5
    298d:	c5 cd ef 34 11       	vpxor  (%rcx,%rdx,1),%ymm6,%ymm6
    2992:	48 83 c2 20          	add    $0x20,%rdx
    2996:	49 ff ca             	dec    %r10
    2999:	0f 85 b1 fd ff ff    	jne    2750 <L_keccak1600_avx2$6>
    299f:	c5 fe 7f 74 24 20    	vmovdqu %ymm6,0x20(%rsp)
    29a5:	c5 fe 7f 5c 24 40    	vmovdqu %ymm3,0x40(%rsp)
    29ab:	c5 fe 7f 64 24 60    	vmovdqu %ymm4,0x60(%rsp)
    29b1:	c5 fe 7f 84 24 80 00 	vmovdqu %ymm0,0x80(%rsp)
    29b8:	00 00 
    29ba:	c5 fe 7f ac 24 a0 00 	vmovdqu %ymm5,0xa0(%rsp)
    29c1:	00 00 
    29c3:	c5 fe 7f 8c 24 c0 00 	vmovdqu %ymm1,0xc0(%rsp)
    29ca:	00 00 
    29cc:	c5 fe 7f 94 24 e0 00 	vmovdqu %ymm2,0xe0(%rsp)
    29d3:	00 00 
    29d5:	4c 89 c9             	mov    %r9,%rcx
    29d8:	48 c1 e9 03          	shr    $0x3,%rcx
    29dc:	48 c7 c2 00 00 00 00 	mov    $0x0,%rdx
    29e3:	eb 10                	jmp    29f5 <L_keccak1600_avx2$4>

00000000000029e5 <L_keccak1600_avx2$5>:
    29e5:	48 8b 34 d0          	mov    (%rax,%rdx,8),%rsi
    29e9:	48 8b 74 f4 20       	mov    0x20(%rsp,%rsi,8),%rsi
    29ee:	48 89 34 d7          	mov    %rsi,(%rdi,%rdx,8)
    29f2:	48 ff c2             	inc    %rdx

00000000000029f5 <L_keccak1600_avx2$4>:
    29f5:	48 39 ca             	cmp    %rcx,%rdx
    29f8:	72 eb                	jb     29e5 <L_keccak1600_avx2$5>
    29fa:	48 8b 04 d0          	mov    (%rax,%rdx,8),%rax
    29fe:	48 c1 e2 03          	shl    $0x3,%rdx
    2a02:	48 c1 e0 03          	shl    $0x3,%rax
    2a06:	eb 0d                	jmp    2a15 <L_keccak1600_avx2$2>

0000000000002a08 <L_keccak1600_avx2$3>:
    2a08:	8a 4c 04 20          	mov    0x20(%rsp,%rax,1),%cl
    2a0c:	88 0c 17             	mov    %cl,(%rdi,%rdx,1)
    2a0f:	48 ff c2             	inc    %rdx
    2a12:	48 ff c0             	inc    %rax

0000000000002a15 <L_keccak1600_avx2$2>:
    2a15:	4c 39 ca             	cmp    %r9,%rdx
    2a18:	72 ee                	jb     2a08 <L_keccak1600_avx2$3>
    2a1a:	c3                   	ret    
    2a1b:	0f 1f 44 00 00       	nopl   0x0(%rax,%rax,1)

0000000000002a20 <_jade_hash_sha3_512_amd64>:
    2a20:	48 89 e0             	mov    %rsp,%rax
    2a23:	48 8d 64 24 e0       	lea    -0x20(%rsp),%rsp
    2a28:	48 83 e4 e0          	and    $0xffffffffffffffe0,%rsp
    2a2c:	48 89 1c 24          	mov    %rbx,(%rsp)
    2a30:	48 89 6c 24 08       	mov    %rbp,0x8(%rsp)
    2a35:	4c 89 64 24 10       	mov    %r12,0x10(%rsp)
    2a3a:	48 89 44 24 18       	mov    %rax,0x18(%rsp)
    2a3f:	49 c7 c1 40 00 00 00 	mov    $0x40,%r9
    2a46:	b0 06                	mov    $0x6,%al
    2a48:	48 c7 c1 48 00 00 00 	mov    $0x48,%rcx
    2a4f:	48 8d a4 24 08 ff ff 	lea    -0xf8(%rsp),%rsp
    2a56:	ff 
    2a57:	e8 1f 00 00 00       	call   2a7b <L_keccak1600_avx2$1>

0000000000002a5c <Ljade_hash_sha3_512_amd64$1>:
    2a5c:	48 8d a4 24 f8 00 00 	lea    0xf8(%rsp),%rsp
    2a63:	00 
    2a64:	48 31 c0             	xor    %rax,%rax
    2a67:	48 8b 1c 24          	mov    (%rsp),%rbx
    2a6b:	48 8b 6c 24 08       	mov    0x8(%rsp),%rbp
    2a70:	4c 8b 64 24 10       	mov    0x10(%rsp),%r12
    2a75:	48 8b 64 24 18       	mov    0x18(%rsp),%rsp
    2a7a:	c3                   	ret    

0000000000002a7b <L_keccak1600_avx2$1>:
    2a7b:	c5 cd ef f6          	vpxor  %ymm6,%ymm6,%ymm6
    2a7f:	c5 e5 ef db          	vpxor  %ymm3,%ymm3,%ymm3
    2a83:	c5 dd ef e4          	vpxor  %ymm4,%ymm4,%ymm4
    2a87:	c5 fd ef c0          	vpxor  %ymm0,%ymm0,%ymm0
    2a8b:	c5 d5 ef ed          	vpxor  %ymm5,%ymm5,%ymm5
    2a8f:	c5 f5 ef c9          	vpxor  %ymm1,%ymm1,%ymm1
    2a93:	c5 ed ef d2          	vpxor  %ymm2,%ymm2,%ymm2
    2a97:	4c 8d 05 c2 46 00 00 	lea    0x46c2(%rip),%r8        # 7160 <G$KECCAK_A_JAGGED>
    2a9e:	c5 c5 ef ff          	vpxor  %ymm7,%ymm7,%ymm7
    2aa2:	c5 fe 7f 7c 24 20    	vmovdqu %ymm7,0x20(%rsp)
    2aa8:	c5 fe 7f 7c 24 40    	vmovdqu %ymm7,0x40(%rsp)
    2aae:	c5 fe 7f 7c 24 60    	vmovdqu %ymm7,0x60(%rsp)
    2ab4:	c5 fe 7f bc 24 80 00 	vmovdqu %ymm7,0x80(%rsp)
    2abb:	00 00 
    2abd:	c5 fe 7f bc 24 a0 00 	vmovdqu %ymm7,0xa0(%rsp)
    2ac4:	00 00 
    2ac6:	c5 fe 7f bc 24 c0 00 	vmovdqu %ymm7,0xc0(%rsp)
    2acd:	00 00 
    2acf:	c5 fe 7f bc 24 e0 00 	vmovdqu %ymm7,0xe0(%rsp)
    2ad6:	00 00 
    2ad8:	e9 e9 02 00 00       	jmp    2dc6 <L_keccak1600_avx2$16>

0000000000002add <L_keccak1600_avx2$17>:
    2add:	49 89 ca             	mov    %rcx,%r10
    2ae0:	49 c1 ea 03          	shr    $0x3,%r10
    2ae4:	49 c7 c3 00 00 00 00 	mov    $0x0,%r11
    2aeb:	eb 10                	jmp    2afd <L_keccak1600_avx2$19>

0000000000002aed <L_keccak1600_avx2$20>:
    2aed:	4a 8b 1c de          	mov    (%rsi,%r11,8),%rbx
    2af1:	4b 8b 2c d8          	mov    (%r8,%r11,8),%rbp
    2af5:	48 89 5c ec 20       	mov    %rbx,0x20(%rsp,%rbp,8)
    2afa:	49 ff c3             	inc    %r11

0000000000002afd <L_keccak1600_avx2$19>:
    2afd:	4d 39 d3             	cmp    %r10,%r11
    2b00:	72 eb                	jb     2aed <L_keccak1600_avx2$20>
    2b02:	4c 8b 54 24 20       	mov    0x20(%rsp),%r10
    2b07:	4c 89 54 24 28       	mov    %r10,0x28(%rsp)
    2b0c:	4c 89 54 24 30       	mov    %r10,0x30(%rsp)
    2b11:	4c 89 54 24 38       	mov    %r10,0x38(%rsp)
    2b16:	c5 cd ef 74 24 20    	vpxor  0x20(%rsp),%ymm6,%ymm6
    2b1c:	c5 e5 ef 5c 24 40    	vpxor  0x40(%rsp),%ymm3,%ymm3
    2b22:	c5 dd ef 64 24 60    	vpxor  0x60(%rsp),%ymm4,%ymm4
    2b28:	c5 fd ef 84 24 80 00 	vpxor  0x80(%rsp),%ymm0,%ymm0
    2b2f:	00 00 
    2b31:	c5 d5 ef ac 24 a0 00 	vpxor  0xa0(%rsp),%ymm5,%ymm5
    2b38:	00 00 
    2b3a:	c5 f5 ef 8c 24 c0 00 	vpxor  0xc0(%rsp),%ymm1,%ymm1
    2b41:	00 00 
    2b43:	c5 ed ef 94 24 e0 00 	vpxor  0xe0(%rsp),%ymm2,%ymm2
    2b4a:	00 00 
    2b4c:	48 01 ce             	add    %rcx,%rsi
    2b4f:	48 29 ca             	sub    %rcx,%rdx
    2b52:	4c 8d 15 07 43 00 00 	lea    0x4307(%rip),%r10        # 6e60 <G$KECCAK_IOTAS>
    2b59:	49 c7 c3 00 00 00 00 	mov    $0x0,%r11
    2b60:	48 8d 1d 39 42 00 00 	lea    0x4239(%rip),%rbx        # 6da0 <G$KECCAK_RHOTATES_LEFT>
    2b67:	48 8d 2d 72 41 00 00 	lea    0x4172(%rip),%rbp        # 6ce0 <G$KECCAK_RHOTATES_RIGHT>
    2b6e:	49 c7 c4 18 00 00 00 	mov    $0x18,%r12

0000000000002b75 <L_keccak1600_avx2$18>:
    2b75:	c5 7d 70 c4 4e       	vpshufd $0x4e,%ymm4,%ymm8
    2b7a:	c5 f5 ef f8          	vpxor  %ymm0,%ymm1,%ymm7
    2b7e:	c5 55 ef ca          	vpxor  %ymm2,%ymm5,%ymm9
    2b82:	c5 c5 ef fb          	vpxor  %ymm3,%ymm7,%ymm7
    2b86:	c4 41 45 ef d1       	vpxor  %ymm9,%ymm7,%ymm10
    2b8b:	c4 c3 fd 00 fa 93    	vpermq $0x93,%ymm10,%ymm7
    2b91:	c5 3d ef c4          	vpxor  %ymm4,%ymm8,%ymm8
    2b95:	c4 43 fd 00 c8 4e    	vpermq $0x4e,%ymm8,%ymm9
    2b9b:	c4 c1 25 73 d2 3f    	vpsrlq $0x3f,%ymm10,%ymm11
    2ba1:	c4 41 2d d4 d2       	vpaddq %ymm10,%ymm10,%ymm10
    2ba6:	c4 41 25 eb da       	vpor   %ymm10,%ymm11,%ymm11
    2bab:	c4 43 fd 00 d3 39    	vpermq $0x39,%ymm11,%ymm10
    2bb1:	c5 25 ef df          	vpxor  %ymm7,%ymm11,%ymm11
    2bb5:	c4 43 fd 00 db 00    	vpermq $0x0,%ymm11,%ymm11
    2bbb:	c5 3d ef c6          	vpxor  %ymm6,%ymm8,%ymm8
    2bbf:	c4 41 3d ef c1       	vpxor  %ymm9,%ymm8,%ymm8
    2bc4:	c4 c1 35 73 d0 3f    	vpsrlq $0x3f,%ymm8,%ymm9
    2bca:	c4 41 3d d4 e0       	vpaddq %ymm8,%ymm8,%ymm12
    2bcf:	c4 41 1d eb c9       	vpor   %ymm9,%ymm12,%ymm9
    2bd4:	c4 c1 5d ef e3       	vpxor  %ymm11,%ymm4,%ymm4
    2bd9:	c4 c1 4d ef f3       	vpxor  %ymm11,%ymm6,%ymm6
    2bde:	c4 43 2d 02 c9 c0    	vpblendd $0xc0,%ymm9,%ymm10,%ymm9
    2be4:	c4 c3 45 02 f8 03    	vpblendd $0x3,%ymm8,%ymm7,%ymm7
    2bea:	c5 35 ef cf          	vpxor  %ymm7,%ymm9,%ymm9
    2bee:	c4 e2 dd 47 3b       	vpsllvq (%rbx),%ymm4,%ymm7
    2bf3:	c4 e2 dd 45 65 00    	vpsrlvq 0x0(%rbp),%ymm4,%ymm4
    2bf9:	c5 dd eb e7          	vpor   %ymm7,%ymm4,%ymm4
    2bfd:	c4 c1 7d ef c1       	vpxor  %ymm9,%ymm0,%ymm0
    2c02:	c4 e2 fd 47 7b 40    	vpsllvq 0x40(%rbx),%ymm0,%ymm7
    2c08:	c4 e2 fd 45 45 40    	vpsrlvq 0x40(%rbp),%ymm0,%ymm0
    2c0e:	c5 fd eb c7          	vpor   %ymm7,%ymm0,%ymm0
    2c12:	c4 c1 55 ef e9       	vpxor  %ymm9,%ymm5,%ymm5
    2c17:	c4 e2 d5 47 7b 60    	vpsllvq 0x60(%rbx),%ymm5,%ymm7
    2c1d:	c4 e2 d5 45 6d 60    	vpsrlvq 0x60(%rbp),%ymm5,%ymm5
    2c23:	c5 55 eb d7          	vpor   %ymm7,%ymm5,%ymm10
    2c27:	c4 c1 75 ef c9       	vpxor  %ymm9,%ymm1,%ymm1
    2c2c:	c4 e2 f5 47 ab 80 00 	vpsllvq 0x80(%rbx),%ymm1,%ymm5
    2c33:	00 00 
    2c35:	c4 e2 f5 45 8d 80 00 	vpsrlvq 0x80(%rbp),%ymm1,%ymm1
    2c3c:	00 00 
    2c3e:	c5 f5 eb cd          	vpor   %ymm5,%ymm1,%ymm1
    2c42:	c4 c1 6d ef d1       	vpxor  %ymm9,%ymm2,%ymm2
    2c47:	c4 e3 fd 00 ec 8d    	vpermq $0x8d,%ymm4,%ymm5
    2c4d:	c4 e3 fd 00 f8 8d    	vpermq $0x8d,%ymm0,%ymm7
    2c53:	c4 e2 ed 47 83 a0 00 	vpsllvq 0xa0(%rbx),%ymm2,%ymm0
    2c5a:	00 00 
    2c5c:	c4 e2 ed 45 95 a0 00 	vpsrlvq 0xa0(%rbp),%ymm2,%ymm2
    2c63:	00 00 
    2c65:	c5 6d eb c0          	vpor   %ymm0,%ymm2,%ymm8
    2c69:	c4 c1 65 ef c1       	vpxor  %ymm9,%ymm3,%ymm0
    2c6e:	c4 c3 fd 00 da 1b    	vpermq $0x1b,%ymm10,%ymm3
    2c74:	c4 63 fd 00 c9 72    	vpermq $0x72,%ymm1,%ymm9
    2c7a:	c4 e2 fd 47 4b 20    	vpsllvq 0x20(%rbx),%ymm0,%ymm1
    2c80:	c4 e2 fd 45 45 20    	vpsrlvq 0x20(%rbp),%ymm0,%ymm0
    2c86:	c5 7d eb d1          	vpor   %ymm1,%ymm0,%ymm10
    2c8a:	c4 c1 7d 73 d8 08    	vpsrldq $0x8,%ymm8,%ymm0
    2c90:	c5 bd df c0          	vpandn %ymm0,%ymm8,%ymm0
    2c94:	c4 c3 2d 02 c9 0c    	vpblendd $0xc,%ymm9,%ymm10,%ymm1
    2c9a:	c4 c3 45 02 d2 0c    	vpblendd $0xc,%ymm10,%ymm7,%ymm2
    2ca0:	c4 e3 55 02 e7 0c    	vpblendd $0xc,%ymm7,%ymm5,%ymm4
    2ca6:	c4 63 2d 02 dd 0c    	vpblendd $0xc,%ymm5,%ymm10,%ymm11
    2cac:	c4 e3 75 02 cf 30    	vpblendd $0x30,%ymm7,%ymm1,%ymm1
    2cb2:	c4 e3 6d 02 d3 30    	vpblendd $0x30,%ymm3,%ymm2,%ymm2
    2cb8:	c4 c3 5d 02 e2 30    	vpblendd $0x30,%ymm10,%ymm4,%ymm4
    2cbe:	c4 43 25 02 d9 30    	vpblendd $0x30,%ymm9,%ymm11,%ymm11
    2cc4:	c4 e3 75 02 cb c0    	vpblendd $0xc0,%ymm3,%ymm1,%ymm1
    2cca:	c4 c3 6d 02 d1 c0    	vpblendd $0xc0,%ymm9,%ymm2,%ymm2
    2cd0:	c4 c3 5d 02 e1 c0    	vpblendd $0xc0,%ymm9,%ymm4,%ymm4
    2cd6:	c4 63 25 02 df c0    	vpblendd $0xc0,%ymm7,%ymm11,%ymm11
    2cdc:	c5 f5 df ca          	vpandn %ymm2,%ymm1,%ymm1
    2ce0:	c4 c1 5d df d3       	vpandn %ymm11,%ymm4,%ymm2
    2ce5:	c4 c3 65 02 e2 0c    	vpblendd $0xc,%ymm10,%ymm3,%ymm4
    2ceb:	c4 63 55 02 db 0c    	vpblendd $0xc,%ymm3,%ymm5,%ymm11
    2cf1:	c5 f5 ef cd          	vpxor  %ymm5,%ymm1,%ymm1
    2cf5:	c4 e3 5d 02 e5 30    	vpblendd $0x30,%ymm5,%ymm4,%ymm4
    2cfb:	c4 63 25 02 df 30    	vpblendd $0x30,%ymm7,%ymm11,%ymm11
    2d01:	c5 ed ef d3          	vpxor  %ymm3,%ymm2,%ymm2
    2d05:	c4 e3 5d 02 e7 c0    	vpblendd $0xc0,%ymm7,%ymm4,%ymm4
    2d0b:	c4 43 25 02 da c0    	vpblendd $0xc0,%ymm10,%ymm11,%ymm11
    2d11:	c4 c1 5d df e3       	vpandn %ymm11,%ymm4,%ymm4
    2d16:	c4 41 5d ef e1       	vpxor  %ymm9,%ymm4,%ymm12
    2d1b:	c4 c3 fd 00 e0 1e    	vpermq $0x1e,%ymm8,%ymm4
    2d21:	c4 e3 5d 02 e6 30    	vpblendd $0x30,%ymm6,%ymm4,%ymm4
    2d27:	c4 43 fd 00 d8 39    	vpermq $0x39,%ymm8,%ymm11
    2d2d:	c4 63 25 02 de c0    	vpblendd $0xc0,%ymm6,%ymm11,%ymm11
    2d33:	c5 25 df dc          	vpandn %ymm4,%ymm11,%ymm11
    2d37:	c4 e3 45 02 e3 0c    	vpblendd $0xc,%ymm3,%ymm7,%ymm4
    2d3d:	c4 63 35 02 ef 0c    	vpblendd $0xc,%ymm7,%ymm9,%ymm13
    2d43:	c4 c3 5d 02 e1 30    	vpblendd $0x30,%ymm9,%ymm4,%ymm4
    2d49:	c4 63 15 02 ed 30    	vpblendd $0x30,%ymm5,%ymm13,%ymm13
    2d4f:	c4 e3 5d 02 e5 c0    	vpblendd $0xc0,%ymm5,%ymm4,%ymm4
    2d55:	c4 63 15 02 eb c0    	vpblendd $0xc0,%ymm3,%ymm13,%ymm13
    2d5b:	c4 c1 5d df e5       	vpandn %ymm13,%ymm4,%ymm4
    2d60:	c4 c1 5d ef e2       	vpxor  %ymm10,%ymm4,%ymm4
    2d65:	c4 63 fd 00 e8 00    	vpermq $0x0,%ymm0,%ymm13
    2d6b:	c4 e3 fd 00 c1 1b    	vpermq $0x1b,%ymm1,%ymm0
    2d71:	c4 e3 fd 00 ca 8d    	vpermq $0x8d,%ymm2,%ymm1
    2d77:	c4 c3 fd 00 d4 72    	vpermq $0x72,%ymm12,%ymm2
    2d7d:	c4 63 35 02 e5 0c    	vpblendd $0xc,%ymm5,%ymm9,%ymm12
    2d83:	c4 43 65 02 c9 0c    	vpblendd $0xc,%ymm9,%ymm3,%ymm9
    2d89:	c4 e3 1d 02 db 30    	vpblendd $0x30,%ymm3,%ymm12,%ymm3
    2d8f:	c4 43 35 02 ca 30    	vpblendd $0x30,%ymm10,%ymm9,%ymm9
    2d95:	c4 c3 65 02 da c0    	vpblendd $0xc0,%ymm10,%ymm3,%ymm3
    2d9b:	c4 e3 35 02 ed c0    	vpblendd $0xc0,%ymm5,%ymm9,%ymm5
    2da1:	c5 e5 df ed          	vpandn %ymm5,%ymm3,%ymm5
    2da5:	c4 c1 4d ef f5       	vpxor  %ymm13,%ymm6,%ymm6
    2daa:	c4 c1 25 ef d8       	vpxor  %ymm8,%ymm11,%ymm3
    2daf:	c5 d5 ef ef          	vpxor  %ymm7,%ymm5,%ymm5
    2db3:	c4 81 4d ef 34 1a    	vpxor  (%r10,%r11,1),%ymm6,%ymm6
    2db9:	49 83 c3 20          	add    $0x20,%r11
    2dbd:	49 ff cc             	dec    %r12
    2dc0:	0f 85 af fd ff ff    	jne    2b75 <L_keccak1600_avx2$18>

0000000000002dc6 <L_keccak1600_avx2$16>:
    2dc6:	48 39 ca             	cmp    %rcx,%rdx
    2dc9:	0f 83 0e fd ff ff    	jae    2add <L_keccak1600_avx2$17>
    2dcf:	c5 c5 ef ff          	vpxor  %ymm7,%ymm7,%ymm7
    2dd3:	c5 fe 7f 7c 24 20    	vmovdqu %ymm7,0x20(%rsp)
    2dd9:	c5 fe 7f 7c 24 40    	vmovdqu %ymm7,0x40(%rsp)
    2ddf:	c5 fe 7f 7c 24 60    	vmovdqu %ymm7,0x60(%rsp)
    2de5:	c5 fe 7f bc 24 80 00 	vmovdqu %ymm7,0x80(%rsp)
    2dec:	00 00 
    2dee:	c5 fe 7f bc 24 a0 00 	vmovdqu %ymm7,0xa0(%rsp)
    2df5:	00 00 
    2df7:	c5 fe 7f bc 24 c0 00 	vmovdqu %ymm7,0xc0(%rsp)
    2dfe:	00 00 
    2e00:	c5 fe 7f bc 24 e0 00 	vmovdqu %ymm7,0xe0(%rsp)
    2e07:	00 00 
    2e09:	49 89 d2             	mov    %rdx,%r10
    2e0c:	49 c1 ea 03          	shr    $0x3,%r10
    2e10:	49 c7 c3 00 00 00 00 	mov    $0x0,%r11
    2e17:	eb 10                	jmp    2e29 <L_keccak1600_avx2$14>

0000000000002e19 <L_keccak1600_avx2$15>:
    2e19:	4a 8b 1c de          	mov    (%rsi,%r11,8),%rbx
    2e1d:	4b 8b 2c d8          	mov    (%r8,%r11,8),%rbp
    2e21:	48 89 5c ec 20       	mov    %rbx,0x20(%rsp,%rbp,8)
    2e26:	49 ff c3             	inc    %r11

0000000000002e29 <L_keccak1600_avx2$14>:
    2e29:	4d 39 d3             	cmp    %r10,%r11
    2e2c:	72 eb                	jb     2e19 <L_keccak1600_avx2$15>
    2e2e:	4f 8b 14 d8          	mov    (%r8,%r11,8),%r10
    2e32:	49 c1 e2 03          	shl    $0x3,%r10
    2e36:	49 c1 e3 03          	shl    $0x3,%r11
    2e3a:	eb 0f                	jmp    2e4b <L_keccak1600_avx2$12>

0000000000002e3c <L_keccak1600_avx2$13>:
    2e3c:	42 8a 1c 1e          	mov    (%rsi,%r11,1),%bl
    2e40:	42 88 5c 14 20       	mov    %bl,0x20(%rsp,%r10,1)
    2e45:	49 ff c3             	inc    %r11
    2e48:	49 ff c2             	inc    %r10

0000000000002e4b <L_keccak1600_avx2$12>:
    2e4b:	49 39 d3             	cmp    %rdx,%r11
    2e4e:	72 ec                	jb     2e3c <L_keccak1600_avx2$13>
    2e50:	42 88 44 14 20       	mov    %al,0x20(%rsp,%r10,1)
    2e55:	48 89 c8             	mov    %rcx,%rax
    2e58:	48 83 c0 ff          	add    $0xffffffffffffffff,%rax
    2e5c:	48 c1 e8 03          	shr    $0x3,%rax
    2e60:	49 8b 04 c0          	mov    (%r8,%rax,8),%rax
    2e64:	48 c1 e0 03          	shl    $0x3,%rax
    2e68:	48 89 ca             	mov    %rcx,%rdx
    2e6b:	48 83 c2 ff          	add    $0xffffffffffffffff,%rdx
    2e6f:	48 83 e2 07          	and    $0x7,%rdx
    2e73:	48 01 d0             	add    %rdx,%rax
    2e76:	80 74 04 20 80       	xorb   $0x80,0x20(%rsp,%rax,1)
    2e7b:	48 8b 44 24 20       	mov    0x20(%rsp),%rax
    2e80:	48 89 44 24 28       	mov    %rax,0x28(%rsp)
    2e85:	48 89 44 24 30       	mov    %rax,0x30(%rsp)
    2e8a:	48 89 44 24 38       	mov    %rax,0x38(%rsp)
    2e8f:	c5 cd ef 74 24 20    	vpxor  0x20(%rsp),%ymm6,%ymm6
    2e95:	c5 e5 ef 5c 24 40    	vpxor  0x40(%rsp),%ymm3,%ymm3
    2e9b:	c5 dd ef 64 24 60    	vpxor  0x60(%rsp),%ymm4,%ymm4
    2ea1:	c5 fd ef 84 24 80 00 	vpxor  0x80(%rsp),%ymm0,%ymm0
    2ea8:	00 00 
    2eaa:	c5 d5 ef ac 24 a0 00 	vpxor  0xa0(%rsp),%ymm5,%ymm5
    2eb1:	00 00 
    2eb3:	c5 f5 ef 8c 24 c0 00 	vpxor  0xc0(%rsp),%ymm1,%ymm1
    2eba:	00 00 
    2ebc:	c5 ed ef 94 24 e0 00 	vpxor  0xe0(%rsp),%ymm2,%ymm2
    2ec3:	00 00 
    2ec5:	48 8d 05 94 42 00 00 	lea    0x4294(%rip),%rax        # 7160 <G$KECCAK_A_JAGGED>
    2ecc:	e9 d3 02 00 00       	jmp    31a4 <L_keccak1600_avx2$7>

0000000000002ed1 <L_keccak1600_avx2$8>:
    2ed1:	48 8d 15 88 3f 00 00 	lea    0x3f88(%rip),%rdx        # 6e60 <G$KECCAK_IOTAS>
    2ed8:	48 c7 c6 00 00 00 00 	mov    $0x0,%rsi
    2edf:	4c 8d 05 ba 3e 00 00 	lea    0x3eba(%rip),%r8        # 6da0 <G$KECCAK_RHOTATES_LEFT>
    2ee6:	4c 8d 15 f3 3d 00 00 	lea    0x3df3(%rip),%r10        # 6ce0 <G$KECCAK_RHOTATES_RIGHT>
    2eed:	49 c7 c3 18 00 00 00 	mov    $0x18,%r11

0000000000002ef4 <L_keccak1600_avx2$11>:
    2ef4:	c5 7d 70 c4 4e       	vpshufd $0x4e,%ymm4,%ymm8
    2ef9:	c5 f5 ef f8          	vpxor  %ymm0,%ymm1,%ymm7
    2efd:	c5 55 ef ca          	vpxor  %ymm2,%ymm5,%ymm9
    2f01:	c5 c5 ef fb          	vpxor  %ymm3,%ymm7,%ymm7
    2f05:	c4 41 45 ef d1       	vpxor  %ymm9,%ymm7,%ymm10
    2f0a:	c4 c3 fd 00 fa 93    	vpermq $0x93,%ymm10,%ymm7
    2f10:	c5 3d ef c4          	vpxor  %ymm4,%ymm8,%ymm8
    2f14:	c4 43 fd 00 c8 4e    	vpermq $0x4e,%ymm8,%ymm9
    2f1a:	c4 c1 25 73 d2 3f    	vpsrlq $0x3f,%ymm10,%ymm11
    2f20:	c4 41 2d d4 d2       	vpaddq %ymm10,%ymm10,%ymm10
    2f25:	c4 41 25 eb da       	vpor   %ymm10,%ymm11,%ymm11
    2f2a:	c4 43 fd 00 d3 39    	vpermq $0x39,%ymm11,%ymm10
    2f30:	c5 25 ef df          	vpxor  %ymm7,%ymm11,%ymm11
    2f34:	c4 43 fd 00 db 00    	vpermq $0x0,%ymm11,%ymm11
    2f3a:	c5 3d ef c6          	vpxor  %ymm6,%ymm8,%ymm8
    2f3e:	c4 41 3d ef c1       	vpxor  %ymm9,%ymm8,%ymm8
    2f43:	c4 c1 35 73 d0 3f    	vpsrlq $0x3f,%ymm8,%ymm9
    2f49:	c4 41 3d d4 e0       	vpaddq %ymm8,%ymm8,%ymm12
    2f4e:	c4 41 1d eb c9       	vpor   %ymm9,%ymm12,%ymm9
    2f53:	c4 c1 5d ef e3       	vpxor  %ymm11,%ymm4,%ymm4
    2f58:	c4 c1 4d ef f3       	vpxor  %ymm11,%ymm6,%ymm6
    2f5d:	c4 43 2d 02 c9 c0    	vpblendd $0xc0,%ymm9,%ymm10,%ymm9
    2f63:	c4 c3 45 02 f8 03    	vpblendd $0x3,%ymm8,%ymm7,%ymm7
    2f69:	c5 35 ef cf          	vpxor  %ymm7,%ymm9,%ymm9
    2f6d:	c4 c2 dd 47 38       	vpsllvq (%r8),%ymm4,%ymm7
    2f72:	c4 c2 dd 45 22       	vpsrlvq (%r10),%ymm4,%ymm4
    2f77:	c5 dd eb e7          	vpor   %ymm7,%ymm4,%ymm4
    2f7b:	c4 c1 7d ef c1       	vpxor  %ymm9,%ymm0,%ymm0
    2f80:	c4 c2 fd 47 78 40    	vpsllvq 0x40(%r8),%ymm0,%ymm7
    2f86:	c4 c2 fd 45 42 40    	vpsrlvq 0x40(%r10),%ymm0,%ymm0
    2f8c:	c5 fd eb c7          	vpor   %ymm7,%ymm0,%ymm0
    2f90:	c4 c1 55 ef e9       	vpxor  %ymm9,%ymm5,%ymm5
    2f95:	c4 c2 d5 47 78 60    	vpsllvq 0x60(%r8),%ymm5,%ymm7
    2f9b:	c4 c2 d5 45 6a 60    	vpsrlvq 0x60(%r10),%ymm5,%ymm5
    2fa1:	c5 55 eb d7          	vpor   %ymm7,%ymm5,%ymm10
    2fa5:	c4 c1 75 ef c9       	vpxor  %ymm9,%ymm1,%ymm1
    2faa:	c4 c2 f5 47 a8 80 00 	vpsllvq 0x80(%r8),%ymm1,%ymm5
    2fb1:	00 00 
    2fb3:	c4 c2 f5 45 8a 80 00 	vpsrlvq 0x80(%r10),%ymm1,%ymm1
    2fba:	00 00 
    2fbc:	c5 f5 eb cd          	vpor   %ymm5,%ymm1,%ymm1
    2fc0:	c4 c1 6d ef d1       	vpxor  %ymm9,%ymm2,%ymm2
    2fc5:	c4 e3 fd 00 ec 8d    	vpermq $0x8d,%ymm4,%ymm5
    2fcb:	c4 e3 fd 00 f8 8d    	vpermq $0x8d,%ymm0,%ymm7
    2fd1:	c4 c2 ed 47 80 a0 00 	vpsllvq 0xa0(%r8),%ymm2,%ymm0
    2fd8:	00 00 
    2fda:	c4 c2 ed 45 92 a0 00 	vpsrlvq 0xa0(%r10),%ymm2,%ymm2
    2fe1:	00 00 
    2fe3:	c5 6d eb c0          	vpor   %ymm0,%ymm2,%ymm8
    2fe7:	c4 c1 65 ef c1       	vpxor  %ymm9,%ymm3,%ymm0
    2fec:	c4 c3 fd 00 da 1b    	vpermq $0x1b,%ymm10,%ymm3
    2ff2:	c4 63 fd 00 c9 72    	vpermq $0x72,%ymm1,%ymm9
    2ff8:	c4 c2 fd 47 48 20    	vpsllvq 0x20(%r8),%ymm0,%ymm1
    2ffe:	c4 c2 fd 45 42 20    	vpsrlvq 0x20(%r10),%ymm0,%ymm0
    3004:	c5 7d eb d1          	vpor   %ymm1,%ymm0,%ymm10
    3008:	c4 c1 7d 73 d8 08    	vpsrldq $0x8,%ymm8,%ymm0
    300e:	c5 bd df c0          	vpandn %ymm0,%ymm8,%ymm0
    3012:	c4 c3 2d 02 c9 0c    	vpblendd $0xc,%ymm9,%ymm10,%ymm1
    3018:	c4 c3 45 02 d2 0c    	vpblendd $0xc,%ymm10,%ymm7,%ymm2
    301e:	c4 e3 55 02 e7 0c    	vpblendd $0xc,%ymm7,%ymm5,%ymm4
    3024:	c4 63 2d 02 dd 0c    	vpblendd $0xc,%ymm5,%ymm10,%ymm11
    302a:	c4 e3 75 02 cf 30    	vpblendd $0x30,%ymm7,%ymm1,%ymm1
    3030:	c4 e3 6d 02 d3 30    	vpblendd $0x30,%ymm3,%ymm2,%ymm2
    3036:	c4 c3 5d 02 e2 30    	vpblendd $0x30,%ymm10,%ymm4,%ymm4
    303c:	c4 43 25 02 d9 30    	vpblendd $0x30,%ymm9,%ymm11,%ymm11
    3042:	c4 e3 75 02 cb c0    	vpblendd $0xc0,%ymm3,%ymm1,%ymm1
    3048:	c4 c3 6d 02 d1 c0    	vpblendd $0xc0,%ymm9,%ymm2,%ymm2
    304e:	c4 c3 5d 02 e1 c0    	vpblendd $0xc0,%ymm9,%ymm4,%ymm4
    3054:	c4 63 25 02 df c0    	vpblendd $0xc0,%ymm7,%ymm11,%ymm11
    305a:	c5 f5 df ca          	vpandn %ymm2,%ymm1,%ymm1
    305e:	c4 c1 5d df d3       	vpandn %ymm11,%ymm4,%ymm2
    3063:	c4 c3 65 02 e2 0c    	vpblendd $0xc,%ymm10,%ymm3,%ymm4
    3069:	c4 63 55 02 db 0c    	vpblendd $0xc,%ymm3,%ymm5,%ymm11
    306f:	c5 f5 ef cd          	vpxor  %ymm5,%ymm1,%ymm1
    3073:	c4 e3 5d 02 e5 30    	vpblendd $0x30,%ymm5,%ymm4,%ymm4
    3079:	c4 63 25 02 df 30    	vpblendd $0x30,%ymm7,%ymm11,%ymm11
    307f:	c5 ed ef d3          	vpxor  %ymm3,%ymm2,%ymm2
    3083:	c4 e3 5d 02 e7 c0    	vpblendd $0xc0,%ymm7,%ymm4,%ymm4
    3089:	c4 43 25 02 da c0    	vpblendd $0xc0,%ymm10,%ymm11,%ymm11
    308f:	c4 c1 5d df e3       	vpandn %ymm11,%ymm4,%ymm4
    3094:	c4 41 5d ef e1       	vpxor  %ymm9,%ymm4,%ymm12
    3099:	c4 c3 fd 00 e0 1e    	vpermq $0x1e,%ymm8,%ymm4
    309f:	c4 e3 5d 02 e6 30    	vpblendd $0x30,%ymm6,%ymm4,%ymm4
    30a5:	c4 43 fd 00 d8 39    	vpermq $0x39,%ymm8,%ymm11
    30ab:	c4 63 25 02 de c0    	vpblendd $0xc0,%ymm6,%ymm11,%ymm11
    30b1:	c5 25 df dc          	vpandn %ymm4,%ymm11,%ymm11
    30b5:	c4 e3 45 02 e3 0c    	vpblendd $0xc,%ymm3,%ymm7,%ymm4
    30bb:	c4 63 35 02 ef 0c    	vpblendd $0xc,%ymm7,%ymm9,%ymm13
    30c1:	c4 c3 5d 02 e1 30    	vpblendd $0x30,%ymm9,%ymm4,%ymm4
    30c7:	c4 63 15 02 ed 30    	vpblendd $0x30,%ymm5,%ymm13,%ymm13
    30cd:	c4 e3 5d 02 e5 c0    	vpblendd $0xc0,%ymm5,%ymm4,%ymm4
    30d3:	c4 63 15 02 eb c0    	vpblendd $0xc0,%ymm3,%ymm13,%ymm13
    30d9:	c4 c1 5d df e5       	vpandn %ymm13,%ymm4,%ymm4
    30de:	c4 c1 5d ef e2       	vpxor  %ymm10,%ymm4,%ymm4
    30e3:	c4 63 fd 00 e8 00    	vpermq $0x0,%ymm0,%ymm13
    30e9:	c4 e3 fd 00 c1 1b    	vpermq $0x1b,%ymm1,%ymm0
    30ef:	c4 e3 fd 00 ca 8d    	vpermq $0x8d,%ymm2,%ymm1
    30f5:	c4 c3 fd 00 d4 72    	vpermq $0x72,%ymm12,%ymm2
    30fb:	c4 63 35 02 e5 0c    	vpblendd $0xc,%ymm5,%ymm9,%ymm12
    3101:	c4 43 65 02 c9 0c    	vpblendd $0xc,%ymm9,%ymm3,%ymm9
    3107:	c4 e3 1d 02 db 30    	vpblendd $0x30,%ymm3,%ymm12,%ymm3
    310d:	c4 43 35 02 ca 30    	vpblendd $0x30,%ymm10,%ymm9,%ymm9
    3113:	c4 c3 65 02 da c0    	vpblendd $0xc0,%ymm10,%ymm3,%ymm3
    3119:	c4 e3 35 02 ed c0    	vpblendd $0xc0,%ymm5,%ymm9,%ymm5
    311f:	c5 e5 df ed          	vpandn %ymm5,%ymm3,%ymm5
    3123:	c4 c1 4d ef f5       	vpxor  %ymm13,%ymm6,%ymm6
    3128:	c4 c1 25 ef d8       	vpxor  %ymm8,%ymm11,%ymm3
    312d:	c5 d5 ef ef          	vpxor  %ymm7,%ymm5,%ymm5
    3131:	c5 cd ef 34 32       	vpxor  (%rdx,%rsi,1),%ymm6,%ymm6
    3136:	48 83 c6 20          	add    $0x20,%rsi
    313a:	49 ff cb             	dec    %r11
    313d:	0f 85 b1 fd ff ff    	jne    2ef4 <L_keccak1600_avx2$11>
    3143:	c5 fe 7f 74 24 20    	vmovdqu %ymm6,0x20(%rsp)
    3149:	c5 fe 7f 5c 24 40    	vmovdqu %ymm3,0x40(%rsp)
    314f:	c5 fe 7f 64 24 60    	vmovdqu %ymm4,0x60(%rsp)
    3155:	c5 fe 7f 84 24 80 00 	vmovdqu %ymm0,0x80(%rsp)
    315c:	00 00 
    315e:	c5 fe 7f ac 24 a0 00 	vmovdqu %ymm5,0xa0(%rsp)
    3165:	00 00 
    3167:	c5 fe 7f 8c 24 c0 00 	vmovdqu %ymm1,0xc0(%rsp)
    316e:	00 00 
    3170:	c5 fe 7f 94 24 e0 00 	vmovdqu %ymm2,0xe0(%rsp)
    3177:	00 00 
    3179:	48 89 ca             	mov    %rcx,%rdx
    317c:	48 c1 ea 03          	shr    $0x3,%rdx
    3180:	48 c7 c6 00 00 00 00 	mov    $0x0,%rsi
    3187:	eb 10                	jmp    3199 <L_keccak1600_avx2$9>

0000000000003189 <L_keccak1600_avx2$10>:
    3189:	4c 8b 04 f0          	mov    (%rax,%rsi,8),%r8
    318d:	4e 8b 44 c4 20       	mov    0x20(%rsp,%r8,8),%r8
    3192:	4c 89 04 f7          	mov    %r8,(%rdi,%rsi,8)
    3196:	48 ff c6             	inc    %rsi

0000000000003199 <L_keccak1600_avx2$9>:
    3199:	48 39 d6             	cmp    %rdx,%rsi
    319c:	72 eb                	jb     3189 <L_keccak1600_avx2$10>
    319e:	48 01 cf             	add    %rcx,%rdi
    31a1:	49 29 c9             	sub    %rcx,%r9

00000000000031a4 <L_keccak1600_avx2$7>:
    31a4:	49 39 c9             	cmp    %rcx,%r9
    31a7:	0f 87 24 fd ff ff    	ja     2ed1 <L_keccak1600_avx2$8>
    31ad:	48 8d 0d ac 3c 00 00 	lea    0x3cac(%rip),%rcx        # 6e60 <G$KECCAK_IOTAS>
    31b4:	48 c7 c2 00 00 00 00 	mov    $0x0,%rdx
    31bb:	48 8d 35 de 3b 00 00 	lea    0x3bde(%rip),%rsi        # 6da0 <G$KECCAK_RHOTATES_LEFT>
    31c2:	4c 8d 05 17 3b 00 00 	lea    0x3b17(%rip),%r8        # 6ce0 <G$KECCAK_RHOTATES_RIGHT>
    31c9:	49 c7 c2 18 00 00 00 	mov    $0x18,%r10

00000000000031d0 <L_keccak1600_avx2$6>:
    31d0:	c5 7d 70 c4 4e       	vpshufd $0x4e,%ymm4,%ymm8
    31d5:	c5 f5 ef f8          	vpxor  %ymm0,%ymm1,%ymm7
    31d9:	c5 55 ef ca          	vpxor  %ymm2,%ymm5,%ymm9
    31dd:	c5 c5 ef fb          	vpxor  %ymm3,%ymm7,%ymm7
    31e1:	c4 41 45 ef d1       	vpxor  %ymm9,%ymm7,%ymm10
    31e6:	c4 c3 fd 00 fa 93    	vpermq $0x93,%ymm10,%ymm7
    31ec:	c5 3d ef c4          	vpxor  %ymm4,%ymm8,%ymm8
    31f0:	c4 43 fd 00 c8 4e    	vpermq $0x4e,%ymm8,%ymm9
    31f6:	c4 c1 25 73 d2 3f    	vpsrlq $0x3f,%ymm10,%ymm11
    31fc:	c4 41 2d d4 d2       	vpaddq %ymm10,%ymm10,%ymm10
    3201:	c4 41 25 eb da       	vpor   %ymm10,%ymm11,%ymm11
    3206:	c4 43 fd 00 d3 39    	vpermq $0x39,%ymm11,%ymm10
    320c:	c5 25 ef df          	vpxor  %ymm7,%ymm11,%ymm11
    3210:	c4 43 fd 00 db 00    	vpermq $0x0,%ymm11,%ymm11
    3216:	c5 3d ef c6          	vpxor  %ymm6,%ymm8,%ymm8
    321a:	c4 41 3d ef c1       	vpxor  %ymm9,%ymm8,%ymm8
    321f:	c4 c1 35 73 d0 3f    	vpsrlq $0x3f,%ymm8,%ymm9
    3225:	c4 41 3d d4 e0       	vpaddq %ymm8,%ymm8,%ymm12
    322a:	c4 41 1d eb c9       	vpor   %ymm9,%ymm12,%ymm9
    322f:	c4 c1 5d ef e3       	vpxor  %ymm11,%ymm4,%ymm4
    3234:	c4 c1 4d ef f3       	vpxor  %ymm11,%ymm6,%ymm6
    3239:	c4 43 2d 02 c9 c0    	vpblendd $0xc0,%ymm9,%ymm10,%ymm9
    323f:	c4 c3 45 02 f8 03    	vpblendd $0x3,%ymm8,%ymm7,%ymm7
    3245:	c5 35 ef cf          	vpxor  %ymm7,%ymm9,%ymm9
    3249:	c4 e2 dd 47 3e       	vpsllvq (%rsi),%ymm4,%ymm7
    324e:	c4 c2 dd 45 20       	vpsrlvq (%r8),%ymm4,%ymm4
    3253:	c5 dd eb e7          	vpor   %ymm7,%ymm4,%ymm4
    3257:	c4 c1 7d ef c1       	vpxor  %ymm9,%ymm0,%ymm0
    325c:	c4 e2 fd 47 7e 40    	vpsllvq 0x40(%rsi),%ymm0,%ymm7
    3262:	c4 c2 fd 45 40 40    	vpsrlvq 0x40(%r8),%ymm0,%ymm0
    3268:	c5 fd eb c7          	vpor   %ymm7,%ymm0,%ymm0
    326c:	c4 c1 55 ef e9       	vpxor  %ymm9,%ymm5,%ymm5
    3271:	c4 e2 d5 47 7e 60    	vpsllvq 0x60(%rsi),%ymm5,%ymm7
    3277:	c4 c2 d5 45 68 60    	vpsrlvq 0x60(%r8),%ymm5,%ymm5
    327d:	c5 55 eb d7          	vpor   %ymm7,%ymm5,%ymm10
    3281:	c4 c1 75 ef c9       	vpxor  %ymm9,%ymm1,%ymm1
    3286:	c4 e2 f5 47 ae 80 00 	vpsllvq 0x80(%rsi),%ymm1,%ymm5
    328d:	00 00 
    328f:	c4 c2 f5 45 88 80 00 	vpsrlvq 0x80(%r8),%ymm1,%ymm1
    3296:	00 00 
    3298:	c5 f5 eb cd          	vpor   %ymm5,%ymm1,%ymm1
    329c:	c4 c1 6d ef d1       	vpxor  %ymm9,%ymm2,%ymm2
    32a1:	c4 e3 fd 00 ec 8d    	vpermq $0x8d,%ymm4,%ymm5
    32a7:	c4 e3 fd 00 f8 8d    	vpermq $0x8d,%ymm0,%ymm7
    32ad:	c4 e2 ed 47 86 a0 00 	vpsllvq 0xa0(%rsi),%ymm2,%ymm0
    32b4:	00 00 
    32b6:	c4 c2 ed 45 90 a0 00 	vpsrlvq 0xa0(%r8),%ymm2,%ymm2
    32bd:	00 00 
    32bf:	c5 6d eb c0          	vpor   %ymm0,%ymm2,%ymm8
    32c3:	c4 c1 65 ef c1       	vpxor  %ymm9,%ymm3,%ymm0
    32c8:	c4 c3 fd 00 da 1b    	vpermq $0x1b,%ymm10,%ymm3
    32ce:	c4 63 fd 00 c9 72    	vpermq $0x72,%ymm1,%ymm9
    32d4:	c4 e2 fd 47 4e 20    	vpsllvq 0x20(%rsi),%ymm0,%ymm1
    32da:	c4 c2 fd 45 40 20    	vpsrlvq 0x20(%r8),%ymm0,%ymm0
    32e0:	c5 7d eb d1          	vpor   %ymm1,%ymm0,%ymm10
    32e4:	c4 c1 7d 73 d8 08    	vpsrldq $0x8,%ymm8,%ymm0
    32ea:	c5 bd df c0          	vpandn %ymm0,%ymm8,%ymm0
    32ee:	c4 c3 2d 02 c9 0c    	vpblendd $0xc,%ymm9,%ymm10,%ymm1
    32f4:	c4 c3 45 02 d2 0c    	vpblendd $0xc,%ymm10,%ymm7,%ymm2
    32fa:	c4 e3 55 02 e7 0c    	vpblendd $0xc,%ymm7,%ymm5,%ymm4
    3300:	c4 63 2d 02 dd 0c    	vpblendd $0xc,%ymm5,%ymm10,%ymm11
    3306:	c4 e3 75 02 cf 30    	vpblendd $0x30,%ymm7,%ymm1,%ymm1
    330c:	c4 e3 6d 02 d3 30    	vpblendd $0x30,%ymm3,%ymm2,%ymm2
    3312:	c4 c3 5d 02 e2 30    	vpblendd $0x30,%ymm10,%ymm4,%ymm4
    3318:	c4 43 25 02 d9 30    	vpblendd $0x30,%ymm9,%ymm11,%ymm11
    331e:	c4 e3 75 02 cb c0    	vpblendd $0xc0,%ymm3,%ymm1,%ymm1
    3324:	c4 c3 6d 02 d1 c0    	vpblendd $0xc0,%ymm9,%ymm2,%ymm2
    332a:	c4 c3 5d 02 e1 c0    	vpblendd $0xc0,%ymm9,%ymm4,%ymm4
    3330:	c4 63 25 02 df c0    	vpblendd $0xc0,%ymm7,%ymm11,%ymm11
    3336:	c5 f5 df ca          	vpandn %ymm2,%ymm1,%ymm1
    333a:	c4 c1 5d df d3       	vpandn %ymm11,%ymm4,%ymm2
    333f:	c4 c3 65 02 e2 0c    	vpblendd $0xc,%ymm10,%ymm3,%ymm4
    3345:	c4 63 55 02 db 0c    	vpblendd $0xc,%ymm3,%ymm5,%ymm11
    334b:	c5 f5 ef cd          	vpxor  %ymm5,%ymm1,%ymm1
    334f:	c4 e3 5d 02 e5 30    	vpblendd $0x30,%ymm5,%ymm4,%ymm4
    3355:	c4 63 25 02 df 30    	vpblendd $0x30,%ymm7,%ymm11,%ymm11
    335b:	c5 ed ef d3          	vpxor  %ymm3,%ymm2,%ymm2
    335f:	c4 e3 5d 02 e7 c0    	vpblendd $0xc0,%ymm7,%ymm4,%ymm4
    3365:	c4 43 25 02 da c0    	vpblendd $0xc0,%ymm10,%ymm11,%ymm11
    336b:	c4 c1 5d df e3       	vpandn %ymm11,%ymm4,%ymm4
    3370:	c4 41 5d ef e1       	vpxor  %ymm9,%ymm4,%ymm12
    3375:	c4 c3 fd 00 e0 1e    	vpermq $0x1e,%ymm8,%ymm4
    337b:	c4 e3 5d 02 e6 30    	vpblendd $0x30,%ymm6,%ymm4,%ymm4
    3381:	c4 43 fd 00 d8 39    	vpermq $0x39,%ymm8,%ymm11
    3387:	c4 63 25 02 de c0    	vpblendd $0xc0,%ymm6,%ymm11,%ymm11
    338d:	c5 25 df dc          	vpandn %ymm4,%ymm11,%ymm11
    3391:	c4 e3 45 02 e3 0c    	vpblendd $0xc,%ymm3,%ymm7,%ymm4
    3397:	c4 63 35 02 ef 0c    	vpblendd $0xc,%ymm7,%ymm9,%ymm13
    339d:	c4 c3 5d 02 e1 30    	vpblendd $0x30,%ymm9,%ymm4,%ymm4
    33a3:	c4 63 15 02 ed 30    	vpblendd $0x30,%ymm5,%ymm13,%ymm13
    33a9:	c4 e3 5d 02 e5 c0    	vpblendd $0xc0,%ymm5,%ymm4,%ymm4
    33af:	c4 63 15 02 eb c0    	vpblendd $0xc0,%ymm3,%ymm13,%ymm13
    33b5:	c4 c1 5d df e5       	vpandn %ymm13,%ymm4,%ymm4
    33ba:	c4 c1 5d ef e2       	vpxor  %ymm10,%ymm4,%ymm4
    33bf:	c4 63 fd 00 e8 00    	vpermq $0x0,%ymm0,%ymm13
    33c5:	c4 e3 fd 00 c1 1b    	vpermq $0x1b,%ymm1,%ymm0
    33cb:	c4 e3 fd 00 ca 8d    	vpermq $0x8d,%ymm2,%ymm1
    33d1:	c4 c3 fd 00 d4 72    	vpermq $0x72,%ymm12,%ymm2
    33d7:	c4 63 35 02 e5 0c    	vpblendd $0xc,%ymm5,%ymm9,%ymm12
    33dd:	c4 43 65 02 c9 0c    	vpblendd $0xc,%ymm9,%ymm3,%ymm9
    33e3:	c4 e3 1d 02 db 30    	vpblendd $0x30,%ymm3,%ymm12,%ymm3
    33e9:	c4 43 35 02 ca 30    	vpblendd $0x30,%ymm10,%ymm9,%ymm9
    33ef:	c4 c3 65 02 da c0    	vpblendd $0xc0,%ymm10,%ymm3,%ymm3
    33f5:	c4 e3 35 02 ed c0    	vpblendd $0xc0,%ymm5,%ymm9,%ymm5
    33fb:	c5 e5 df ed          	vpandn %ymm5,%ymm3,%ymm5
    33ff:	c4 c1 4d ef f5       	vpxor  %ymm13,%ymm6,%ymm6
    3404:	c4 c1 25 ef d8       	vpxor  %ymm8,%ymm11,%ymm3
    3409:	c5 d5 ef ef          	vpxor  %ymm7,%ymm5,%ymm5
    340d:	c5 cd ef 34 11       	vpxor  (%rcx,%rdx,1),%ymm6,%ymm6
    3412:	48 83 c2 20          	add    $0x20,%rdx
    3416:	49 ff ca             	dec    %r10
    3419:	0f 85 b1 fd ff ff    	jne    31d0 <L_keccak1600_avx2$6>
    341f:	c5 fe 7f 74 24 20    	vmovdqu %ymm6,0x20(%rsp)
    3425:	c5 fe 7f 5c 24 40    	vmovdqu %ymm3,0x40(%rsp)
    342b:	c5 fe 7f 64 24 60    	vmovdqu %ymm4,0x60(%rsp)
    3431:	c5 fe 7f 84 24 80 00 	vmovdqu %ymm0,0x80(%rsp)
    3438:	00 00 
    343a:	c5 fe 7f ac 24 a0 00 	vmovdqu %ymm5,0xa0(%rsp)
    3441:	00 00 
    3443:	c5 fe 7f 8c 24 c0 00 	vmovdqu %ymm1,0xc0(%rsp)
    344a:	00 00 
    344c:	c5 fe 7f 94 24 e0 00 	vmovdqu %ymm2,0xe0(%rsp)
    3453:	00 00 
    3455:	4c 89 c9             	mov    %r9,%rcx
    3458:	48 c1 e9 03          	shr    $0x3,%rcx
    345c:	48 c7 c2 00 00 00 00 	mov    $0x0,%rdx
    3463:	eb 10                	jmp    3475 <L_keccak1600_avx2$4>

0000000000003465 <L_keccak1600_avx2$5>:
    3465:	48 8b 34 d0          	mov    (%rax,%rdx,8),%rsi
    3469:	48 8b 74 f4 20       	mov    0x20(%rsp,%rsi,8),%rsi
    346e:	48 89 34 d7          	mov    %rsi,(%rdi,%rdx,8)
    3472:	48 ff c2             	inc    %rdx

0000000000003475 <L_keccak1600_avx2$4>:
    3475:	48 39 ca             	cmp    %rcx,%rdx
    3478:	72 eb                	jb     3465 <L_keccak1600_avx2$5>
    347a:	48 8b 04 d0          	mov    (%rax,%rdx,8),%rax
    347e:	48 c1 e2 03          	shl    $0x3,%rdx
    3482:	48 c1 e0 03          	shl    $0x3,%rax
    3486:	eb 0d                	jmp    3495 <L_keccak1600_avx2$2>

0000000000003488 <L_keccak1600_avx2$3>:
    3488:	8a 4c 04 20          	mov    0x20(%rsp,%rax,1),%cl
    348c:	88 0c 17             	mov    %cl,(%rdi,%rdx,1)
    348f:	48 ff c2             	inc    %rdx
    3492:	48 ff c0             	inc    %rax

0000000000003495 <L_keccak1600_avx2$2>:
    3495:	4c 39 ca             	cmp    %r9,%rdx
    3498:	72 ee                	jb     3488 <L_keccak1600_avx2$3>
    349a:	c3                   	ret    

Disassembly of section .fini:

000000000000349c <_fini>:
    349c:	f3 0f 1e fa          	endbr64 
    34a0:	48 83 ec 08          	sub    $0x8,%rsp
    34a4:	48 83 c4 08          	add    $0x8,%rsp
    34a8:	c3                   	ret    
