0000000000001250 <sha3>:
    1250:	f3 0f 1e fa          	endbr64 
    1254:	41 57                	push   %r15
    1256:	41 56                	push   %r14
    1258:	41 55                	push   %r13
    125a:	49 89 fe             	mov    %rdi,%r14
    125d:	41 54                	push   %r12
    125f:	55                   	push   %rbp
    1260:	53                   	push   %rbx
    1261:	48 89 d3             	mov    %rdx,%rbx
    1264:	48 81 ec d8 00 00 00 	sub    $0xd8,%rsp
    126b:	49 89 f5             	mov    %rsi,%r13
    126e:	48 89 e5             	mov    %rsp,%rbp
    1271:	48 89 ef             	mov    %rbp,%rdi
    1274:	64 48 8b 04 25 28 00 	mov    %fs:0x28,%rax
    127b:	00 00 
    127d:	48 89 84 24 c8 00 00 	mov    %rax,0xc8(%rsp)
    1284:	00 
    1285:	31 c0                	xor    %eax,%eax
    1287:	e8 94 05 00 00       	call   1820 <KeccakP1600_Initialize>
    128c:	48 85 db             	test   %rbx,%rbx
    128f:	0f 84 cb 00 00 00    	je     1360 <sha3+0x110>
    1295:	45 31 ff             	xor    %r15d,%r15d
    1298:	45 31 e4             	xor    %r12d,%r12d
    129b:	31 c0                	xor    %eax,%eax
    129d:	0f 1f 00             	nopl   (%rax)
    12a0:	41 0f b6 74 05 00    	movzbl 0x0(%r13,%rax,1),%esi
    12a6:	44 89 e2             	mov    %r12d,%edx
    12a9:	48 89 ef             	mov    %rbp,%rdi
    12ac:	41 ff c4             	inc    %r12d
    12af:	e8 ac 05 00 00       	call   1860 <KeccakP1600_AddByte>
    12b4:	4c 89 e0             	mov    %r12,%rax
    12b7:	4d 69 e4 1f 85 eb 51 	imul   $0x51eb851f,%r12,%r12
    12be:	49 c1 ec 26          	shr    $0x26,%r12
    12c2:	41 69 d4 c8 00 00 00 	imul   $0xc8,%r12d,%edx
    12c9:	29 d0                	sub    %edx,%eax
    12cb:	41 89 c4             	mov    %eax,%r12d
    12ce:	41 8d 47 01          	lea    0x1(%r15),%eax
    12d2:	49 89 c7             	mov    %rax,%r15
    12d5:	48 39 d8             	cmp    %rbx,%rax
    12d8:	72 c6                	jb     12a0 <sha3+0x50>
    12da:	45 8d 6c 24 01       	lea    0x1(%r12),%r13d
    12df:	4c 89 e8             	mov    %r13,%rax
    12e2:	4d 69 ed 1f 85 eb 51 	imul   $0x51eb851f,%r13,%r13
    12e9:	49 c1 ed 26          	shr    $0x26,%r13
    12ed:	41 69 d5 c8 00 00 00 	imul   $0xc8,%r13d,%edx
    12f4:	29 d0                	sub    %edx,%eax
    12f6:	41 89 c5             	mov    %eax,%r13d
    12f9:	44 89 e2             	mov    %r12d,%edx
    12fc:	be 06 00 00 00       	mov    $0x6,%esi
    1301:	48 89 ef             	mov    %rbp,%rdi
    1304:	e8 57 05 00 00       	call   1860 <KeccakP1600_AddByte>
    1309:	44 89 ea             	mov    %r13d,%edx
    130c:	be 80 00 00 00       	mov    $0x80,%esi
    1311:	48 89 ef             	mov    %rbp,%rdi
    1314:	e8 47 05 00 00       	call   1860 <KeccakP1600_AddByte>
    1319:	48 89 ef             	mov    %rbp,%rdi
    131c:	e8 6f 0e 00 00       	call   2190 <KeccakP1600_Permute_24rounds>
    1321:	31 d2                	xor    %edx,%edx
    1323:	b9 20 00 00 00       	mov    $0x20,%ecx
    1328:	4c 89 f6             	mov    %r14,%rsi
    132b:	48 89 ef             	mov    %rbp,%rdi
    132e:	e8 8d 0e 00 00       	call   21c0 <KeccakP1600_ExtractBytes>
    1333:	48 8b 84 24 c8 00 00 	mov    0xc8(%rsp),%rax
    133a:	00 
    133b:	64 48 2b 04 25 28 00 	sub    %fs:0x28,%rax
    1342:	00 00 
    1344:	75 25                	jne    136b <sha3+0x11b>
    1346:	48 81 c4 d8 00 00 00 	add    $0xd8,%rsp
    134d:	31 c0                	xor    %eax,%eax
    134f:	5b                   	pop    %rbx
    1350:	5d                   	pop    %rbp
    1351:	41 5c                	pop    %r12
    1353:	41 5d                	pop    %r13
    1355:	41 5e                	pop    %r14
    1357:	41 5f                	pop    %r15
    1359:	c3                   	ret    
    135a:	66 0f 1f 44 00 00    	nopw   0x0(%rax,%rax,1)
    1360:	41 bd 01 00 00 00    	mov    $0x1,%r13d
    1366:	45 31 e4             	xor    %r12d,%r12d
    1369:	eb 8e                	jmp    12f9 <sha3+0xa9>
    136b:	e8 60 fd ff ff       	call   10d0 <__stack_chk_fail@plt>

0000000000000000 <KeccakP1600_Initialize>:
   0:	f3 0f 1e fa          	endbr64 
   4:	48 c7 07 00 00 00 00 	movq   $0x0,(%rdi)
   b:	48 89 f9             	mov    %rdi,%rcx
   e:	48 8d 7f 08          	lea    0x8(%rdi),%rdi
  12:	31 c0                	xor    %eax,%eax
  14:	48 c7 87 b8 00 00 00 	movq   $0x0,0xb8(%rdi)
  1b:	00 00 00 00 
  1f:	48 83 e7 f8          	and    $0xfffffffffffffff8,%rdi
  23:	48 29 f9             	sub    %rdi,%rcx
  26:	81 c1 c8 00 00 00    	add    $0xc8,%ecx
  2c:	c1 e9 03             	shr    $0x3,%ecx
  2f:	f3 48 ab             	rep stos %rax,%es:(%rdi)
  32:	c3                   	ret    
  33:	66 66 2e 0f 1f 84 00 	data16 cs nopw 0x0(%rax,%rax,1)
  3a:	00 00 00 00 
  3e:	66 90                	xchg   %ax,%ax

0000000000000040 <KeccakP1600_AddByte>:
  40:	f3 0f 1e fa          	endbr64 
  44:	81 fa c7 00 00 00    	cmp    $0xc7,%edx
  4a:	77 07                	ja     53 <KeccakP1600_AddByte+0x13>
  4c:	89 d2                	mov    %edx,%edx
  4e:	40 30 34 17          	xor    %sil,(%rdi,%rdx,1)
  52:	c3                   	ret    
  53:	50                   	push   %rax
  54:	48 8d 0d 00 00 00 00 	lea    0x0(%rip),%rcx        # 5b <KeccakP1600_AddByte+0x1b>
  5b:	ba 53 00 00 00       	mov    $0x53,%edx
  60:	48 8d 35 00 00 00 00 	lea    0x0(%rip),%rsi        # 67 <KeccakP1600_AddByte+0x27>
  67:	48 8d 3d 00 00 00 00 	lea    0x0(%rip),%rdi        # 6e <KeccakP1600_AddByte+0x2e>
  6e:	e8 00 00 00 00       	call   73 <KeccakP1600_AddByte+0x33>
  73:	66 66 2e 0f 1f 84 00 	data16 cs nopw 0x0(%rax,%rax,1)
  7a:	00 00 00 00 
  7e:	66 90                	xchg   %ax,%ax

0000000000000040 <KeccakP1600_AddByte>:
  40:	f3 0f 1e fa          	endbr64 
  44:	81 fa c7 00 00 00    	cmp    $0xc7,%edx
  4a:	77 07                	ja     53 <KeccakP1600_AddByte+0x13>
  4c:	89 d2                	mov    %edx,%edx
  4e:	40 30 34 17          	xor    %sil,(%rdi,%rdx,1)
  52:	c3                   	ret    
  53:	50                   	push   %rax
  54:	48 8d 0d 00 00 00 00 	lea    0x0(%rip),%rcx        # 5b <KeccakP1600_AddByte+0x1b>
  5b:	ba 53 00 00 00       	mov    $0x53,%edx
  60:	48 8d 35 00 00 00 00 	lea    0x0(%rip),%rsi        # 67 <KeccakP1600_AddByte+0x27>
  67:	48 8d 3d 00 00 00 00 	lea    0x0(%rip),%rdi        # 6e <KeccakP1600_AddByte+0x2e>
  6e:	e8 00 00 00 00       	call   73 <KeccakP1600_AddByte+0x33>
  73:	66 66 2e 0f 1f 84 00 	data16 cs nopw 0x0(%rax,%rax,1)
  7a:	00 00 00 00 
  7e:	66 90                	xchg   %ax,%ax

0000000000000970 <KeccakP1600_Permute_24rounds>:
 970:	f3 0f 1e fa          	endbr64 
 974:	55                   	push   %rbp
 975:	48 89 fd             	mov    %rdi,%rbp
 978:	53                   	push   %rbx
 979:	31 db                	xor    %ebx,%ebx
 97b:	48 83 ec 08          	sub    $0x8,%rsp
 97f:	90                   	nop
 980:	89 de                	mov    %ebx,%esi
 982:	48 89 ef             	mov    %rbp,%rdi
 985:	83 c3 01             	add    $0x1,%ebx
 988:	e8 00 00 00 00       	call   98d <KeccakP1600_Permute_24rounds+0x1d>
 98d:	83 fb 18             	cmp    $0x18,%ebx
 990:	75 ee                	jne    980 <KeccakP1600_Permute_24rounds+0x10>
 992:	48 83 c4 08          	add    $0x8,%rsp
 996:	5b                   	pop    %rbx
 997:	5d                   	pop    %rbp
 998:	c3                   	ret    
 999:	0f 1f 80 00 00 00 00 	nopl   0x0(%rax)

 00000000000009a0 <KeccakP1600_ExtractBytes>:
 9a0:	f3 0f 1e fa          	endbr64 
 9a4:	48 83 ec 08          	sub    $0x8,%rsp
 9a8:	81 fa c7 00 00 00    	cmp    $0xc7,%edx
 9ae:	77 25                	ja     9d5 <KeccakP1600_ExtractBytes+0x35>
 9b0:	8d 04 0a             	lea    (%rdx,%rcx,1),%eax
 9b3:	3d c8 00 00 00       	cmp    $0xc8,%eax
 9b8:	77 3a                	ja     9f4 <KeccakP1600_ExtractBytes+0x54>
 9ba:	49 89 f1             	mov    %rsi,%r9
 9bd:	89 d2                	mov    %edx,%edx
 9bf:	41 89 c8             	mov    %ecx,%r8d
 9c2:	48 83 c4 08          	add    $0x8,%rsp
 9c6:	48 8d 34 17          	lea    (%rdi,%rdx,1),%rsi
 9ca:	4c 89 c2             	mov    %r8,%rdx
 9cd:	4c 89 cf             	mov    %r9,%rdi
 9d0:	e9 00 00 00 00       	jmp    9d5 <KeccakP1600_ExtractBytes+0x35>
 9d5:	48 8d 0d 00 00 00 00 	lea    0x0(%rip),%rcx        # 9dc <KeccakP1600_ExtractBytes+0x3c>
 9dc:	ba da 00 00 00       	mov    $0xda,%edx
 9e1:	48 8d 35 00 00 00 00 	lea    0x0(%rip),%rsi        # 9e8 <KeccakP1600_ExtractBytes+0x48>
 9e8:	48 8d 3d 00 00 00 00 	lea    0x0(%rip),%rdi        # 9ef <KeccakP1600_ExtractBytes+0x4f>
 9ef:	e8 00 00 00 00       	call   9f4 <KeccakP1600_ExtractBytes+0x54>
 9f4:	48 8d 0d 00 00 00 00 	lea    0x0(%rip),%rcx        # 9fb <KeccakP1600_ExtractBytes+0x5b>
 9fb:	ba db 00 00 00       	mov    $0xdb,%edx
 a00:	48 8d 35 00 00 00 00 	lea    0x0(%rip),%rsi        # a07 <KeccakP1600_ExtractBytes+0x67>
 a07:	48 8d 3d 00 00 00 00 	lea    0x0(%rip),%rdi        # a0e <KeccakP1600_ExtractBytes+0x6e>
 a0e:	e8 00 00 00 00       	call   a13 <KeccakP1600_ExtractBytes+0x73>
 a13:	66 66 2e 0f 1f 84 00 	data16 cs nopw 0x0(%rax,%rax,1)
 a1a:	00 00 00 00 
 a1e:	66 90                	xchg   %ax,%ax